---
triple:          'arm64-apple-darwin'
binary-path:     main
relocations:
  - { offsetInCU: 0x9680, offset: 0x9680, size: 0x8, addend: 0x0, symName: __ZNSt3__112__to_addressB8ue170006INS_6vectorI6neuronNS_9allocatorIS2_EEEEEEPT_S7_, symObjAddr: 0x52C, symBinAddr: 0x100003B38, symSize: 0x14 }
  - { offsetInCU: 0x96B5, offset: 0x96B5, size: 0x8, addend: 0x0, symName: __ZNSt3__119__libcpp_deallocateB8ue170006EPvmm, symObjAddr: 0x61C, symBinAddr: 0x100003C28, symSize: 0x60 }
  - { offsetInCU: 0x971A, offset: 0x971A, size: 0x8, addend: 0x0, symName: __ZNSt3__124__is_overaligned_for_newB8ue170006Em, symObjAddr: 0x67C, symBinAddr: 0x100003C88, symSize: 0x20 }
  - { offsetInCU: 0x9748, offset: 0x9748, size: 0x8, addend: 0x0, symName: __ZNSt3__127__do_deallocate_handle_sizeB8ue170006IJSt11align_val_tEEEvPvmDpT_, symObjAddr: 0x69C, symBinAddr: 0x100003CA8, symSize: 0x30 }
  - { offsetInCU: 0x979B, offset: 0x979B, size: 0x8, addend: 0x0, symName: __ZNSt3__127__do_deallocate_handle_sizeB8ue170006IJEEEvPvmDpT_, symObjAddr: 0x6CC, symBinAddr: 0x100003CD8, symSize: 0x28 }
  - { offsetInCU: 0x97D9, offset: 0x97D9, size: 0x8, addend: 0x0, symName: __ZNSt3__124__libcpp_operator_deleteB8ue170006IJPvSt11align_val_tEEEvDpT_, symObjAddr: 0x6F4, symBinAddr: 0x100003D00, symSize: 0x2C }
  - { offsetInCU: 0x9822, offset: 0x9822, size: 0x8, addend: 0x0, symName: __ZNSt3__124__libcpp_operator_deleteB8ue170006IJPvEEEvDpT_, symObjAddr: 0x720, symBinAddr: 0x100003D2C, symSize: 0x24 }
  - { offsetInCU: 0x9857, offset: 0x9857, size: 0x8, addend: 0x0, symName: __ZNSt3__112__to_addressB8ue170006I6neuronEEPT_S3_, symObjAddr: 0xB54, symBinAddr: 0x100004160, symSize: 0x14 }
  - { offsetInCU: 0x988C, offset: 0x988C, size: 0x8, addend: 0x0, symName: __ZNSt3__112__to_addressB8ue170006INS_17reference_wrapperI5valueEEEEPT_S5_, symObjAddr: 0x1018, symBinAddr: 0x100004624, symSize: 0x14 }
  - { offsetInCU: 0x98C1, offset: 0x98C1, size: 0x8, addend: 0x0, symName: __ZNSt3__112__to_addressB8ue170006I5valueEEPT_S3_, symObjAddr: 0x1688, symBinAddr: 0x100004C94, symSize: 0x14 }
  - { offsetInCU: 0xCB1A, offset: 0xCB1A, size: 0x8, addend: 0x0, symName: _main, symObjAddr: 0x0, symBinAddr: 0x10000360C, symSize: 0xB4 }
  - { offsetInCU: 0xD0C6, offset: 0xD0C6, size: 0x8, addend: 0x0, symName: __ZN5layerD1Ev, symObjAddr: 0xB4, symBinAddr: 0x1000036C0, symSize: 0x2C }
  - { offsetInCU: 0xD0F0, offset: 0xD0F0, size: 0x8, addend: 0x0, symName: __ZN11value_arrayD1Ev, symObjAddr: 0xE0, symBinAddr: 0x1000036EC, symSize: 0x2C }
  - { offsetInCU: 0xD11A, offset: 0xD11A, size: 0x8, addend: 0x0, symName: __ZN5layerD2Ev, symObjAddr: 0x10C, symBinAddr: 0x100003718, symSize: 0x44 }
  - { offsetInCU: 0xD144, offset: 0xD144, size: 0x8, addend: 0x0, symName: __ZNSt3__16vectorINS0_I6neuronNS_9allocatorIS1_EEEENS2_IS4_EEED1B8ue170006Ev, symObjAddr: 0x150, symBinAddr: 0x10000375C, symSize: 0x2C }
  - { offsetInCU: 0xD16C, offset: 0xD16C, size: 0x8, addend: 0x0, symName: __ZNSt3__16vectorI6neuronNS_9allocatorIS1_EEED1B8ue170006Ev, symObjAddr: 0x17C, symBinAddr: 0x100003788, symSize: 0x2C }
  - { offsetInCU: 0xD194, offset: 0xD194, size: 0x8, addend: 0x0, symName: __ZNSt3__16vectorINS0_I6neuronNS_9allocatorIS1_EEEENS2_IS4_EEED2B8ue170006Ev, symObjAddr: 0x1A8, symBinAddr: 0x1000037B4, symSize: 0x44 }
  - { offsetInCU: 0xD1BC, offset: 0xD1BC, size: 0x8, addend: 0x0, symName: __ZNSt3__16vectorINS0_I6neuronNS_9allocatorIS1_EEEENS2_IS4_EEE16__destroy_vectorC1B8ue170006ERS6_, symObjAddr: 0x1EC, symBinAddr: 0x1000037F8, symSize: 0x34 }
  - { offsetInCU: 0xD1F3, offset: 0xD1F3, size: 0x8, addend: 0x0, symName: __ZNSt3__16vectorINS0_I6neuronNS_9allocatorIS1_EEEENS2_IS4_EEE16__destroy_vectorclB8ue170006Ev, symObjAddr: 0x22C, symBinAddr: 0x100003838, symSize: 0x90 }
  - { offsetInCU: 0xD217, offset: 0xD217, size: 0x8, addend: 0x0, symName: __ZNSt3__16vectorINS0_I6neuronNS_9allocatorIS1_EEEENS2_IS4_EEE16__destroy_vectorC2B8ue170006ERS6_, symObjAddr: 0x2BC, symBinAddr: 0x1000038C8, symSize: 0x20 }
  - { offsetInCU: 0xD24E, offset: 0xD24E, size: 0x8, addend: 0x0, symName: __ZNSt3__16vectorINS0_I6neuronNS_9allocatorIS1_EEEENS2_IS4_EEE7__clearB8ue170006Ev, symObjAddr: 0x2DC, symBinAddr: 0x1000038E8, symSize: 0x28 }
  - { offsetInCU: 0xD272, offset: 0xD272, size: 0x8, addend: 0x0, symName: __ZNKSt3__16vectorINS0_I6neuronNS_9allocatorIS1_EEEENS2_IS4_EEE17__annotate_deleteB8ue170006Ev, symObjAddr: 0x304, symBinAddr: 0x100003910, symSize: 0xD4 }
  - { offsetInCU: 0xD296, offset: 0xD296, size: 0x8, addend: 0x0, symName: __ZNSt3__116allocator_traitsINS_9allocatorINS_6vectorI6neuronNS1_IS3_EEEEEEE10deallocateB8ue170006ERS6_PS5_m, symObjAddr: 0x3D8, symBinAddr: 0x1000039E4, symSize: 0x34 }
  - { offsetInCU: 0xD2D7, offset: 0xD2D7, size: 0x8, addend: 0x0, symName: __ZNSt3__16vectorINS0_I6neuronNS_9allocatorIS1_EEEENS2_IS4_EEE7__allocB8ue170006Ev, symObjAddr: 0x40C, symBinAddr: 0x100003A18, symSize: 0x28 }
  - { offsetInCU: 0xD2FB, offset: 0xD2FB, size: 0x8, addend: 0x0, symName: __ZNKSt3__16vectorINS0_I6neuronNS_9allocatorIS1_EEEENS2_IS4_EEE8capacityB8ue170006Ev, symObjAddr: 0x434, symBinAddr: 0x100003A40, symSize: 0x40 }
  - { offsetInCU: 0xD31F, offset: 0xD31F, size: 0x8, addend: 0x0, symName: __ZNSt3__16vectorINS0_I6neuronNS_9allocatorIS1_EEEENS2_IS4_EEE22__base_destruct_at_endB8ue170006EPS4_, symObjAddr: 0x474, symBinAddr: 0x100003A80, symSize: 0x8C }
  - { offsetInCU: 0xD361, offset: 0xD361, size: 0x8, addend: 0x0, symName: __ZNSt3__116allocator_traitsINS_9allocatorINS_6vectorI6neuronNS1_IS3_EEEEEEE7destroyB8ue170006IS5_vEEvRS6_PT_, symObjAddr: 0x500, symBinAddr: 0x100003B0C, symSize: 0x2C }
  - { offsetInCU: 0xD39D, offset: 0xD39D, size: 0x8, addend: 0x0, symName: __ZNSt3__19allocatorINS_6vectorI6neuronNS0_IS2_EEEEE7destroyB8ue170006EPS4_, symObjAddr: 0x540, symBinAddr: 0x100003B4C, symSize: 0x28 }
  - { offsetInCU: 0xD3CF, offset: 0xD3CF, size: 0x8, addend: 0x0, symName: __ZNKSt3__16vectorINS0_I6neuronNS_9allocatorIS1_EEEENS2_IS4_EEE31__annotate_contiguous_containerB8ue170006EPKvS8_S8_S8_, symObjAddr: 0x568, symBinAddr: 0x100003B74, symSize: 0x20 }
  - { offsetInCU: 0xD41F, offset: 0xD41F, size: 0x8, addend: 0x0, symName: __ZNKSt3__16vectorINS0_I6neuronNS_9allocatorIS1_EEEENS2_IS4_EEE4dataB8ue170006Ev, symObjAddr: 0x588, symBinAddr: 0x100003B94, symSize: 0x28 }
  - { offsetInCU: 0xD443, offset: 0xD443, size: 0x8, addend: 0x0, symName: __ZNKSt3__16vectorINS0_I6neuronNS_9allocatorIS1_EEEENS2_IS4_EEE4sizeB8ue170006Ev, symObjAddr: 0x5B0, symBinAddr: 0x100003BBC, symSize: 0x28 }
  - { offsetInCU: 0xD467, offset: 0xD467, size: 0x8, addend: 0x0, symName: __ZNSt3__19allocatorINS_6vectorI6neuronNS0_IS2_EEEEE10deallocateB8ue170006EPS4_m, symObjAddr: 0x5D8, symBinAddr: 0x100003BE4, symSize: 0x44 }
  - { offsetInCU: 0xD4A7, offset: 0xD4A7, size: 0x8, addend: 0x0, symName: __ZNSt3__117__compressed_pairIPNS_6vectorI6neuronNS_9allocatorIS2_EEEENS3_IS5_EEE6secondB8ue170006Ev, symObjAddr: 0x744, symBinAddr: 0x100003D50, symSize: 0x24 }
  - { offsetInCU: 0xD4CB, offset: 0xD4CB, size: 0x8, addend: 0x0, symName: __ZNSt3__122__compressed_pair_elemINS_9allocatorINS_6vectorI6neuronNS1_IS3_EEEEEELi1ELb1EE5__getB8ue170006Ev, symObjAddr: 0x768, symBinAddr: 0x100003D74, symSize: 0x14 }
  - { offsetInCU: 0xD4EF, offset: 0xD4EF, size: 0x8, addend: 0x0, symName: __ZNKSt3__16vectorINS0_I6neuronNS_9allocatorIS1_EEEENS2_IS4_EEE9__end_capB8ue170006Ev, symObjAddr: 0x77C, symBinAddr: 0x100003D88, symSize: 0x28 }
  - { offsetInCU: 0xD513, offset: 0xD513, size: 0x8, addend: 0x0, symName: __ZNKSt3__117__compressed_pairIPNS_6vectorI6neuronNS_9allocatorIS2_EEEENS3_IS5_EEE5firstB8ue170006Ev, symObjAddr: 0x7A4, symBinAddr: 0x100003DB0, symSize: 0x24 }
  - { offsetInCU: 0xD537, offset: 0xD537, size: 0x8, addend: 0x0, symName: __ZNKSt3__122__compressed_pair_elemIPNS_6vectorI6neuronNS_9allocatorIS2_EEEELi0ELb0EE5__getB8ue170006Ev, symObjAddr: 0x7C8, symBinAddr: 0x100003DD4, symSize: 0x14 }
  - { offsetInCU: 0xD55B, offset: 0xD55B, size: 0x8, addend: 0x0, symName: __ZNSt3__16vectorI6neuronNS_9allocatorIS1_EEED2B8ue170006Ev, symObjAddr: 0x7DC, symBinAddr: 0x100003DE8, symSize: 0x44 }
  - { offsetInCU: 0xD583, offset: 0xD583, size: 0x8, addend: 0x0, symName: __ZNSt3__16vectorI6neuronNS_9allocatorIS1_EEE16__destroy_vectorC1B8ue170006ERS4_, symObjAddr: 0x820, symBinAddr: 0x100003E2C, symSize: 0x34 }
  - { offsetInCU: 0xD5BA, offset: 0xD5BA, size: 0x8, addend: 0x0, symName: __ZNSt3__16vectorI6neuronNS_9allocatorIS1_EEE16__destroy_vectorclB8ue170006Ev, symObjAddr: 0x854, symBinAddr: 0x100003E60, symSize: 0x90 }
  - { offsetInCU: 0xD5DE, offset: 0xD5DE, size: 0x8, addend: 0x0, symName: __ZNSt3__16vectorI6neuronNS_9allocatorIS1_EEE16__destroy_vectorC2B8ue170006ERS4_, symObjAddr: 0x8E4, symBinAddr: 0x100003EF0, symSize: 0x20 }
  - { offsetInCU: 0xD615, offset: 0xD615, size: 0x8, addend: 0x0, symName: __ZNSt3__16vectorI6neuronNS_9allocatorIS1_EEE7__clearB8ue170006Ev, symObjAddr: 0x904, symBinAddr: 0x100003F10, symSize: 0x28 }
  - { offsetInCU: 0xD639, offset: 0xD639, size: 0x8, addend: 0x0, symName: __ZNKSt3__16vectorI6neuronNS_9allocatorIS1_EEE17__annotate_deleteB8ue170006Ev, symObjAddr: 0x92C, symBinAddr: 0x100003F38, symSize: 0xD4 }
  - { offsetInCU: 0xD65D, offset: 0xD65D, size: 0x8, addend: 0x0, symName: __ZNSt3__116allocator_traitsINS_9allocatorI6neuronEEE10deallocateB8ue170006ERS3_PS2_m, symObjAddr: 0xA00, symBinAddr: 0x10000400C, symSize: 0x34 }
  - { offsetInCU: 0xD69E, offset: 0xD69E, size: 0x8, addend: 0x0, symName: __ZNSt3__16vectorI6neuronNS_9allocatorIS1_EEE7__allocB8ue170006Ev, symObjAddr: 0xA34, symBinAddr: 0x100004040, symSize: 0x28 }
  - { offsetInCU: 0xD6C2, offset: 0xD6C2, size: 0x8, addend: 0x0, symName: __ZNKSt3__16vectorI6neuronNS_9allocatorIS1_EEE8capacityB8ue170006Ev, symObjAddr: 0xA5C, symBinAddr: 0x100004068, symSize: 0x40 }
  - { offsetInCU: 0xD6E6, offset: 0xD6E6, size: 0x8, addend: 0x0, symName: __ZNSt3__16vectorI6neuronNS_9allocatorIS1_EEE22__base_destruct_at_endB8ue170006EPS1_, symObjAddr: 0xA9C, symBinAddr: 0x1000040A8, symSize: 0x8C }
  - { offsetInCU: 0xD728, offset: 0xD728, size: 0x8, addend: 0x0, symName: __ZNSt3__116allocator_traitsINS_9allocatorI6neuronEEE7destroyB8ue170006IS2_vEEvRS3_PT_, symObjAddr: 0xB28, symBinAddr: 0x100004134, symSize: 0x2C }
  - { offsetInCU: 0xD764, offset: 0xD764, size: 0x8, addend: 0x0, symName: __ZNSt3__19allocatorI6neuronE7destroyB8ue170006EPS1_, symObjAddr: 0xB68, symBinAddr: 0x100004174, symSize: 0x28 }
  - { offsetInCU: 0xD796, offset: 0xD796, size: 0x8, addend: 0x0, symName: __ZN6neuronD1Ev, symObjAddr: 0xB90, symBinAddr: 0x10000419C, symSize: 0x2C }
  - { offsetInCU: 0xD7C0, offset: 0xD7C0, size: 0x8, addend: 0x0, symName: __ZN6neuronD2Ev, symObjAddr: 0xBBC, symBinAddr: 0x1000041C8, symSize: 0x78 }
  - { offsetInCU: 0xD7EA, offset: 0xD7EA, size: 0x8, addend: 0x0, symName: __ZN5valueD1Ev, symObjAddr: 0xC34, symBinAddr: 0x100004240, symSize: 0x2C }
  - { offsetInCU: 0xD814, offset: 0xD814, size: 0x8, addend: 0x0, symName: __ZN5valueD2Ev, symObjAddr: 0xC60, symBinAddr: 0x10000426C, symSize: 0x30 }
  - { offsetInCU: 0xD83E, offset: 0xD83E, size: 0x8, addend: 0x0, symName: __ZNSt3__16vectorINS_17reference_wrapperI5valueEENS_9allocatorIS3_EEED1B8ue170006Ev, symObjAddr: 0xC90, symBinAddr: 0x10000429C, symSize: 0x2C }
  - { offsetInCU: 0xD866, offset: 0xD866, size: 0x8, addend: 0x0, symName: __ZNSt3__16vectorINS_17reference_wrapperI5valueEENS_9allocatorIS3_EEED2B8ue170006Ev, symObjAddr: 0xCBC, symBinAddr: 0x1000042C8, symSize: 0x44 }
  - { offsetInCU: 0xD88E, offset: 0xD88E, size: 0x8, addend: 0x0, symName: __ZNSt3__16vectorINS_17reference_wrapperI5valueEENS_9allocatorIS3_EEE16__destroy_vectorC1B8ue170006ERS6_, symObjAddr: 0xD00, symBinAddr: 0x10000430C, symSize: 0x34 }
  - { offsetInCU: 0xD8C5, offset: 0xD8C5, size: 0x8, addend: 0x0, symName: __ZNSt3__16vectorINS_17reference_wrapperI5valueEENS_9allocatorIS3_EEE16__destroy_vectorclB8ue170006Ev, symObjAddr: 0xD34, symBinAddr: 0x100004340, symSize: 0x90 }
  - { offsetInCU: 0xD8E9, offset: 0xD8E9, size: 0x8, addend: 0x0, symName: __ZNSt3__16vectorINS_17reference_wrapperI5valueEENS_9allocatorIS3_EEE16__destroy_vectorC2B8ue170006ERS6_, symObjAddr: 0xDC4, symBinAddr: 0x1000043D0, symSize: 0x20 }
  - { offsetInCU: 0xD920, offset: 0xD920, size: 0x8, addend: 0x0, symName: __ZNSt3__16vectorINS_17reference_wrapperI5valueEENS_9allocatorIS3_EEE7__clearB8ue170006Ev, symObjAddr: 0xDE4, symBinAddr: 0x1000043F0, symSize: 0x28 }
  - { offsetInCU: 0xD944, offset: 0xD944, size: 0x8, addend: 0x0, symName: __ZNKSt3__16vectorINS_17reference_wrapperI5valueEENS_9allocatorIS3_EEE17__annotate_deleteB8ue170006Ev, symObjAddr: 0xE0C, symBinAddr: 0x100004418, symSize: 0xB8 }
  - { offsetInCU: 0xD968, offset: 0xD968, size: 0x8, addend: 0x0, symName: __ZNSt3__116allocator_traitsINS_9allocatorINS_17reference_wrapperI5valueEEEEE10deallocateB8ue170006ERS5_PS4_m, symObjAddr: 0xEC4, symBinAddr: 0x1000044D0, symSize: 0x34 }
  - { offsetInCU: 0xD9A9, offset: 0xD9A9, size: 0x8, addend: 0x0, symName: __ZNSt3__16vectorINS_17reference_wrapperI5valueEENS_9allocatorIS3_EEE7__allocB8ue170006Ev, symObjAddr: 0xEF8, symBinAddr: 0x100004504, symSize: 0x28 }
  - { offsetInCU: 0xD9CD, offset: 0xD9CD, size: 0x8, addend: 0x0, symName: __ZNKSt3__16vectorINS_17reference_wrapperI5valueEENS_9allocatorIS3_EEE8capacityB8ue170006Ev, symObjAddr: 0xF20, symBinAddr: 0x10000452C, symSize: 0x40 }
  - { offsetInCU: 0xD9F1, offset: 0xD9F1, size: 0x8, addend: 0x0, symName: __ZNSt3__16vectorINS_17reference_wrapperI5valueEENS_9allocatorIS3_EEE22__base_destruct_at_endB8ue170006EPS3_, symObjAddr: 0xF60, symBinAddr: 0x10000456C, symSize: 0x8C }
  - { offsetInCU: 0xDA33, offset: 0xDA33, size: 0x8, addend: 0x0, symName: __ZNSt3__116allocator_traitsINS_9allocatorINS_17reference_wrapperI5valueEEEEE7destroyB8ue170006IS4_vEEvRS5_PT_, symObjAddr: 0xFEC, symBinAddr: 0x1000045F8, symSize: 0x2C }
  - { offsetInCU: 0xDA6F, offset: 0xDA6F, size: 0x8, addend: 0x0, symName: __ZNSt3__19allocatorINS_17reference_wrapperI5valueEEE7destroyB8ue170006EPS3_, symObjAddr: 0x102C, symBinAddr: 0x100004638, symSize: 0x14 }
  - { offsetInCU: 0xDAA1, offset: 0xDAA1, size: 0x8, addend: 0x0, symName: __ZNKSt3__16vectorINS_17reference_wrapperI5valueEENS_9allocatorIS3_EEE31__annotate_contiguous_containerB8ue170006EPKvS8_S8_S8_, symObjAddr: 0x1040, symBinAddr: 0x10000464C, symSize: 0x20 }
  - { offsetInCU: 0xDAF1, offset: 0xDAF1, size: 0x8, addend: 0x0, symName: __ZNKSt3__16vectorINS_17reference_wrapperI5valueEENS_9allocatorIS3_EEE4dataB8ue170006Ev, symObjAddr: 0x1060, symBinAddr: 0x10000466C, symSize: 0x28 }
  - { offsetInCU: 0xDB15, offset: 0xDB15, size: 0x8, addend: 0x0, symName: __ZNKSt3__16vectorINS_17reference_wrapperI5valueEENS_9allocatorIS3_EEE4sizeB8ue170006Ev, symObjAddr: 0x1088, symBinAddr: 0x100004694, symSize: 0x28 }
  - { offsetInCU: 0xDB39, offset: 0xDB39, size: 0x8, addend: 0x0, symName: __ZNSt3__19allocatorINS_17reference_wrapperI5valueEEE10deallocateB8ue170006EPS3_m, symObjAddr: 0x10B0, symBinAddr: 0x1000046BC, symSize: 0x40 }
  - { offsetInCU: 0xDB79, offset: 0xDB79, size: 0x8, addend: 0x0, symName: __ZNSt3__117__compressed_pairIPNS_17reference_wrapperI5valueEENS_9allocatorIS3_EEE6secondB8ue170006Ev, symObjAddr: 0x10F0, symBinAddr: 0x1000046FC, symSize: 0x24 }
  - { offsetInCU: 0xDB9D, offset: 0xDB9D, size: 0x8, addend: 0x0, symName: __ZNSt3__122__compressed_pair_elemINS_9allocatorINS_17reference_wrapperI5valueEEEELi1ELb1EE5__getB8ue170006Ev, symObjAddr: 0x1114, symBinAddr: 0x100004720, symSize: 0x14 }
  - { offsetInCU: 0xDBC1, offset: 0xDBC1, size: 0x8, addend: 0x0, symName: __ZNKSt3__16vectorINS_17reference_wrapperI5valueEENS_9allocatorIS3_EEE9__end_capB8ue170006Ev, symObjAddr: 0x1128, symBinAddr: 0x100004734, symSize: 0x28 }
  - { offsetInCU: 0xDBE5, offset: 0xDBE5, size: 0x8, addend: 0x0, symName: __ZNKSt3__117__compressed_pairIPNS_17reference_wrapperI5valueEENS_9allocatorIS3_EEE5firstB8ue170006Ev, symObjAddr: 0x1150, symBinAddr: 0x10000475C, symSize: 0x24 }
  - { offsetInCU: 0xDC09, offset: 0xDC09, size: 0x8, addend: 0x0, symName: __ZNKSt3__122__compressed_pair_elemIPNS_17reference_wrapperI5valueEELi0ELb0EE5__getB8ue170006Ev, symObjAddr: 0x1174, symBinAddr: 0x100004780, symSize: 0x14 }
  - { offsetInCU: 0xDC2D, offset: 0xDC2D, size: 0x8, addend: 0x0, symName: __ZNKSt3__16vectorI6neuronNS_9allocatorIS1_EEE31__annotate_contiguous_containerB8ue170006EPKvS6_S6_S6_, symObjAddr: 0x1188, symBinAddr: 0x100004794, symSize: 0x20 }
  - { offsetInCU: 0xDC7D, offset: 0xDC7D, size: 0x8, addend: 0x0, symName: __ZNKSt3__16vectorI6neuronNS_9allocatorIS1_EEE4dataB8ue170006Ev, symObjAddr: 0x11A8, symBinAddr: 0x1000047B4, symSize: 0x28 }
  - { offsetInCU: 0xDCA1, offset: 0xDCA1, size: 0x8, addend: 0x0, symName: __ZNKSt3__16vectorI6neuronNS_9allocatorIS1_EEE4sizeB8ue170006Ev, symObjAddr: 0x11D0, symBinAddr: 0x1000047DC, symSize: 0x28 }
  - { offsetInCU: 0xDCC5, offset: 0xDCC5, size: 0x8, addend: 0x0, symName: __ZNSt3__19allocatorI6neuronE10deallocateB8ue170006EPS1_m, symObjAddr: 0x11F8, symBinAddr: 0x100004804, symSize: 0x44 }
  - { offsetInCU: 0xDD05, offset: 0xDD05, size: 0x8, addend: 0x0, symName: __ZNSt3__117__compressed_pairIP6neuronNS_9allocatorIS1_EEE6secondB8ue170006Ev, symObjAddr: 0x123C, symBinAddr: 0x100004848, symSize: 0x24 }
  - { offsetInCU: 0xDD29, offset: 0xDD29, size: 0x8, addend: 0x0, symName: __ZNSt3__122__compressed_pair_elemINS_9allocatorI6neuronEELi1ELb1EE5__getB8ue170006Ev, symObjAddr: 0x1260, symBinAddr: 0x10000486C, symSize: 0x14 }
  - { offsetInCU: 0xDD4D, offset: 0xDD4D, size: 0x8, addend: 0x0, symName: __ZNKSt3__16vectorI6neuronNS_9allocatorIS1_EEE9__end_capB8ue170006Ev, symObjAddr: 0x1274, symBinAddr: 0x100004880, symSize: 0x28 }
  - { offsetInCU: 0xDD71, offset: 0xDD71, size: 0x8, addend: 0x0, symName: __ZNKSt3__117__compressed_pairIP6neuronNS_9allocatorIS1_EEE5firstB8ue170006Ev, symObjAddr: 0x129C, symBinAddr: 0x1000048A8, symSize: 0x24 }
  - { offsetInCU: 0xDD95, offset: 0xDD95, size: 0x8, addend: 0x0, symName: __ZNKSt3__122__compressed_pair_elemIP6neuronLi0ELb0EE5__getB8ue170006Ev, symObjAddr: 0x12C0, symBinAddr: 0x1000048CC, symSize: 0x14 }
  - { offsetInCU: 0xDDB9, offset: 0xDDB9, size: 0x8, addend: 0x0, symName: __ZN11value_arrayD2Ev, symObjAddr: 0x12D4, symBinAddr: 0x1000048E0, symSize: 0x2C }
  - { offsetInCU: 0xDDE3, offset: 0xDDE3, size: 0x8, addend: 0x0, symName: __ZNSt3__16vectorI5valueNS_9allocatorIS1_EEED1B8ue170006Ev, symObjAddr: 0x1300, symBinAddr: 0x10000490C, symSize: 0x2C }
  - { offsetInCU: 0xDE0B, offset: 0xDE0B, size: 0x8, addend: 0x0, symName: __ZNSt3__16vectorI5valueNS_9allocatorIS1_EEED2B8ue170006Ev, symObjAddr: 0x132C, symBinAddr: 0x100004938, symSize: 0x44 }
  - { offsetInCU: 0xDE33, offset: 0xDE33, size: 0x8, addend: 0x0, symName: __ZNSt3__16vectorI5valueNS_9allocatorIS1_EEE16__destroy_vectorC1B8ue170006ERS4_, symObjAddr: 0x1370, symBinAddr: 0x10000497C, symSize: 0x34 }
  - { offsetInCU: 0xDE6A, offset: 0xDE6A, size: 0x8, addend: 0x0, symName: __ZNSt3__16vectorI5valueNS_9allocatorIS1_EEE16__destroy_vectorclB8ue170006Ev, symObjAddr: 0x13A4, symBinAddr: 0x1000049B0, symSize: 0x90 }
  - { offsetInCU: 0xDE8E, offset: 0xDE8E, size: 0x8, addend: 0x0, symName: __ZNSt3__16vectorI5valueNS_9allocatorIS1_EEE16__destroy_vectorC2B8ue170006ERS4_, symObjAddr: 0x1434, symBinAddr: 0x100004A40, symSize: 0x20 }
  - { offsetInCU: 0xDEC5, offset: 0xDEC5, size: 0x8, addend: 0x0, symName: __ZNSt3__16vectorI5valueNS_9allocatorIS1_EEE7__clearB8ue170006Ev, symObjAddr: 0x1454, symBinAddr: 0x100004A60, symSize: 0x28 }
  - { offsetInCU: 0xDEE9, offset: 0xDEE9, size: 0x8, addend: 0x0, symName: __ZNKSt3__16vectorI5valueNS_9allocatorIS1_EEE17__annotate_deleteB8ue170006Ev, symObjAddr: 0x147C, symBinAddr: 0x100004A88, symSize: 0xB8 }
  - { offsetInCU: 0xDF0D, offset: 0xDF0D, size: 0x8, addend: 0x0, symName: __ZNSt3__116allocator_traitsINS_9allocatorI5valueEEE10deallocateB8ue170006ERS3_PS2_m, symObjAddr: 0x1534, symBinAddr: 0x100004B40, symSize: 0x34 }
  - { offsetInCU: 0xDF4E, offset: 0xDF4E, size: 0x8, addend: 0x0, symName: __ZNSt3__16vectorI5valueNS_9allocatorIS1_EEE7__allocB8ue170006Ev, symObjAddr: 0x1568, symBinAddr: 0x100004B74, symSize: 0x28 }
  - { offsetInCU: 0xDF72, offset: 0xDF72, size: 0x8, addend: 0x0, symName: __ZNKSt3__16vectorI5valueNS_9allocatorIS1_EEE8capacityB8ue170006Ev, symObjAddr: 0x1590, symBinAddr: 0x100004B9C, symSize: 0x40 }
  - { offsetInCU: 0xDF96, offset: 0xDF96, size: 0x8, addend: 0x0, symName: __ZNSt3__16vectorI5valueNS_9allocatorIS1_EEE22__base_destruct_at_endB8ue170006EPS1_, symObjAddr: 0x15D0, symBinAddr: 0x100004BDC, symSize: 0x8C }
  - { offsetInCU: 0xDFD8, offset: 0xDFD8, size: 0x8, addend: 0x0, symName: __ZNSt3__116allocator_traitsINS_9allocatorI5valueEEE7destroyB8ue170006IS2_vEEvRS3_PT_, symObjAddr: 0x165C, symBinAddr: 0x100004C68, symSize: 0x2C }
  - { offsetInCU: 0xE014, offset: 0xE014, size: 0x8, addend: 0x0, symName: __ZNSt3__19allocatorI5valueE7destroyB8ue170006EPS1_, symObjAddr: 0x169C, symBinAddr: 0x100004CA8, symSize: 0x28 }
  - { offsetInCU: 0xE046, offset: 0xE046, size: 0x8, addend: 0x0, symName: __ZNKSt3__16vectorI5valueNS_9allocatorIS1_EEE31__annotate_contiguous_containerB8ue170006EPKvS6_S6_S6_, symObjAddr: 0x16C4, symBinAddr: 0x100004CD0, symSize: 0x20 }
  - { offsetInCU: 0xE096, offset: 0xE096, size: 0x8, addend: 0x0, symName: __ZNKSt3__16vectorI5valueNS_9allocatorIS1_EEE4dataB8ue170006Ev, symObjAddr: 0x16E4, symBinAddr: 0x100004CF0, symSize: 0x28 }
  - { offsetInCU: 0xE0BA, offset: 0xE0BA, size: 0x8, addend: 0x0, symName: __ZNKSt3__16vectorI5valueNS_9allocatorIS1_EEE4sizeB8ue170006Ev, symObjAddr: 0x170C, symBinAddr: 0x100004D18, symSize: 0x28 }
  - { offsetInCU: 0xE0DE, offset: 0xE0DE, size: 0x8, addend: 0x0, symName: __ZNSt3__19allocatorI5valueE10deallocateB8ue170006EPS1_m, symObjAddr: 0x1734, symBinAddr: 0x100004D40, symSize: 0x40 }
  - { offsetInCU: 0xE11E, offset: 0xE11E, size: 0x8, addend: 0x0, symName: __ZNSt3__117__compressed_pairIP5valueNS_9allocatorIS1_EEE6secondB8ue170006Ev, symObjAddr: 0x1774, symBinAddr: 0x100004D80, symSize: 0x24 }
  - { offsetInCU: 0xE142, offset: 0xE142, size: 0x8, addend: 0x0, symName: __ZNSt3__122__compressed_pair_elemINS_9allocatorI5valueEELi1ELb1EE5__getB8ue170006Ev, symObjAddr: 0x1798, symBinAddr: 0x100004DA4, symSize: 0x14 }
  - { offsetInCU: 0xE166, offset: 0xE166, size: 0x8, addend: 0x0, symName: __ZNKSt3__16vectorI5valueNS_9allocatorIS1_EEE9__end_capB8ue170006Ev, symObjAddr: 0x17AC, symBinAddr: 0x100004DB8, symSize: 0x28 }
  - { offsetInCU: 0xE18A, offset: 0xE18A, size: 0x8, addend: 0x0, symName: __ZNKSt3__117__compressed_pairIP5valueNS_9allocatorIS1_EEE5firstB8ue170006Ev, symObjAddr: 0x17D4, symBinAddr: 0x100004DE0, symSize: 0x24 }
  - { offsetInCU: 0xE1AE, offset: 0xE1AE, size: 0x8, addend: 0x0, symName: __ZNKSt3__122__compressed_pair_elemIP5valueLi0ELb0EE5__getB8ue170006Ev, symObjAddr: 0x17F8, symBinAddr: 0x100004E04, symSize: 0x14 }
  - { offsetInCU: 0x39, offset: 0xE288, size: 0x8, addend: 0x0, symName: __ZN5layer7threadsE, symObjAddr: 0xE2528, symBinAddr: 0x10002C000, symSize: 0x0 }
  - { offsetInCU: 0x7697, offset: 0x158E6, size: 0x8, addend: 0x0, symName: '__ZNSt3__110__function10__not_nullB8ue170006IZN10ThreadPool7enqueueIRZN5layer13forward_layerER11value_arrayE3$_0JNS_17reference_wrapperINS_6vectorI6neuronNS_9allocatorISB_EEEEEEEEENS_6futureIDTclfp_spfp0_EEEEOT_DpOT0_EUlvE_EEbRKSJ_', symObjAddr: 0x126D4, symBinAddr: 0x100015E04, symSize: 0x18 }
  - { offsetInCU: 0x948C, offset: 0x176DB, size: 0x8, addend: 0x0, symName: __ZNSt3__16chronomiB8ue170006IxNS_5ratioILl1ELl1000000000EEExS3_EENS_11common_typeIJNS0_8durationIT_T0_EENS5_IT1_T2_EEEE4typeERKS8_RKSB_, symObjAddr: 0x7920, symBinAddr: 0x10000BF08, symSize: 0x70 }
  - { offsetInCU: 0x9502, offset: 0x17751, size: 0x8, addend: 0x0, symName: __ZNSt3__16chrono13duration_castB8ue170006INS0_8durationIxNS_5ratioILl1ELl1000EEEEExNS3_ILl1ELl1000000000EEEEENS_9enable_ifIXsr13__is_durationIT_EE5valueES8_E4typeERKNS2_IT0_T1_EE, symObjAddr: 0x12E0, symBinAddr: 0x100005FF4, symSize: 0x30 }
  - { offsetInCU: 0x954A, offset: 0x17799, size: 0x8, addend: 0x0, symName: __ZNSt3__16chronomiB8ue170006INS0_12steady_clockENS0_8durationIxNS_5ratioILl1ELl1000000000EEEEES6_EENS_11common_typeIJT0_T1_EE4typeERKNS0_10time_pointIT_S8_EERKNSC_ISD_S9_EE, symObjAddr: 0x1310, symBinAddr: 0x100006024, symSize: 0x58 }
  - { offsetInCU: 0x96A4, offset: 0x178F3, size: 0x8, addend: 0x0, symName: __ZNSt3__119piecewise_constructE, symObjAddr: 0x189DB, symBinAddr: 0x1000267A7, symSize: 0x0 }
  - { offsetInCU: 0x16682, offset: 0x248D1, size: 0x8, addend: 0x0, symName: __ZNSt3__15flushB8ue170006IcNS_11char_traitsIcEEEERNS_13basic_ostreamIT_T0_EES7_, symObjAddr: 0x13AC, symBinAddr: 0x1000060C0, symSize: 0x28 }
  - { offsetInCU: 0x166C3, offset: 0x24912, size: 0x8, addend: 0x0, symName: __ZNSt3__1neB8ue170006IPNS_6vectorI6neuronNS_9allocatorIS2_EEEEEEbRKNS_11__wrap_iterIT_EESB_, symObjAddr: 0x148C, symBinAddr: 0x1000061A0, symSize: 0x34 }
  - { offsetInCU: 0x16707, offset: 0x24956, size: 0x8, addend: 0x0, symName: __ZNSt3__1neB8ue170006IP6neuronEEbRKNS_11__wrap_iterIT_EES7_, symObjAddr: 0x1538, symBinAddr: 0x10000624C, symSize: 0x34 }
  - { offsetInCU: 0x1674B, offset: 0x2499A, size: 0x8, addend: 0x0, symName: __ZNSt3__13refB8ue170006INS_6vectorI6neuronNS_9allocatorIS2_EEEEEENS_17reference_wrapperIT_EERS7_, symObjAddr: 0x1724, symBinAddr: 0x100006438, symSize: 0x2C }
  - { offsetInCU: 0x16781, offset: 0x249D0, size: 0x8, addend: 0x0, symName: __ZNSt3__1neB8ue170006IPNS_6futureINS_6vectorI5valueNS_9allocatorIS3_EEEEEEEEbRKNS_11__wrap_iterIT_EESD_, symObjAddr: 0x17FC, symBinAddr: 0x100006510, symSize: 0x34 }
  - { offsetInCU: 0x167C6, offset: 0x24A15, size: 0x8, addend: 0x0, symName: '__ZNSt3__18for_eachB8ue170006INS_11__wrap_iterIPNS_6vectorI5valueNS_9allocatorIS3_EEEEEEZN5layer13forward_layerER11value_arrayE3$_1EET0_T_SE_SD_', symObjAddr: 0x1A94, symBinAddr: 0x10000677C, symSize: 0x6C }
  - { offsetInCU: 0x16821, offset: 0x24A70, size: 0x8, addend: 0x0, symName: '__ZNSt3__18for_eachB8ue170006INS_11__wrap_iterIP6neuronEEZN5layer20normal_forward_layerER11value_arrayE3$_2EET0_T_SA_S9_', symObjAddr: 0x1C84, symBinAddr: 0x10000696C, symSize: 0x74 }
  - { offsetInCU: 0x1767E, offset: 0x258CD, size: 0x8, addend: 0x0, symName: __ZNSt3__112__to_addressB8ue170006INS_8functionIFvvEEEEEPT_S5_, symObjAddr: 0x2A48, symBinAddr: 0x100007724, symSize: 0x14 }
  - { offsetInCU: 0x176B2, offset: 0x25901, size: 0x8, addend: 0x0, symName: __ZNSt3__1neB8ue170006IPNS_6threadEEEbRKNS_11__wrap_iterIT_EES7_, symObjAddr: 0x2D24, symBinAddr: 0x100007A00, symSize: 0x34 }
  - { offsetInCU: 0x176F6, offset: 0x25945, size: 0x8, addend: 0x0, symName: __ZNSt3__1eqB8ue170006IPNS_6threadEEEbRKNS_11__wrap_iterIT_EES7_, symObjAddr: 0x2EFC, symBinAddr: 0x100007BD8, symSize: 0x48 }
  - { offsetInCU: 0x1773A, offset: 0x25989, size: 0x8, addend: 0x0, symName: __ZNSt3__1neB8ue170006ERKNS_16__deque_iteratorINS_8functionIFvvEEEPS3_RS3_PS4_lLl128EEES9_, symObjAddr: 0x34EC, symBinAddr: 0x1000081C8, symSize: 0x34 }
  - { offsetInCU: 0x17779, offset: 0x259C8, size: 0x8, addend: 0x0, symName: __ZNSt3__1eqB8ue170006ERKNS_16__deque_iteratorINS_8functionIFvvEEEPS3_RS3_PS4_lLl128EEES9_, symObjAddr: 0x36D0, symBinAddr: 0x1000083AC, symSize: 0x30 }
  - { offsetInCU: 0x177B6, offset: 0x25A05, size: 0x8, addend: 0x0, symName: __ZNSt3__112__to_addressB8ue170006IPNS_8functionIFvvEEEEEPT_S6_, symObjAddr: 0x3D78, symBinAddr: 0x10000892C, symSize: 0x14 }
  - { offsetInCU: 0x177EB, offset: 0x25A3A, size: 0x8, addend: 0x0, symName: __ZNSt3__112__to_addressB8ue170006INS_6threadEEEPT_S3_, symObjAddr: 0x41D4, symBinAddr: 0x100008D88, symSize: 0x14 }
  - { offsetInCU: 0x1781F, offset: 0x25A6E, size: 0x8, addend: 0x0, symName: __ZNSt3__13maxB8ue170006ImEERKT_S3_S3_, symObjAddr: 0x5170, symBinAddr: 0x100009758, symSize: 0x2C }
  - { offsetInCU: 0x17863, offset: 0x25AB2, size: 0x8, addend: 0x0, symName: __ZNSt3__13minB8ue170006ImEERKT_S3_S3_, symObjAddr: 0x519C, symBinAddr: 0x100009784, symSize: 0x2C }
  - { offsetInCU: 0x17AA8, offset: 0x25CF7, size: 0x8, addend: 0x0, symName: __ZNSt3__13minB8ue170006ImNS_6__lessIvvEEEERKT_S5_S5_T0_, symObjAddr: 0x5228, symBinAddr: 0x100009810, symSize: 0x54 }
  - { offsetInCU: 0x17B4B, offset: 0x25D9A, size: 0x8, addend: 0x0, symName: __ZNSt3__120__throw_length_errorB8ue170006EPKc, symObjAddr: 0x5304, symBinAddr: 0x1000098EC, symSize: 0x64 }
  - { offsetInCU: 0x17B75, offset: 0x25DC4, size: 0x8, addend: 0x0, symName: __ZNSt3__13maxB8ue170006ImNS_6__lessIvvEEEERKT_S5_S5_T0_, symObjAddr: 0x53E8, symBinAddr: 0x1000099D0, symSize: 0x54 }
  - { offsetInCU: 0x17BD0, offset: 0x25E1F, size: 0x8, addend: 0x0, symName: __ZNSt3__119__allocate_at_leastB8ue170006INS_9allocatorINS_6threadEEEEENS_19__allocation_resultINS_16allocator_traitsIT_E7pointerEEERS6_m, symObjAddr: 0x554C, symBinAddr: 0x100009B34, symSize: 0x40 }
  - { offsetInCU: 0x17C14, offset: 0x25E63, size: 0x8, addend: 0x0, symName: __ZNSt3__117__libcpp_allocateB8ue170006Emm, symObjAddr: 0x56D0, symBinAddr: 0x100009CB8, symSize: 0x60 }
  - { offsetInCU: 0x17C6F, offset: 0x25EBE, size: 0x8, addend: 0x0, symName: __ZNSt3__121__libcpp_operator_newB8ue170006IJmSt11align_val_tEEEPvDpT_, symObjAddr: 0x5730, symBinAddr: 0x100009D18, symSize: 0x2C }
  - { offsetInCU: 0x17CBD, offset: 0x25F0C, size: 0x8, addend: 0x0, symName: __ZNSt3__121__libcpp_operator_newB8ue170006IJmEEEPvDpT_, symObjAddr: 0x575C, symBinAddr: 0x100009D44, symSize: 0x24 }
  - { offsetInCU: 0x17CF7, offset: 0x25F46, size: 0x8, addend: 0x0, symName: __ZNSt3__142__uninitialized_allocator_move_if_noexceptB8ue170006INS_9allocatorINS_6threadEEENS_16reverse_iteratorIPS2_EES6_S6_EET2_RT_T0_T1_S7_, symObjAddr: 0x57E4, symBinAddr: 0x100009DCC, symSize: 0x12C }
  - { offsetInCU: 0x17D99, offset: 0x25FE8, size: 0x8, addend: 0x0, symName: __ZNSt3__14swapB8ue170006IPNS_6threadEEENS_9enable_ifIXaasr21is_move_constructibleIT_EE5valuesr18is_move_assignableIS4_EE5valueEvE4typeERS4_S7_, symObjAddr: 0x595C, symBinAddr: 0x100009F44, symSize: 0x3C }
  - { offsetInCU: 0x17DE9, offset: 0x26038, size: 0x8, addend: 0x0, symName: __ZNSt3__122__make_exception_guardB8ue170006INS_29_AllocatorDestroyRangeReverseINS_9allocatorINS_6threadEEENS_16reverse_iteratorIPS3_EEEEEENS_28__exception_guard_exceptionsIT_EESA_, symObjAddr: 0x5A44, symBinAddr: 0x10000A02C, symSize: 0x4C }
  - { offsetInCU: 0x17E20, offset: 0x2606F, size: 0x8, addend: 0x0, symName: __ZNSt3__1neB8ue170006IPNS_6threadES2_EEbRKNS_16reverse_iteratorIT_EERKNS3_IT0_EE, symObjAddr: 0x5AD4, symBinAddr: 0x10000A0BC, symSize: 0x48 }
  - { offsetInCU: 0x17E6D, offset: 0x260BC, size: 0x8, addend: 0x0, symName: __ZNSt3__112__to_addressB8ue170006INS_16reverse_iteratorIPNS_6threadEEEvEEu7__decayIDTclsr19__to_address_helperIT_EE6__callclsr3stdE7declvalIRKS5_EEEEES7_, symObjAddr: 0x5B1C, symBinAddr: 0x10000A104, symSize: 0x24 }
  - { offsetInCU: 0x17ECF, offset: 0x2611E, size: 0x8, addend: 0x0, symName: __ZNSt3__119__allocator_destroyB8ue170006INS_9allocatorINS_6threadEEENS_16reverse_iteratorINS4_IPS2_EEEES7_EEvRT_T0_T1_, symObjAddr: 0x5DCC, symBinAddr: 0x10000A3B4, symSize: 0x70 }
  - { offsetInCU: 0x17F33, offset: 0x26182, size: 0x8, addend: 0x0, symName: __ZNSt3__1neB8ue170006INS_16reverse_iteratorIPNS_6threadEEES4_EEbRKNS1_IT_EERKNS1_IT0_EE, symObjAddr: 0x5E78, symBinAddr: 0x10000A460, symSize: 0x60 }
  - { offsetInCU: 0x17F80, offset: 0x261CF, size: 0x8, addend: 0x0, symName: __ZNSt3__112__to_addressB8ue170006INS_16reverse_iteratorINS1_IPNS_6threadEEEEEvEEu7__decayIDTclsr19__to_address_helperIT_EE6__callclsr3stdE7declvalIRKS6_EEEEES8_, symObjAddr: 0x5ED8, symBinAddr: 0x10000A4C0, symSize: 0x24 }
  - { offsetInCU: 0x17FE2, offset: 0x26231, size: 0x8, addend: 0x0, symName: __ZNSt3__125__throw_bad_function_callB8ue170006Ev, symObjAddr: 0x68C8, symBinAddr: 0x10000AEB0, symSize: 0x38 }
  - { offsetInCU: 0x18431, offset: 0x26680, size: 0x8, addend: 0x0, symName: __ZNSt3__122__libcpp_thread_createB8ue170006EPP17_opaque_pthread_tPFPvS3_ES3_, symObjAddr: 0x6C18, symBinAddr: 0x10000B200, symSize: 0x38 }
  - { offsetInCU: 0x1847E, offset: 0x266CD, size: 0x8, addend: 0x0, symName: __ZNSt3__114__thread_proxyB8ue170006INS_5tupleIJNS_10unique_ptrINS_15__thread_structENS_14default_deleteIS3_EEEEM10ThreadPoolFvvEPS7_EEEEEPvSC_, symObjAddr: 0x6C50, symBinAddr: 0x10000B238, symSize: 0x90 }
  - { offsetInCU: 0x185E3, offset: 0x26832, size: 0x8, addend: 0x0, symName: __ZNSt3__13getB8ue170006ILm0EJNS_10unique_ptrINS_15__thread_structENS_14default_deleteIS2_EEEEM10ThreadPoolFvvEPS6_EEERNS_13tuple_elementIXT_ENS_5tupleIJDpT0_EEEE4typeERSE_, symObjAddr: 0x7354, symBinAddr: 0x10000B93C, symSize: 0x24 }
  - { offsetInCU: 0x18632, offset: 0x26881, size: 0x8, addend: 0x0, symName: __ZNSt3__116__thread_executeB8ue170006INS_10unique_ptrINS_15__thread_structENS_14default_deleteIS2_EEEEM10ThreadPoolFvvEJPS6_EJLm2EEEEvRNS_5tupleIJT_T0_DpT1_EEENS_15__tuple_indicesIJXspT2_EEEE, symObjAddr: 0x7378, symBinAddr: 0x10000B960, symSize: 0x3C }
  - { offsetInCU: 0x1868F, offset: 0x268DE, size: 0x8, addend: 0x0, symName: __ZNSt3__116__libcpp_tls_setB8ue170006EmPv, symObjAddr: 0x73B4, symBinAddr: 0x10000B99C, symSize: 0x2C }
  - { offsetInCU: 0x186CE, offset: 0x2691D, size: 0x8, addend: 0x0, symName: __ZNSt3__18__invokeB8ue170006IM10ThreadPoolFvvEPS1_JEvEEDTcldsdeclsr3stdE7declvalIT0_EEclsr3stdE7declvalIT_EEspclsr3stdE7declvalIT1_EEEEOS6_OS5_DpOS7_, symObjAddr: 0x73F4, symBinAddr: 0x10000B9DC, symSize: 0x80 }
  - { offsetInCU: 0x1871E, offset: 0x2696D, size: 0x8, addend: 0x0, symName: __ZNSt3__13getB8ue170006ILm1EJNS_10unique_ptrINS_15__thread_structENS_14default_deleteIS2_EEEEM10ThreadPoolFvvEPS6_EEERNS_13tuple_elementIXT_ENS_5tupleIJDpT0_EEEE4typeERSE_, symObjAddr: 0x7474, symBinAddr: 0x10000BA5C, symSize: 0x28 }
  - { offsetInCU: 0x1876C, offset: 0x269BB, size: 0x8, addend: 0x0, symName: __ZNSt3__13getB8ue170006ILm2EJNS_10unique_ptrINS_15__thread_structENS_14default_deleteIS2_EEEEM10ThreadPoolFvvEPS6_EEERNS_13tuple_elementIXT_ENS_5tupleIJDpT0_EEEE4typeERSE_, symObjAddr: 0x749C, symBinAddr: 0x10000BA84, symSize: 0x28 }
  - { offsetInCU: 0x187D9, offset: 0x26A28, size: 0x8, addend: 0x0, symName: __ZNSt3__1eqB8ue170006IPNS_6vectorI6neuronNS_9allocatorIS2_EEEEEEbRKNS_11__wrap_iterIT_EESB_, symObjAddr: 0x7A14, symBinAddr: 0x10000BFFC, symSize: 0x48 }
  - { offsetInCU: 0x1881D, offset: 0x26A6C, size: 0x8, addend: 0x0, symName: __ZNSt3__1eqB8ue170006IP6neuronEEbRKNS_11__wrap_iterIT_EES7_, symObjAddr: 0x7A74, symBinAddr: 0x10000C05C, symSize: 0x48 }
  - { offsetInCU: 0x18861, offset: 0x26AB0, size: 0x8, addend: 0x0, symName: __ZNSt3__1eqB8ue170006IPNS_6futureINS_6vectorI5valueNS_9allocatorIS3_EEEEEEEEbRKNS_11__wrap_iterIT_EESD_, symObjAddr: 0x7AD4, symBinAddr: 0x10000C0BC, symSize: 0x48 }
  - { offsetInCU: 0x188A5, offset: 0x26AF4, size: 0x8, addend: 0x0, symName: __ZNSt3__119__allocate_at_leastB8ue170006INS_9allocatorI6neuronEEEENS_19__allocation_resultINS_16allocator_traitsIT_E7pointerEEERS6_m, symObjAddr: 0x95E4, symBinAddr: 0x10000CD14, symSize: 0x40 }
  - { offsetInCU: 0x188E9, offset: 0x26B38, size: 0x8, addend: 0x0, symName: __ZNSt3__142__uninitialized_allocator_move_if_noexceptB8ue170006INS_9allocatorI6neuronEENS_16reverse_iteratorIPS2_EES6_S6_EET2_RT_T0_T1_S7_, symObjAddr: 0x979C, symBinAddr: 0x10000CECC, symSize: 0x12C }
  - { offsetInCU: 0x1898B, offset: 0x26BDA, size: 0x8, addend: 0x0, symName: __ZNSt3__14swapB8ue170006IP6neuronEENS_9enable_ifIXaasr21is_move_constructibleIT_EE5valuesr18is_move_assignableIS4_EE5valueEvE4typeERS4_S7_, symObjAddr: 0x9914, symBinAddr: 0x10000D044, symSize: 0x3C }
  - { offsetInCU: 0x189DB, offset: 0x26C2A, size: 0x8, addend: 0x0, symName: __ZNSt3__122__make_exception_guardB8ue170006INS_29_AllocatorDestroyRangeReverseINS_9allocatorI6neuronEENS_16reverse_iteratorIPS3_EEEEEENS_28__exception_guard_exceptionsIT_EESA_, symObjAddr: 0x9A18, symBinAddr: 0x10000D148, symSize: 0x4C }
  - { offsetInCU: 0x18A12, offset: 0x26C61, size: 0x8, addend: 0x0, symName: __ZNSt3__1neB8ue170006IP6neuronS2_EEbRKNS_16reverse_iteratorIT_EERKNS3_IT0_EE, symObjAddr: 0x9AA8, symBinAddr: 0x10000D1D8, symSize: 0x48 }
  - { offsetInCU: 0x18A5F, offset: 0x26CAE, size: 0x8, addend: 0x0, symName: __ZNSt3__112__to_addressB8ue170006INS_16reverse_iteratorIP6neuronEEvEEu7__decayIDTclsr19__to_address_helperIT_EE6__callclsr3stdE7declvalIRKS5_EEEEES7_, symObjAddr: 0x9AF0, symBinAddr: 0x10000D220, symSize: 0x24 }
  - { offsetInCU: 0x18AC1, offset: 0x26D10, size: 0x8, addend: 0x0, symName: __ZNSt3__119__allocator_destroyB8ue170006INS_9allocatorI6neuronEENS_16reverse_iteratorINS4_IPS2_EEEES7_EEvRT_T0_T1_, symObjAddr: 0x9DA0, symBinAddr: 0x10000D4D0, symSize: 0x70 }
  - { offsetInCU: 0x18B25, offset: 0x26D74, size: 0x8, addend: 0x0, symName: __ZNSt3__1neB8ue170006INS_16reverse_iteratorIP6neuronEES4_EEbRKNS1_IT_EERKNS1_IT0_EE, symObjAddr: 0x9E4C, symBinAddr: 0x10000D57C, symSize: 0x60 }
  - { offsetInCU: 0x18B72, offset: 0x26DC1, size: 0x8, addend: 0x0, symName: __ZNSt3__112__to_addressB8ue170006INS_16reverse_iteratorINS1_IP6neuronEEEEvEEu7__decayIDTclsr19__to_address_helperIT_EE6__callclsr3stdE7declvalIRKS6_EEEEES8_, symObjAddr: 0x9EAC, symBinAddr: 0x10000D5DC, symSize: 0x24 }
  - { offsetInCU: 0x18BD3, offset: 0x26E22, size: 0x8, addend: 0x0, symName: __ZNSt3__119__allocate_at_leastB8ue170006INS_9allocatorINS_6vectorI6neuronNS1_IS3_EEEEEEEENS_19__allocation_resultINS_16allocator_traitsIT_E7pointerEEERS9_m, symObjAddr: 0xAB0C, symBinAddr: 0x10000E23C, symSize: 0x40 }
  - { offsetInCU: 0x18C17, offset: 0x26E66, size: 0x8, addend: 0x0, symName: __ZNSt3__142__uninitialized_allocator_move_if_noexceptB8ue170006INS_9allocatorINS_6vectorI6neuronNS1_IS3_EEEEEENS_16reverse_iteratorIPS5_EES9_S9_EET2_RT_T0_T1_SA_, symObjAddr: 0xACC4, symBinAddr: 0x10000E3F4, symSize: 0x12C }
  - { offsetInCU: 0x18CB9, offset: 0x26F08, size: 0x8, addend: 0x0, symName: __ZNSt3__14swapB8ue170006IPNS_6vectorI6neuronNS_9allocatorIS2_EEEEEENS_9enable_ifIXaasr21is_move_constructibleIT_EE5valuesr18is_move_assignableIS8_EE5valueEvE4typeERS8_SB_, symObjAddr: 0xAE3C, symBinAddr: 0x10000E56C, symSize: 0x3C }
  - { offsetInCU: 0x18D09, offset: 0x26F58, size: 0x8, addend: 0x0, symName: __ZNSt3__122__make_exception_guardB8ue170006INS_29_AllocatorDestroyRangeReverseINS_9allocatorINS_6vectorI6neuronNS2_IS4_EEEEEENS_16reverse_iteratorIPS6_EEEEEENS_28__exception_guard_exceptionsIT_EESD_, symObjAddr: 0xAF40, symBinAddr: 0x10000E670, symSize: 0x4C }
  - { offsetInCU: 0x18D40, offset: 0x26F8F, size: 0x8, addend: 0x0, symName: __ZNSt3__1neB8ue170006IPNS_6vectorI6neuronNS_9allocatorIS2_EEEES6_EEbRKNS_16reverse_iteratorIT_EERKNS7_IT0_EE, symObjAddr: 0xAFD0, symBinAddr: 0x10000E700, symSize: 0x48 }
  - { offsetInCU: 0x18D8D, offset: 0x26FDC, size: 0x8, addend: 0x0, symName: __ZNSt3__112__to_addressB8ue170006INS_16reverse_iteratorIPNS_6vectorI6neuronNS_9allocatorIS3_EEEEEEvEEu7__decayIDTclsr19__to_address_helperIT_EE6__callclsr3stdE7declvalIRKS9_EEEEESB_, symObjAddr: 0xB018, symBinAddr: 0x10000E748, symSize: 0x24 }
  - { offsetInCU: 0x18DEF, offset: 0x2703E, size: 0x8, addend: 0x0, symName: __ZNSt3__119__allocator_destroyB8ue170006INS_9allocatorINS_6vectorI6neuronNS1_IS3_EEEEEENS_16reverse_iteratorINS7_IPS5_EEEESA_EEvRT_T0_T1_, symObjAddr: 0xB2C8, symBinAddr: 0x10000E9F8, symSize: 0x70 }
  - { offsetInCU: 0x18E53, offset: 0x270A2, size: 0x8, addend: 0x0, symName: __ZNSt3__1neB8ue170006INS_16reverse_iteratorIPNS_6vectorI6neuronNS_9allocatorIS3_EEEEEES8_EEbRKNS1_IT_EERKNS1_IT0_EE, symObjAddr: 0xB374, symBinAddr: 0x10000EAA4, symSize: 0x60 }
  - { offsetInCU: 0x18EA0, offset: 0x270EF, size: 0x8, addend: 0x0, symName: __ZNSt3__112__to_addressB8ue170006INS_16reverse_iteratorINS1_IPNS_6vectorI6neuronNS_9allocatorIS3_EEEEEEEEvEEu7__decayIDTclsr19__to_address_helperIT_EE6__callclsr3stdE7declvalIRKSA_EEEEESC_, symObjAddr: 0xB3D4, symBinAddr: 0x10000EB04, symSize: 0x24 }
  - { offsetInCU: 0x18F02, offset: 0x27151, size: 0x8, addend: 0x0, symName: __ZNSt3__112__to_addressB8ue170006INS_6futureINS_6vectorI5valueNS_9allocatorIS3_EEEEEEEEPT_S9_, symObjAddr: 0xBDBC, symBinAddr: 0x10000F4EC, symSize: 0x14 }
  - { offsetInCU: 0x18F37, offset: 0x27186, size: 0x8, addend: 0x0, symName: __ZNSt3__112__to_addressB8ue170006INS_6vectorI5valueNS_9allocatorIS2_EEEEEEPT_S7_, symObjAddr: 0xC408, symBinAddr: 0x10000FB38, symSize: 0x14 }
  - { offsetInCU: 0x18F6C, offset: 0x271BB, size: 0x8, addend: 0x0, symName: '__ZNSt3__111make_sharedB8ue170006INS_13packaged_taskIFNS_6vectorI5valueNS_9allocatorIS3_EEEEvEEEJNS_6__bindIRZN5layer13forward_layerER11value_arrayE3$_0JNS_17reference_wrapperINS2_I6neuronNS4_ISG_EEEEEEEEEEvEENS_10shared_ptrIT_EEDpOT0_', symObjAddr: 0xC670, symBinAddr: 0x10000FDA0, symSize: 0x40 }
  - { offsetInCU: 0x18FB0, offset: 0x271FF, size: 0x8, addend: 0x0, symName: '__ZNSt3__14bindB8ue170006IRZN5layer13forward_layerER11value_arrayE3$_0JNS_17reference_wrapperINS_6vectorI6neuronNS_9allocatorIS8_EEEEEEEEENS_6__bindIT_JDpT0_EEEOSE_DpOSF_', symObjAddr: 0xC6B0, symBinAddr: 0x10000FDE0, symSize: 0x38 }
  - { offsetInCU: 0x19002, offset: 0x27251, size: 0x8, addend: 0x0, symName: '__ZNSt3__115allocate_sharedB8ue170006INS_13packaged_taskIFNS_6vectorI5valueNS_9allocatorIS3_EEEEvEEENS4_IS8_EEJNS_6__bindIRZN5layer13forward_layerER11value_arrayE3$_0JNS_17reference_wrapperINS2_I6neuronNS4_ISH_EEEEEEEEEEvEENS_10shared_ptrIT_EERKT0_DpOT1_', symObjAddr: 0xC7E8, symBinAddr: 0x10000FF18, symSize: 0x98 }
  - { offsetInCU: 0x19DFA, offset: 0x28049, size: 0x8, addend: 0x0, symName: '__ZNSt3__18__invokeB8ue170006IRNS_6__bindIRZN5layer13forward_layerER11value_arrayE3$_0JNS_17reference_wrapperINS_6vectorI6neuronNS_9allocatorIS9_EEEEEEEEEJEEEDTclclsr3stdE7declvalIT_EEspclsr3stdE7declvalIT0_EEEEOSG_DpOSH_', symObjAddr: 0xD66C, symBinAddr: 0x100010D9C, symSize: 0x2C }
  - { offsetInCU: 0x19EC9, offset: 0x28118, size: 0x8, addend: 0x0, symName: '__ZNSt3__115__apply_functorB8ue170006IZN5layer13forward_layerER11value_arrayE3$_0NS_5tupleIJNS_17reference_wrapperINS_6vectorI6neuronNS_9allocatorIS8_EEEEEEEEEJLm0EENS5_IJEEEEENS_13__bind_returnIT_T0_T2_Xsr22__is_valid_bind_returnISG_SH_SI_EE5valueEE4typeERSG_RSH_NS_15__tuple_indicesIJXspT1_EEEEOSI_', symObjAddr: 0xD6D0, symBinAddr: 0x100010E00, symSize: 0x60 }
  - { offsetInCU: 0x19F49, offset: 0x28198, size: 0x8, addend: 0x0, symName: '__ZNSt3__18__invokeB8ue170006IRZN5layer13forward_layerER11value_arrayE3$_0JRNS_6vectorI6neuronNS_9allocatorIS7_EEEEEEEDTclclsr3stdE7declvalIT_EEspclsr3stdE7declvalIT0_EEEEOSC_DpOSD_', symObjAddr: 0xD730, symBinAddr: 0x100010E60, symSize: 0x34 }
  - { offsetInCU: 0x19F9A, offset: 0x281E9, size: 0x8, addend: 0x0, symName: __ZNSt3__14__muB8ue170006INS_6vectorI6neuronNS_9allocatorIS2_EEEENS_5tupleIJEEEEERT_NS_17reference_wrapperIS8_EERT0_, symObjAddr: 0xD764, symBinAddr: 0x100010E94, symSize: 0x2C }
  - { offsetInCU: 0x19FE4, offset: 0x28233, size: 0x8, addend: 0x0, symName: __ZNSt3__13getB8ue170006ILm0EJNS_17reference_wrapperINS_6vectorI6neuronNS_9allocatorIS3_EEEEEEEEERNS_13tuple_elementIXT_ENS_5tupleIJDpT0_EEEE4typeERSC_, symObjAddr: 0xD790, symBinAddr: 0x100010EC0, symSize: 0x24 }
  - { offsetInCU: 0x1A029, offset: 0x28278, size: 0x8, addend: 0x0, symName: '__ZNSt3__18for_eachB8ue170006INS_11__wrap_iterIP6neuronEEZZN5layer13forward_layerER11value_arrayENK3$_0clERNS_6vectorIS2_NS_9allocatorIS2_EEEEEUlRS2_E_EET0_T_SH_SG_', symObjAddr: 0xD888, symBinAddr: 0x100010FB8, symSize: 0x6C }
  - { offsetInCU: 0x1A083, offset: 0x282D2, size: 0x8, addend: 0x0, symName: __ZNSt3__119__allocate_at_leastB8ue170006INS_9allocatorI5valueEEEENS_19__allocation_resultINS_16allocator_traitsIT_E7pointerEEERS6_m, symObjAddr: 0xE100, symBinAddr: 0x100011830, symSize: 0x40 }
  - { offsetInCU: 0x1A0C7, offset: 0x28316, size: 0x8, addend: 0x0, symName: __ZNSt3__142__uninitialized_allocator_move_if_noexceptB8ue170006INS_9allocatorI5valueEENS_16reverse_iteratorIPS2_EES6_S6_EET2_RT_T0_T1_S7_, symObjAddr: 0xE2B4, symBinAddr: 0x1000119E4, symSize: 0x12C }
  - { offsetInCU: 0x1A169, offset: 0x283B8, size: 0x8, addend: 0x0, symName: __ZNSt3__14swapB8ue170006IP5valueEENS_9enable_ifIXaasr21is_move_constructibleIT_EE5valuesr18is_move_assignableIS4_EE5valueEvE4typeERS4_S7_, symObjAddr: 0xE42C, symBinAddr: 0x100011B5C, symSize: 0x3C }
  - { offsetInCU: 0x1A1B9, offset: 0x28408, size: 0x8, addend: 0x0, symName: __ZNSt3__122__make_exception_guardB8ue170006INS_29_AllocatorDestroyRangeReverseINS_9allocatorI5valueEENS_16reverse_iteratorIPS3_EEEEEENS_28__exception_guard_exceptionsIT_EESA_, symObjAddr: 0xE514, symBinAddr: 0x100011C44, symSize: 0x4C }
  - { offsetInCU: 0x1A1F0, offset: 0x2843F, size: 0x8, addend: 0x0, symName: __ZNSt3__1neB8ue170006IP5valueS2_EEbRKNS_16reverse_iteratorIT_EERKNS3_IT0_EE, symObjAddr: 0xE5A4, symBinAddr: 0x100011CD4, symSize: 0x48 }
  - { offsetInCU: 0x1A23D, offset: 0x2848C, size: 0x8, addend: 0x0, symName: __ZNSt3__112__to_addressB8ue170006INS_16reverse_iteratorIP5valueEEvEEu7__decayIDTclsr19__to_address_helperIT_EE6__callclsr3stdE7declvalIRKS5_EEEEES7_, symObjAddr: 0xE5EC, symBinAddr: 0x100011D1C, symSize: 0x24 }
  - { offsetInCU: 0x1A29F, offset: 0x284EE, size: 0x8, addend: 0x0, symName: __ZNSt3__119__allocator_destroyB8ue170006INS_9allocatorI5valueEENS_16reverse_iteratorINS4_IPS2_EEEES7_EEvRT_T0_T1_, symObjAddr: 0xE89C, symBinAddr: 0x100011FCC, symSize: 0x70 }
  - { offsetInCU: 0x1A303, offset: 0x28552, size: 0x8, addend: 0x0, symName: __ZNSt3__1neB8ue170006INS_16reverse_iteratorIP5valueEES4_EEbRKNS1_IT_EERKNS1_IT0_EE, symObjAddr: 0xE948, symBinAddr: 0x100012078, symSize: 0x60 }
  - { offsetInCU: 0x1A350, offset: 0x2859F, size: 0x8, addend: 0x0, symName: __ZNSt3__112__to_addressB8ue170006INS_16reverse_iteratorINS1_IP5valueEEEEvEEu7__decayIDTclsr19__to_address_helperIT_EE6__callclsr3stdE7declvalIRKS6_EEEEES8_, symObjAddr: 0xE9A8, symBinAddr: 0x1000120D8, symSize: 0x24 }
  - { offsetInCU: 0x1A3B1, offset: 0x28600, size: 0x8, addend: 0x0, symName: __ZNSt3__115make_error_codeB8ue170006ENS_11future_errcE, symObjAddr: 0xF46C, symBinAddr: 0x100012B9C, symSize: 0x40 }
  - { offsetInCU: 0x1A3E1, offset: 0x28630, size: 0x8, addend: 0x0, symName: __ZNSt3__121__libcpp_relaxed_loadB8ue170006IlEET_PKS1_, symObjAddr: 0xF5DC, symBinAddr: 0x100012D0C, symSize: 0x20 }
  - { offsetInCU: 0x1A416, offset: 0x28665, size: 0x8, addend: 0x0, symName: __ZNSt3__134__libcpp_atomic_refcount_decrementB8ue170006IlEET_RS1_, symObjAddr: 0xF6F0, symBinAddr: 0x100012E20, symSize: 0x30 }
  - { offsetInCU: 0x1A8EC, offset: 0x28B3B, size: 0x8, addend: 0x0, symName: __ZNSt3__14swapB8ue170006IPPNS_8functionIFvvEEEEENS_9enable_ifIXaasr21is_move_constructibleIT_EE5valuesr18is_move_assignableIS7_EE5valueEvE4typeERS7_SA_, symObjAddr: 0x10DF0, symBinAddr: 0x100014520, symSize: 0x3C }
  - { offsetInCU: 0x1A93C, offset: 0x28B8B, size: 0x8, addend: 0x0, symName: __ZNSt3__14moveB8ue170006IPPNS_8functionIFvvEEES5_EET0_T_S7_S6_, symObjAddr: 0x10ED4, symBinAddr: 0x100014604, symSize: 0x40 }
  - { offsetInCU: 0x1A997, offset: 0x28BE6, size: 0x8, addend: 0x0, symName: __ZNSt3__16__moveB8ue170006INS_17_ClassicAlgPolicyEPPNS_8functionIFvvEEES6_S6_EENS_4pairIT0_T2_EES8_T1_S9_, symObjAddr: 0x10FDC, symBinAddr: 0x10001470C, symSize: 0x44 }
  - { offsetInCU: 0x1AA04, offset: 0x28C53, size: 0x8, addend: 0x0, symName: __ZNSt3__123__dispatch_copy_or_moveB8ue170006INS_17_ClassicAlgPolicyENS_11__move_loopIS1_EENS_14__move_trivialEPPNS_8functionIFvvEEES9_S9_EENS_4pairIT2_T4_EESB_T3_SC_, symObjAddr: 0x11020, symBinAddr: 0x100014750, symSize: 0x44 }
  - { offsetInCU: 0x1AA83, offset: 0x28CD2, size: 0x8, addend: 0x0, symName: __ZNSt3__121__unwrap_and_dispatchB8ue170006INS_10__overloadINS_11__move_loopINS_17_ClassicAlgPolicyEEENS_14__move_trivialEEEPPNS_8functionIFvvEEESB_SB_Li0EEENS_4pairIT0_T2_EESD_T1_SE_, symObjAddr: 0x11064, symBinAddr: 0x100014794, symSize: 0xB4 }
  - { offsetInCU: 0x1AB13, offset: 0x28D62, size: 0x8, addend: 0x0, symName: __ZNSt3__114__unwrap_rangeB8ue170006IPPNS_8functionIFvvEEES5_EENS_4pairIT0_S7_EET_S9_, symObjAddr: 0x11118, symBinAddr: 0x100014848, symSize: 0x60 }
  - { offsetInCU: 0x1ACDC, offset: 0x28F2B, size: 0x8, addend: 0x0, symName: __ZNSt3__113__unwrap_iterB8ue170006IPPNS_8functionIFvvEEENS_18__unwrap_iter_implIS5_Lb1EEELi0EEEDTclsrT0_8__unwrapclsr3stdE7declvalIT_EEEES9_, symObjAddr: 0x111C0, symBinAddr: 0x1000148F0, symSize: 0x24 }
  - { offsetInCU: 0x1AD22, offset: 0x28F71, size: 0x8, addend: 0x0, symName: __ZNSt3__19make_pairB8ue170006IPPNS_8functionIFvvEEES5_EENS_4pairINS_18__unwrap_ref_decayIT_E4typeENS7_IT0_E4typeEEEOS8_OSB_, symObjAddr: 0x111E4, symBinAddr: 0x100014914, symSize: 0x38 }
  - { offsetInCU: 0x1AD72, offset: 0x28FC1, size: 0x8, addend: 0x0, symName: __ZNSt3__114__rewrap_rangeB8ue170006IPPNS_8functionIFvvEEES5_EET_S6_T0_, symObjAddr: 0x1121C, symBinAddr: 0x10001494C, symSize: 0x2C }
  - { offsetInCU: 0x1ADBF, offset: 0x2900E, size: 0x8, addend: 0x0, symName: __ZNSt3__113__rewrap_iterB8ue170006IPPNS_8functionIFvvEEES5_NS_18__unwrap_iter_implIS5_Lb1EEEEET_S8_T0_, symObjAddr: 0x11248, symBinAddr: 0x100014978, symSize: 0x3C }
  - { offsetInCU: 0x1AE15, offset: 0x29064, size: 0x8, addend: 0x0, symName: __ZNSt3__119__copy_trivial_implB8ue170006IPNS_8functionIFvvEEES4_EENS_4pairIPT_PT0_EES7_S7_S9_, symObjAddr: 0x11284, symBinAddr: 0x1000149B4, symSize: 0x80 }
  - { offsetInCU: 0x1AE7E, offset: 0x290CD, size: 0x8, addend: 0x0, symName: __ZNSt3__119__constexpr_memmoveB8ue170006IPNS_8functionIFvvEEES4_Li0EEEPT_S6_PT0_NS_15__element_countE, symObjAddr: 0x11304, symBinAddr: 0x100014A34, symSize: 0x64 }
  - { offsetInCU: 0x1AEEE, offset: 0x2913D, size: 0x8, addend: 0x0, symName: __ZNSt3__19make_pairB8ue170006IRPPNS_8functionIFvvEEES5_EENS_4pairINS_18__unwrap_ref_decayIT_E4typeENS8_IT0_E4typeEEEOS9_OSC_, symObjAddr: 0x11368, symBinAddr: 0x100014A98, symSize: 0x38 }
  - { offsetInCU: 0x1AF91, offset: 0x291E0, size: 0x8, addend: 0x0, symName: __ZNSt3__18distanceB8ue170006INS_13move_iteratorIPPNS_8functionIFvvEEEEEEENS_15iterator_traitsIT_E15difference_typeES9_S9_, symObjAddr: 0x115D0, symBinAddr: 0x100014D00, symSize: 0x3C }
  - { offsetInCU: 0x1AFD5, offset: 0x29224, size: 0x8, addend: 0x0, symName: __ZNSt3__110__distanceB8ue170006INS_13move_iteratorIPPNS_8functionIFvvEEEEEEENS_15iterator_traitsIT_E15difference_typeES9_S9_NS_26random_access_iterator_tagE, symObjAddr: 0x117D4, symBinAddr: 0x100014F04, symSize: 0x30 }
  - { offsetInCU: 0x1B024, offset: 0x29273, size: 0x8, addend: 0x0, symName: __ZNSt3__1miB8ue170006IPPNS_8functionIFvvEEES5_EEDTmicldtfp_4baseEcldtfp0_4baseEERKNS_13move_iteratorIT_EERKNS7_IT0_EE, symObjAddr: 0x11804, symBinAddr: 0x100014F34, symSize: 0x48 }
  - { offsetInCU: 0x1B074, offset: 0x292C3, size: 0x8, addend: 0x0, symName: __ZNSt3__113move_backwardB8ue170006IPPNS_8functionIFvvEEES5_EET0_T_S7_S6_, symObjAddr: 0x1193C, symBinAddr: 0x10001506C, symSize: 0x40 }
  - { offsetInCU: 0x1B0CF, offset: 0x2931E, size: 0x8, addend: 0x0, symName: __ZNSt3__115__move_backwardB8ue170006INS_17_ClassicAlgPolicyEPPNS_8functionIFvvEEES6_S6_EENS_4pairIT0_T2_EES8_T1_S9_, symObjAddr: 0x1197C, symBinAddr: 0x1000150AC, symSize: 0x44 }
  - { offsetInCU: 0x1B13C, offset: 0x2938B, size: 0x8, addend: 0x0, symName: __ZNSt3__123__dispatch_copy_or_moveB8ue170006INS_17_ClassicAlgPolicyENS_20__move_backward_loopIS1_EENS_23__move_backward_trivialEPPNS_8functionIFvvEEES9_S9_EENS_4pairIT2_T4_EESB_T3_SC_, symObjAddr: 0x119C0, symBinAddr: 0x1000150F0, symSize: 0x44 }
  - { offsetInCU: 0x1B1BB, offset: 0x2940A, size: 0x8, addend: 0x0, symName: __ZNSt3__121__unwrap_and_dispatchB8ue170006INS_10__overloadINS_20__move_backward_loopINS_17_ClassicAlgPolicyEEENS_23__move_backward_trivialEEEPPNS_8functionIFvvEEESB_SB_Li0EEENS_4pairIT0_T2_EESD_T1_SE_, symObjAddr: 0x11A04, symBinAddr: 0x100015134, symSize: 0xB4 }
  - { offsetInCU: 0x1B292, offset: 0x294E1, size: 0x8, addend: 0x0, symName: __ZNSt3__128__copy_backward_trivial_implB8ue170006IPNS_8functionIFvvEEES4_EENS_4pairIPT_PT0_EES7_S7_S9_, symObjAddr: 0x11B00, symBinAddr: 0x100015230, symSize: 0x90 }
  - { offsetInCU: 0x1B2FB, offset: 0x2954A, size: 0x8, addend: 0x0, symName: __ZNSt3__19make_pairB8ue170006IRPPNS_8functionIFvvEEES6_EENS_4pairINS_18__unwrap_ref_decayIT_E4typeENS8_IT0_E4typeEEEOS9_OSC_, symObjAddr: 0x11B90, symBinAddr: 0x1000152C0, symSize: 0x38 }
  - { offsetInCU: 0x1B34B, offset: 0x2959A, size: 0x8, addend: 0x0, symName: __ZNSt3__119__allocate_at_leastB8ue170006INS_9allocatorIPNS_8functionIFvvEEEEEEENS_19__allocation_resultINS_16allocator_traitsIT_E7pointerEEERS9_m, symObjAddr: 0x11D48, symBinAddr: 0x100015478, symSize: 0x40 }
  - { offsetInCU: 0x1B4FD, offset: 0x2974C, size: 0x8, addend: 0x0, symName: '__ZNSt3__116forward_as_tupleB8ue170006IJZN10ThreadPool7enqueueIRZN5layer13forward_layerER11value_arrayE3$_0JNS_17reference_wrapperINS_6vectorI6neuronNS_9allocatorISA_EEEEEEEEENS_6futureIDTclfp_spfp0_EEEEOT_DpOT0_EUlvE_EEENS_5tupleIJDpOT_EEESR_', symObjAddr: 0x12C4C, symBinAddr: 0x10001637C, symSize: 0x2C }
  - { offsetInCU: 0x1B537, offset: 0x29786, size: 0x8, addend: 0x0, symName: '__ZNSt3__116forward_as_tupleB8ue170006IJNS_9allocatorIZN10ThreadPool7enqueueIRZN5layer13forward_layerER11value_arrayE3$_0JNS_17reference_wrapperINS_6vectorI6neuronNS1_ISB_EEEEEEEEENS_6futureIDTclfp_spfp0_EEEEOT_DpOT0_EUlvE_EEEEENS_5tupleIJDpOT_EEESS_', symObjAddr: 0x12C78, symBinAddr: 0x1000163A8, symSize: 0x2C }
  - { offsetInCU: 0x1B59B, offset: 0x297EA, size: 0x8, addend: 0x0, symName: '__ZNSt3__13getB8ue170006ILm0EJOZN10ThreadPool7enqueueIRZN5layer13forward_layerER11value_arrayE3$_0JNS_17reference_wrapperINS_6vectorI6neuronNS_9allocatorISA_EEEEEEEEENS_6futureIDTclfp_spfp0_EEEEOT_DpOT0_EUlvE_EEERNS_13tuple_elementIXT_ENS_5tupleIJDpSK_EEEE4typeERSS_', symObjAddr: 0x12FE4, symBinAddr: 0x100016714, symSize: 0x24 }
  - { offsetInCU: 0x1B5DE, offset: 0x2982D, size: 0x8, addend: 0x0, symName: '__ZNSt3__13getB8ue170006ILm0EJONS_9allocatorIZN10ThreadPool7enqueueIRZN5layer13forward_layerER11value_arrayE3$_0JNS_17reference_wrapperINS_6vectorI6neuronNS1_ISB_EEEEEEEEENS_6futureIDTclfp_spfp0_EEEEOT_DpOT0_EUlvE_EEEEERNS_13tuple_elementIXT_ENS_5tupleIJDpSK_EEEE4typeERST_', symObjAddr: 0x13020, symBinAddr: 0x100016750, symSize: 0x24 }
  - { offsetInCU: 0x1BB23, offset: 0x29D72, size: 0x8, addend: 0x0, symName: '__ZNSt3__116forward_as_tupleB8ue170006IJRKZN10ThreadPool7enqueueIRZN5layer13forward_layerER11value_arrayE3$_0JNS_17reference_wrapperINS_6vectorI6neuronNS_9allocatorISA_EEEEEEEEENS_6futureIDTclfp_spfp0_EEEEOT_DpOT0_EUlvE_EEENS_5tupleIJDpOT_EEEST_', symObjAddr: 0x13688, symBinAddr: 0x100016DB8, symSize: 0x2C }
  - { offsetInCU: 0x1BB72, offset: 0x29DC1, size: 0x8, addend: 0x0, symName: '__ZNSt3__13getB8ue170006ILm0EJRKZN10ThreadPool7enqueueIRZN5layer13forward_layerER11value_arrayE3$_0JNS_17reference_wrapperINS_6vectorI6neuronNS_9allocatorISA_EEEEEEEEENS_6futureIDTclfp_spfp0_EEEEOT_DpOT0_EUlvE_EEERNS_13tuple_elementIXT_ENS_5tupleIJDpSK_EEEE4typeERST_', symObjAddr: 0x13878, symBinAddr: 0x100016FA8, symSize: 0x24 }
  - { offsetInCU: 0x1BBB5, offset: 0x29E04, size: 0x8, addend: 0x0, symName: '__ZNSt3__116forward_as_tupleB8ue170006IJRKNS_9allocatorIZN10ThreadPool7enqueueIRZN5layer13forward_layerER11value_arrayE3$_0JNS_17reference_wrapperINS_6vectorI6neuronNS1_ISB_EEEEEEEEENS_6futureIDTclfp_spfp0_EEEEOT_DpOT0_EUlvE_EEEEENS_5tupleIJDpOT_EEESU_', symObjAddr: 0x13C40, symBinAddr: 0x100017370, symSize: 0x2C }
  - { offsetInCU: 0x1BC04, offset: 0x29E53, size: 0x8, addend: 0x0, symName: '__ZNSt3__13getB8ue170006ILm0EJRKNS_9allocatorIZN10ThreadPool7enqueueIRZN5layer13forward_layerER11value_arrayE3$_0JNS_17reference_wrapperINS_6vectorI6neuronNS1_ISB_EEEEEEEEENS_6futureIDTclfp_spfp0_EEEEOT_DpOT0_EUlvE_EEEEERNS_13tuple_elementIXT_ENS_5tupleIJDpSK_EEEE4typeERSU_', symObjAddr: 0x13E4C, symBinAddr: 0x10001757C, symSize: 0x24 }
  - { offsetInCU: 0x1BC7C, offset: 0x29ECB, size: 0x8, addend: 0x0, symName: '__ZNSt3__18__invokeB8ue170006IRZN10ThreadPool7enqueueIRZN5layer13forward_layerER11value_arrayE3$_0JNS_17reference_wrapperINS_6vectorI6neuronNS_9allocatorISA_EEEEEEEEENS_6futureIDTclfp_spfp0_EEEEOT_DpOT0_EUlvE_JEEEDTclclsr3stdE7declvalISI_EEspclsr3stdE7declvalISK_EEEESJ_SM_', symObjAddr: 0x13F1C, symBinAddr: 0x10001764C, symSize: 0x24 }
  - { offsetInCU: 0x1BCB5, offset: 0x29F04, size: 0x8, addend: 0x0, symName: __ZNSt3__120__throw_future_errorB8ue170006ENS_11future_errcE, symObjAddr: 0x140A4, symBinAddr: 0x1000177D4, symSize: 0x80 }
  - { offsetInCU: 0x1BCE0, offset: 0x29F2F, size: 0x8, addend: 0x0, symName: __ZNSt3__134__libcpp_atomic_refcount_incrementB8ue170006IlEET_RS1_, symObjAddr: 0x14650, symBinAddr: 0x100017D80, symSize: 0x30 }
  - { offsetInCU: 0x1BDA4, offset: 0x29FF3, size: 0x8, addend: 0x0, symName: __ZNSt3__119__allocate_at_leastB8ue170006INS_9allocatorINS_6futureINS_6vectorI5valueNS1_IS4_EEEEEEEEEENS_19__allocation_resultINS_16allocator_traitsIT_E7pointerEEERSB_m, symObjAddr: 0x1517C, symBinAddr: 0x1000188AC, symSize: 0x40 }
  - { offsetInCU: 0x1BDE8, offset: 0x2A037, size: 0x8, addend: 0x0, symName: __ZNSt3__142__uninitialized_allocator_move_if_noexceptB8ue170006INS_9allocatorINS_6futureINS_6vectorI5valueNS1_IS4_EEEEEEEENS_16reverse_iteratorIPS7_EESB_SB_EET2_RT_T0_T1_SC_, symObjAddr: 0x15330, symBinAddr: 0x100018A60, symSize: 0x12C }
  - { offsetInCU: 0x1BE8A, offset: 0x2A0D9, size: 0x8, addend: 0x0, symName: __ZNSt3__14swapB8ue170006IPNS_6futureINS_6vectorI5valueNS_9allocatorIS3_EEEEEEEENS_9enable_ifIXaasr21is_move_constructibleIT_EE5valuesr18is_move_assignableISA_EE5valueEvE4typeERSA_SD_, symObjAddr: 0x154A8, symBinAddr: 0x100018BD8, symSize: 0x3C }
  - { offsetInCU: 0x1BEDA, offset: 0x2A129, size: 0x8, addend: 0x0, symName: __ZNSt3__122__make_exception_guardB8ue170006INS_29_AllocatorDestroyRangeReverseINS_9allocatorINS_6futureINS_6vectorI5valueNS2_IS5_EEEEEEEENS_16reverse_iteratorIPS8_EEEEEENS_28__exception_guard_exceptionsIT_EESF_, symObjAddr: 0x15590, symBinAddr: 0x100018CC0, symSize: 0x4C }
  - { offsetInCU: 0x1BF11, offset: 0x2A160, size: 0x8, addend: 0x0, symName: __ZNSt3__1neB8ue170006IPNS_6futureINS_6vectorI5valueNS_9allocatorIS3_EEEEEES8_EEbRKNS_16reverse_iteratorIT_EERKNS9_IT0_EE, symObjAddr: 0x15620, symBinAddr: 0x100018D50, symSize: 0x48 }
  - { offsetInCU: 0x1BF5E, offset: 0x2A1AD, size: 0x8, addend: 0x0, symName: __ZNSt3__112__to_addressB8ue170006INS_16reverse_iteratorIPNS_6futureINS_6vectorI5valueNS_9allocatorIS4_EEEEEEEEvEEu7__decayIDTclsr19__to_address_helperIT_EE6__callclsr3stdE7declvalIRKSB_EEEEESD_, symObjAddr: 0x15668, symBinAddr: 0x100018D98, symSize: 0x24 }
  - { offsetInCU: 0x1BFC0, offset: 0x2A20F, size: 0x8, addend: 0x0, symName: __ZNSt3__119__allocator_destroyB8ue170006INS_9allocatorINS_6futureINS_6vectorI5valueNS1_IS4_EEEEEEEENS_16reverse_iteratorINS9_IPS7_EEEESC_EEvRT_T0_T1_, symObjAddr: 0x15918, symBinAddr: 0x100019048, symSize: 0x70 }
  - { offsetInCU: 0x1C024, offset: 0x2A273, size: 0x8, addend: 0x0, symName: __ZNSt3__1neB8ue170006INS_16reverse_iteratorIPNS_6futureINS_6vectorI5valueNS_9allocatorIS4_EEEEEEEESA_EEbRKNS1_IT_EERKNS1_IT0_EE, symObjAddr: 0x159C4, symBinAddr: 0x1000190F4, symSize: 0x60 }
  - { offsetInCU: 0x1C071, offset: 0x2A2C0, size: 0x8, addend: 0x0, symName: __ZNSt3__112__to_addressB8ue170006INS_16reverse_iteratorINS1_IPNS_6futureINS_6vectorI5valueNS_9allocatorIS4_EEEEEEEEEEvEEu7__decayIDTclsr19__to_address_helperIT_EE6__callclsr3stdE7declvalIRKSC_EEEEESE_, symObjAddr: 0x15A24, symBinAddr: 0x100019154, symSize: 0x24 }
  - { offsetInCU: 0x1C4BB, offset: 0x2A70A, size: 0x8, addend: 0x0, symName: __ZNSt3__119__allocate_at_leastB8ue170006INS_9allocatorINS_6vectorI5valueNS1_IS3_EEEEEEEENS_19__allocation_resultINS_16allocator_traitsIT_E7pointerEEERS9_m, symObjAddr: 0x16920, symBinAddr: 0x10001A050, symSize: 0x40 }
  - { offsetInCU: 0x1C4FF, offset: 0x2A74E, size: 0x8, addend: 0x0, symName: __ZNSt3__142__uninitialized_allocator_move_if_noexceptB8ue170006INS_9allocatorINS_6vectorI5valueNS1_IS3_EEEEEENS_16reverse_iteratorIPS5_EES9_S9_EET2_RT_T0_T1_SA_, symObjAddr: 0x16AD8, symBinAddr: 0x10001A208, symSize: 0x12C }
  - { offsetInCU: 0x1C5A1, offset: 0x2A7F0, size: 0x8, addend: 0x0, symName: __ZNSt3__14swapB8ue170006IPNS_6vectorI5valueNS_9allocatorIS2_EEEEEENS_9enable_ifIXaasr21is_move_constructibleIT_EE5valuesr18is_move_assignableIS8_EE5valueEvE4typeERS8_SB_, symObjAddr: 0x16C50, symBinAddr: 0x10001A380, symSize: 0x3C }
  - { offsetInCU: 0x1C5F1, offset: 0x2A840, size: 0x8, addend: 0x0, symName: __ZNSt3__122__make_exception_guardB8ue170006INS_29_AllocatorDestroyRangeReverseINS_9allocatorINS_6vectorI5valueNS2_IS4_EEEEEENS_16reverse_iteratorIPS6_EEEEEENS_28__exception_guard_exceptionsIT_EESD_, symObjAddr: 0x16D54, symBinAddr: 0x10001A484, symSize: 0x4C }
  - { offsetInCU: 0x1C628, offset: 0x2A877, size: 0x8, addend: 0x0, symName: __ZNSt3__1neB8ue170006IPNS_6vectorI5valueNS_9allocatorIS2_EEEES6_EEbRKNS_16reverse_iteratorIT_EERKNS7_IT0_EE, symObjAddr: 0x16DE4, symBinAddr: 0x10001A514, symSize: 0x48 }
  - { offsetInCU: 0x1C675, offset: 0x2A8C4, size: 0x8, addend: 0x0, symName: __ZNSt3__112__to_addressB8ue170006INS_16reverse_iteratorIPNS_6vectorI5valueNS_9allocatorIS3_EEEEEEvEEu7__decayIDTclsr19__to_address_helperIT_EE6__callclsr3stdE7declvalIRKS9_EEEEESB_, symObjAddr: 0x16E2C, symBinAddr: 0x10001A55C, symSize: 0x24 }
  - { offsetInCU: 0x1C6D7, offset: 0x2A926, size: 0x8, addend: 0x0, symName: __ZNSt3__119__allocator_destroyB8ue170006INS_9allocatorINS_6vectorI5valueNS1_IS3_EEEEEENS_16reverse_iteratorINS7_IPS5_EEEESA_EEvRT_T0_T1_, symObjAddr: 0x170DC, symBinAddr: 0x10001A80C, symSize: 0x70 }
  - { offsetInCU: 0x1C73B, offset: 0x2A98A, size: 0x8, addend: 0x0, symName: __ZNSt3__1neB8ue170006INS_16reverse_iteratorIPNS_6vectorI5valueNS_9allocatorIS3_EEEEEES8_EEbRKNS1_IT_EERKNS1_IT0_EE, symObjAddr: 0x17188, symBinAddr: 0x10001A8B8, symSize: 0x60 }
  - { offsetInCU: 0x1C788, offset: 0x2A9D7, size: 0x8, addend: 0x0, symName: __ZNSt3__112__to_addressB8ue170006INS_16reverse_iteratorINS1_IPNS_6vectorI5valueNS_9allocatorIS3_EEEEEEEEvEEu7__decayIDTclsr19__to_address_helperIT_EE6__callclsr3stdE7declvalIRKSA_EEEEESC_, symObjAddr: 0x171E8, symBinAddr: 0x10001A918, symSize: 0x24 }
  - { offsetInCU: 0x1C7E9, offset: 0x2AA38, size: 0x8, addend: 0x0, symName: __ZNSt3__1neB8ue170006IPNS_6vectorI5valueNS_9allocatorIS2_EEEEEEbRKNS_11__wrap_iterIT_EESB_, symObjAddr: 0x175D4, symBinAddr: 0x10001AD04, symSize: 0x34 }
  - { offsetInCU: 0x1C82D, offset: 0x2AA7C, size: 0x8, addend: 0x0, symName: __ZNSt3__1eqB8ue170006IPNS_6vectorI5valueNS_9allocatorIS2_EEEEEEbRKNS_11__wrap_iterIT_EESB_, symObjAddr: 0x176CC, symBinAddr: 0x10001ADFC, symSize: 0x48 }
  - { offsetInCU: 0x1C871, offset: 0x2AAC0, size: 0x8, addend: 0x0, symName: __ZNSt3__1neB8ue170006IP5valueEEbRKNS_11__wrap_iterIT_EES7_, symObjAddr: 0x1778C, symBinAddr: 0x10001AEBC, symSize: 0x34 }
  - { offsetInCU: 0x1C8B5, offset: 0x2AB04, size: 0x8, addend: 0x0, symName: __ZNSt3__1eqB8ue170006IP5valueEEbRKNS_11__wrap_iterIT_EES7_, symObjAddr: 0x1787C, symBinAddr: 0x10001AFAC, symSize: 0x48 }
  - { offsetInCU: 0x1D0EA, offset: 0x2B339, size: 0x8, addend: 0x0, symName: __ZSt28__throw_bad_array_new_lengthB8ue170006v, symObjAddr: 0x569C, symBinAddr: 0x100009C84, symSize: 0x34 }
  - { offsetInCU: 0x1D103, offset: 0x2B352, size: 0x8, addend: 0x0, symName: __ZSt18make_exception_ptrB8ue170006INSt3__112future_errorEESt13exception_ptrT_, symObjAddr: 0xF3E4, symBinAddr: 0x100012B14, symSize: 0x88 }
  - { offsetInCU: 0x1D13A, offset: 0x2B389, size: 0x8, addend: 0x0, symName: __ZStneB8ue170006RKSt13exception_ptrS1_, symObjAddr: 0xF528, symBinAddr: 0x100012C58, symSize: 0x34 }
  - { offsetInCU: 0x1D176, offset: 0x2B3C5, size: 0x8, addend: 0x0, symName: __ZSteqB8ue170006RKSt13exception_ptrS1_, symObjAddr: 0xF590, symBinAddr: 0x100012CC0, symSize: 0x30 }
  - { offsetInCU: 0x1E157, offset: 0x2C3A6, size: 0x8, addend: 0x0, symName: __ZN5layer8split_upEv, symObjAddr: 0xB8C, symBinAddr: 0x1000058F4, symSize: 0xBC }
  - { offsetInCU: 0x1E17D, offset: 0x2C3CC, size: 0x8, addend: 0x0, symName: __ZZN5layer8split_upEvE17number_of_threads, symObjAddr: 0xE25F0, symBinAddr: 0x10002C0C8, symSize: 0x0 }
  - { offsetInCU: 0x1E45F, offset: 0x2C6AE, size: 0x8, addend: 0x0, symName: __ZNSt3__16vectorINS_6threadENS_9allocatorIS1_EEE26__swap_out_circular_bufferERNS_14__split_bufferIS1_RS3_EE, symObjAddr: 0x4FB8, symBinAddr: 0x1000095A0, symSize: 0x110 }
  - { offsetInCU: 0x1E6BF, offset: 0x2C90E, size: 0x8, addend: 0x0, symName: __ZNKSt3__16chrono15__duration_castINS0_8durationIxNS_5ratioILl1ELl1000000000EEEEENS2_IxNS3_ILl1ELl1000EEEEENS3_ILl1ELl1000000EEELb1ELb0EEclB8ue170006ERKS5_, symObjAddr: 0x7858, symBinAddr: 0x10000BE40, symSize: 0x4C }
  - { offsetInCU: 0x1E70B, offset: 0x2C95A, size: 0x8, addend: 0x0, symName: __ZNSt3__16vectorI6neuronNS_9allocatorIS1_EEE26__swap_out_circular_bufferERNS_14__split_bufferIS1_RS3_EE, symObjAddr: 0x9274, symBinAddr: 0x10000C9A4, symSize: 0x110 }
  - { offsetInCU: 0x1E79D, offset: 0x2C9EC, size: 0x8, addend: 0x0, symName: __ZNSt3__16vectorINS0_I6neuronNS_9allocatorIS1_EEEENS2_IS4_EEE26__swap_out_circular_bufferERNS_14__split_bufferIS4_RS5_EE, symObjAddr: 0xA79C, symBinAddr: 0x10000DECC, symSize: 0x110 }
  - { offsetInCU: 0x1EC6C, offset: 0x2CEBB, size: 0x8, addend: 0x0, symName: __ZNSt3__16vectorI5valueNS_9allocatorIS1_EEE26__swap_out_circular_bufferERNS_14__split_bufferIS1_RS3_EE, symObjAddr: 0xDDA0, symBinAddr: 0x1000114D0, symSize: 0x110 }
  - { offsetInCU: 0x1EDF3, offset: 0x2D042, size: 0x8, addend: 0x0, symName: __ZN5layer13forward_layerER11value_array, symObjAddr: 0xFBC, symBinAddr: 0x100005CD0, symSize: 0x324 }
  - { offsetInCU: 0x1EFC2, offset: 0x2D211, size: 0x8, addend: 0x0, symName: '__ZN10ThreadPool7enqueueIRZN5layer13forward_layerER11value_arrayE3$_0JNSt3__117reference_wrapperINS6_6vectorI6neuronNS6_9allocatorIS9_EEEEEEEEENS6_6futureIDTclfp_spfp0_EEEEOT_DpOT0_', symObjAddr: 0x1610, symBinAddr: 0x100006324, symSize: 0x114 }
  - { offsetInCU: 0x1F2B3, offset: 0x2D502, size: 0x8, addend: 0x0, symName: __ZNSt3__16vectorINS_6futureINS0_I5valueNS_9allocatorIS2_EEEEEENS3_IS6_EEE26__swap_out_circular_bufferERNS_14__split_bufferIS6_RS7_EE, symObjAddr: 0x14E1C, symBinAddr: 0x10001854C, symSize: 0x110 }
  - { offsetInCU: 0x1F345, offset: 0x2D594, size: 0x8, addend: 0x0, symName: __ZNSt3__16vectorINS0_I5valueNS_9allocatorIS1_EEEENS2_IS4_EEE26__swap_out_circular_bufferERNS_14__split_bufferIS4_RS5_EE, symObjAddr: 0x165B0, symBinAddr: 0x100019CE0, symSize: 0x110 }
  - { offsetInCU: 0x21176, offset: 0x2F3C5, size: 0x8, addend: 0x0, symName: __ZN10ThreadPoolC1Ev, symObjAddr: 0x0, symBinAddr: 0x100004E18, symSize: 0x2C }
  - { offsetInCU: 0x211A0, offset: 0x2F3EF, size: 0x8, addend: 0x0, symName: __ZN10ThreadPoolD1Ev, symObjAddr: 0x2C, symBinAddr: 0x100004E44, symSize: 0x2C }
  - { offsetInCU: 0x211C8, offset: 0x2F417, size: 0x8, addend: 0x0, symName: __ZN6neuronC2Ev, symObjAddr: 0x58, symBinAddr: 0x100004E70, symSize: 0x158 }
  - { offsetInCU: 0x211F2, offset: 0x2F441, size: 0x8, addend: 0x0, symName: __ZN6neuronC1Ev, symObjAddr: 0x208, symBinAddr: 0x100004FC8, symSize: 0x2C }
  - { offsetInCU: 0x2121C, offset: 0x2F46B, size: 0x8, addend: 0x0, symName: __ZN6neuronC2Em10activation, symObjAddr: 0x234, symBinAddr: 0x100004FF4, symSize: 0x1CC }
  - { offsetInCU: 0x21262, offset: 0x2F4B1, size: 0x8, addend: 0x0, symName: __ZN6neuronC1Em10activation, symObjAddr: 0x400, symBinAddr: 0x1000051C0, symSize: 0x3C }
  - { offsetInCU: 0x212A8, offset: 0x2F4F7, size: 0x8, addend: 0x0, symName: __ZN6neuron9set_inputER11value_array, symObjAddr: 0x43C, symBinAddr: 0x1000051FC, symSize: 0x74 }
  - { offsetInCU: 0x212DD, offset: 0x2F52C, size: 0x8, addend: 0x0, symName: __ZN6neuron7forwardEv, symObjAddr: 0x4B0, symBinAddr: 0x100005270, symSize: 0x228 }
  - { offsetInCU: 0x21305, offset: 0x2F554, size: 0x8, addend: 0x0, symName: __ZN6neuron13neuron_outputEv, symObjAddr: 0x6D8, symBinAddr: 0x100005498, symSize: 0x50 }
  - { offsetInCU: 0x2132C, offset: 0x2F57B, size: 0x8, addend: 0x0, symName: __ZN5layerC2Ev, symObjAddr: 0x728, symBinAddr: 0x1000054E8, symSize: 0x78 }
  - { offsetInCU: 0x21356, offset: 0x2F5A5, size: 0x8, addend: 0x0, symName: __ZNSt3__16vectorI6neuronNS_9allocatorIS1_EEEC1B8ue170006Ev, symObjAddr: 0x7A0, symBinAddr: 0x100005560, symSize: 0x2C }
  - { offsetInCU: 0x2137E, offset: 0x2F5CD, size: 0x8, addend: 0x0, symName: __ZNSt3__16vectorINS0_I6neuronNS_9allocatorIS1_EEEENS2_IS4_EEEC1B8ue170006Ev, symObjAddr: 0x7CC, symBinAddr: 0x10000558C, symSize: 0x2C }
  - { offsetInCU: 0x213A6, offset: 0x2F5F5, size: 0x8, addend: 0x0, symName: __ZN5layerC1Ev, symObjAddr: 0x850, symBinAddr: 0x1000055B8, symSize: 0x2C }
  - { offsetInCU: 0x213D0, offset: 0x2F61F, size: 0x8, addend: 0x0, symName: __ZN5layerC2Emm10activationb, symObjAddr: 0x87C, symBinAddr: 0x1000055E4, symSize: 0x310 }
  - { offsetInCU: 0x214B1, offset: 0x2F700, size: 0x8, addend: 0x0, symName: __ZNSt3__16vectorI6neuronNS_9allocatorIS1_EEE12emplace_backIJS1_EEERS1_DpOT_, symObjAddr: 0xC48, symBinAddr: 0x1000059B0, symSize: 0x74 }
  - { offsetInCU: 0x214F2, offset: 0x2F741, size: 0x8, addend: 0x0, symName: __ZNSt3__16vectorINS0_I6neuronNS_9allocatorIS1_EEEENS2_IS4_EEE9push_backB8ue170006EOS4_, symObjAddr: 0xCE8, symBinAddr: 0x100005A24, symSize: 0x6C }
  - { offsetInCU: 0x21528, offset: 0x2F777, size: 0x8, addend: 0x0, symName: __ZNSt3__16vectorI6neuronNS_9allocatorIS1_EEE7reserveEm, symObjAddr: 0xD7C, symBinAddr: 0x100005A90, symSize: 0xE8 }
  - { offsetInCU: 0x21584, offset: 0x2F7D3, size: 0x8, addend: 0x0, symName: __ZN5layerC1Emm10activationb, symObjAddr: 0xE64, symBinAddr: 0x100005B78, symSize: 0x58 }
  - { offsetInCU: 0x215E6, offset: 0x2F835, size: 0x8, addend: 0x0, symName: __ZN10ThreadPool10is_startedEv, symObjAddr: 0xEBC, symBinAddr: 0x100005BD0, symSize: 0x1C }
  - { offsetInCU: 0x2160A, offset: 0x2F859, size: 0x8, addend: 0x0, symName: __ZN10ThreadPool5startEv, symObjAddr: 0xED8, symBinAddr: 0x100005BEC, symSize: 0xE4 }
  - { offsetInCU: 0x21651, offset: 0x2F8A0, size: 0x8, addend: 0x0, symName: __ZNKSt3__16chrono8durationIxNS_5ratioILl1ELl1000EEEE5countB8ue170006Ev, symObjAddr: 0x1368, symBinAddr: 0x10000607C, symSize: 0x18 }
  - { offsetInCU: 0x21722, offset: 0x2F971, size: 0x8, addend: 0x0, symName: __ZNSt3__113basic_ostreamIcNS_11char_traitsIcEEElsB8ue170006EPFRS3_S4_E, symObjAddr: 0x1380, symBinAddr: 0x100006094, symSize: 0x2C }
  - { offsetInCU: 0x21754, offset: 0x2F9A3, size: 0x8, addend: 0x0, symName: __ZNSt3__16vectorINS_6futureINS0_I5valueNS_9allocatorIS2_EEEEEENS3_IS6_EEEC1B8ue170006Ev, symObjAddr: 0x13D4, symBinAddr: 0x1000060E8, symSize: 0x2C }
  - { offsetInCU: 0x2177C, offset: 0x2F9CB, size: 0x8, addend: 0x0, symName: __ZNSt3__16vectorINS0_I5valueNS_9allocatorIS1_EEEENS2_IS4_EEEC1B8ue170006Ev, symObjAddr: 0x1400, symBinAddr: 0x100006114, symSize: 0x2C }
  - { offsetInCU: 0x217A4, offset: 0x2F9F3, size: 0x8, addend: 0x0, symName: __ZNSt3__16vectorINS0_I6neuronNS_9allocatorIS1_EEEENS2_IS4_EEE5beginB8ue170006Ev, symObjAddr: 0x142C, symBinAddr: 0x100006140, symSize: 0x30 }
  - { offsetInCU: 0x217CB, offset: 0x2FA1A, size: 0x8, addend: 0x0, symName: __ZNSt3__16vectorINS0_I6neuronNS_9allocatorIS1_EEEENS2_IS4_EEE3endB8ue170006Ev, symObjAddr: 0x145C, symBinAddr: 0x100006170, symSize: 0x30 }
  - { offsetInCU: 0x217F2, offset: 0x2FA41, size: 0x8, addend: 0x0, symName: __ZNKSt3__111__wrap_iterIPNS_6vectorI6neuronNS_9allocatorIS2_EEEEEdeB8ue170006Ev, symObjAddr: 0x14C0, symBinAddr: 0x1000061D4, symSize: 0x18 }
  - { offsetInCU: 0x21816, offset: 0x2FA65, size: 0x8, addend: 0x0, symName: __ZNSt3__16vectorI6neuronNS_9allocatorIS1_EEE5beginB8ue170006Ev, symObjAddr: 0x14D8, symBinAddr: 0x1000061EC, symSize: 0x30 }
  - { offsetInCU: 0x2183D, offset: 0x2FA8C, size: 0x8, addend: 0x0, symName: __ZNSt3__16vectorI6neuronNS_9allocatorIS1_EEE3endB8ue170006Ev, symObjAddr: 0x1508, symBinAddr: 0x10000621C, symSize: 0x30 }
  - { offsetInCU: 0x21864, offset: 0x2FAB3, size: 0x8, addend: 0x0, symName: __ZNKSt3__111__wrap_iterIP6neuronEdeB8ue170006Ev, symObjAddr: 0x156C, symBinAddr: 0x100006280, symSize: 0x18 }
  - { offsetInCU: 0x21888, offset: 0x2FAD7, size: 0x8, addend: 0x0, symName: __ZNSt3__111__wrap_iterIP6neuronEppB8ue170006Ev, symObjAddr: 0x1584, symBinAddr: 0x100006298, symSize: 0x20 }
  - { offsetInCU: 0x218AC, offset: 0x2FAFB, size: 0x8, addend: 0x0, symName: __ZNSt3__16vectorINS_6futureINS0_I5valueNS_9allocatorIS2_EEEEEENS3_IS6_EEE9push_backB8ue170006EOS6_, symObjAddr: 0x15A4, symBinAddr: 0x1000062B8, symSize: 0x6C }
  - { offsetInCU: 0x218E2, offset: 0x2FB31, size: 0x8, addend: 0x0, symName: __ZNSt3__16futureINS_6vectorI5valueNS_9allocatorIS2_EEEEED1Ev, symObjAddr: 0x1750, symBinAddr: 0x100006464, symSize: 0x2C }
  - { offsetInCU: 0x2190D, offset: 0x2FB5C, size: 0x8, addend: 0x0, symName: __ZNSt3__111__wrap_iterIPNS_6vectorI6neuronNS_9allocatorIS2_EEEEEppB8ue170006Ev, symObjAddr: 0x177C, symBinAddr: 0x100006490, symSize: 0x20 }
  - { offsetInCU: 0x21931, offset: 0x2FB80, size: 0x8, addend: 0x0, symName: __ZNSt3__16vectorINS_6futureINS0_I5valueNS_9allocatorIS2_EEEEEENS3_IS6_EEE5beginB8ue170006Ev, symObjAddr: 0x179C, symBinAddr: 0x1000064B0, symSize: 0x30 }
  - { offsetInCU: 0x21958, offset: 0x2FBA7, size: 0x8, addend: 0x0, symName: __ZNSt3__16vectorINS_6futureINS0_I5valueNS_9allocatorIS2_EEEEEENS3_IS6_EEE3endB8ue170006Ev, symObjAddr: 0x17CC, symBinAddr: 0x1000064E0, symSize: 0x30 }
  - { offsetInCU: 0x2197F, offset: 0x2FBCE, size: 0x8, addend: 0x0, symName: __ZNKSt3__111__wrap_iterIPNS_6futureINS_6vectorI5valueNS_9allocatorIS3_EEEEEEEdeB8ue170006Ev, symObjAddr: 0x1830, symBinAddr: 0x100006544, symSize: 0x18 }
  - { offsetInCU: 0x219A3, offset: 0x2FBF2, size: 0x8, addend: 0x0, symName: __ZNSt3__16vectorINS0_I5valueNS_9allocatorIS1_EEEENS2_IS4_EEE9push_backB8ue170006EOS4_, symObjAddr: 0x1848, symBinAddr: 0x10000655C, symSize: 0x6C }
  - { offsetInCU: 0x219D9, offset: 0x2FC28, size: 0x8, addend: 0x0, symName: __ZNSt3__16futureINS_6vectorI5valueNS_9allocatorIS2_EEEEE3getEv, symObjAddr: 0x18B4, symBinAddr: 0x1000065C8, symSize: 0x80 }
  - { offsetInCU: 0x21A1E, offset: 0x2FC6D, size: 0x8, addend: 0x0, symName: __ZNSt3__111__wrap_iterIPNS_6futureINS_6vectorI5valueNS_9allocatorIS3_EEEEEEEppB8ue170006Ev, symObjAddr: 0x1960, symBinAddr: 0x100006648, symSize: 0x20 }
  - { offsetInCU: 0x21A42, offset: 0x2FC91, size: 0x8, addend: 0x0, symName: __ZNSt3__16vectorI5valueNS_9allocatorIS1_EEEC1B8ue170006Ev, symObjAddr: 0x1980, symBinAddr: 0x100006668, symSize: 0x2C }
  - { offsetInCU: 0x21A6A, offset: 0x2FCB9, size: 0x8, addend: 0x0, symName: __ZNSt3__16vectorI5valueNS_9allocatorIS1_EEE7reserveEm, symObjAddr: 0x19AC, symBinAddr: 0x100006694, symSize: 0xE8 }
  - { offsetInCU: 0x21AC6, offset: 0x2FD15, size: 0x8, addend: 0x0, symName: __ZNSt3__16vectorINS0_I5valueNS_9allocatorIS1_EEEENS2_IS4_EEE5beginB8ue170006Ev, symObjAddr: 0x1B00, symBinAddr: 0x1000067E8, symSize: 0x30 }
  - { offsetInCU: 0x21AED, offset: 0x2FD3C, size: 0x8, addend: 0x0, symName: __ZNSt3__16vectorINS0_I5valueNS_9allocatorIS1_EEEENS2_IS4_EEE3endB8ue170006Ev, symObjAddr: 0x1B30, symBinAddr: 0x100006818, symSize: 0x30 }
  - { offsetInCU: 0x21B14, offset: 0x2FD63, size: 0x8, addend: 0x0, symName: __ZNSt3__16vectorINS0_I5valueNS_9allocatorIS1_EEEENS2_IS4_EEED1B8ue170006Ev, symObjAddr: 0x1B60, symBinAddr: 0x100006848, symSize: 0x2C }
  - { offsetInCU: 0x21B3C, offset: 0x2FD8B, size: 0x8, addend: 0x0, symName: __ZNSt3__16vectorINS_6futureINS0_I5valueNS_9allocatorIS2_EEEEEENS3_IS6_EEED1B8ue170006Ev, symObjAddr: 0x1B8C, symBinAddr: 0x100006874, symSize: 0x2C }
  - { offsetInCU: 0x21B64, offset: 0x2FDB3, size: 0x8, addend: 0x0, symName: __ZN5layer20normal_forward_layerER11value_array, symObjAddr: 0x1BB8, symBinAddr: 0x1000068A0, symSize: 0xCC }
  - { offsetInCU: 0x21BDA, offset: 0x2FE29, size: 0x8, addend: 0x0, symName: __ZN5layer12layer_outputEv, symObjAddr: 0x1CF8, symBinAddr: 0x1000069E0, symSize: 0x18 }
  - { offsetInCU: 0x21D56, offset: 0x2FFA5, size: 0x8, addend: 0x0, symName: __ZN3MLPC2ESt16initializer_listIiES0_I10activationE, symObjAddr: 0x1D10, symBinAddr: 0x1000069F8, symSize: 0x3C }
  - { offsetInCU: 0x21D9C, offset: 0x2FFEB, size: 0x8, addend: 0x0, symName: __ZNSt3__16vectorI5layerNS_9allocatorIS1_EEEC1B8ue170006Ev, symObjAddr: 0x1D4C, symBinAddr: 0x100006A34, symSize: 0x2C }
  - { offsetInCU: 0x21DC4, offset: 0x30013, size: 0x8, addend: 0x0, symName: __ZN3MLPC1ESt16initializer_listIiES0_I10activationE, symObjAddr: 0x1D78, symBinAddr: 0x100006A60, symSize: 0x4C }
  - { offsetInCU: 0x21E0A, offset: 0x30059, size: 0x8, addend: 0x0, symName: __ZN10ThreadPoolC2Ev, symObjAddr: 0x1DC4, symBinAddr: 0x100006AAC, symSize: 0x58 }
  - { offsetInCU: 0x21E34, offset: 0x30083, size: 0x8, addend: 0x0, symName: __ZNSt3__16vectorINS_6threadENS_9allocatorIS1_EEEC1B8ue170006Ev, symObjAddr: 0x1E1C, symBinAddr: 0x100006B04, symSize: 0x2C }
  - { offsetInCU: 0x21E5C, offset: 0x300AB, size: 0x8, addend: 0x0, symName: __ZNSt3__15queueINS_8functionIFvvEEENS_5dequeIS3_NS_9allocatorIS3_EEEEEC1B8ue170006Ev, symObjAddr: 0x1E48, symBinAddr: 0x100006B30, symSize: 0x2C }
  - { offsetInCU: 0x21E84, offset: 0x300D3, size: 0x8, addend: 0x0, symName: __ZNSt3__15mutexC1B8ue170006Ev, symObjAddr: 0x1E74, symBinAddr: 0x100006B5C, symSize: 0x2C }
  - { offsetInCU: 0x21EAC, offset: 0x300FB, size: 0x8, addend: 0x0, symName: __ZNSt3__118condition_variableC1B8ue170006Ev, symObjAddr: 0x1EA0, symBinAddr: 0x100006B88, symSize: 0x2C }
  - { offsetInCU: 0x21ED4, offset: 0x30123, size: 0x8, addend: 0x0, symName: __ZNSt3__16vectorINS_6threadENS_9allocatorIS1_EEEC2B8ue170006Ev, symObjAddr: 0x1ECC, symBinAddr: 0x100006BB4, symSize: 0x4C }
  - { offsetInCU: 0x21F06, offset: 0x30155, size: 0x8, addend: 0x0, symName: __ZNSt3__117__compressed_pairIPNS_6threadENS_9allocatorIS1_EEEC1B8ue170006IDnNS_18__default_init_tagEEEOT_OT0_, symObjAddr: 0x1F18, symBinAddr: 0x100006C00, symSize: 0x3C }
  - { offsetInCU: 0x21F5C, offset: 0x301AB, size: 0x8, addend: 0x0, symName: __ZNSt3__117__compressed_pairIPNS_6threadENS_9allocatorIS1_EEEC2B8ue170006IDnNS_18__default_init_tagEEEOT_OT0_, symObjAddr: 0x1F60, symBinAddr: 0x100006C3C, symSize: 0x40 }
  - { offsetInCU: 0x21FB2, offset: 0x30201, size: 0x8, addend: 0x0, symName: __ZNSt3__122__compressed_pair_elemIPNS_6threadELi0ELb0EEC2B8ue170006IDnvEEOT_, symObjAddr: 0x1FA0, symBinAddr: 0x100006C7C, symSize: 0x1C }
  - { offsetInCU: 0x21FF2, offset: 0x30241, size: 0x8, addend: 0x0, symName: __ZNSt3__122__compressed_pair_elemINS_9allocatorINS_6threadEEELi1ELb1EEC2B8ue170006ENS_18__default_init_tagE, symObjAddr: 0x1FBC, symBinAddr: 0x100006C98, symSize: 0x2C }
  - { offsetInCU: 0x22025, offset: 0x30274, size: 0x8, addend: 0x0, symName: __ZNSt3__19allocatorINS_6threadEEC2B8ue170006Ev, symObjAddr: 0x1FE8, symBinAddr: 0x100006CC4, symSize: 0x2C }
  - { offsetInCU: 0x2204D, offset: 0x3029C, size: 0x8, addend: 0x0, symName: __ZNSt3__116__non_trivial_ifILb1ENS_9allocatorINS_6threadEEEEC2B8ue170006Ev, symObjAddr: 0x2014, symBinAddr: 0x100006CF0, symSize: 0x14 }
  - { offsetInCU: 0x22075, offset: 0x302C4, size: 0x8, addend: 0x0, symName: __ZNSt3__15queueINS_8functionIFvvEEENS_5dequeIS3_NS_9allocatorIS3_EEEEEC2B8ue170006Ev, symObjAddr: 0x2028, symBinAddr: 0x100006D04, symSize: 0x2C }
  - { offsetInCU: 0x2209D, offset: 0x302EC, size: 0x8, addend: 0x0, symName: __ZNSt3__15dequeINS_8functionIFvvEEENS_9allocatorIS3_EEEC1B8ue170006Ev, symObjAddr: 0x2054, symBinAddr: 0x100006D30, symSize: 0x2C }
  - { offsetInCU: 0x220C5, offset: 0x30314, size: 0x8, addend: 0x0, symName: __ZNSt3__15dequeINS_8functionIFvvEEENS_9allocatorIS3_EEEC2B8ue170006Ev, symObjAddr: 0x2080, symBinAddr: 0x100006D5C, symSize: 0x5C }
  - { offsetInCU: 0x220ED, offset: 0x3033C, size: 0x8, addend: 0x0, symName: __ZNSt3__114__split_bufferIPNS_8functionIFvvEEENS_9allocatorIS4_EEEC1B8ue170006Ev, symObjAddr: 0x20DC, symBinAddr: 0x100006DB8, symSize: 0x2C }
  - { offsetInCU: 0x2211A, offset: 0x30369, size: 0x8, addend: 0x0, symName: __ZNSt3__117__compressed_pairImNS_9allocatorINS_8functionIFvvEEEEEEC1B8ue170006IiNS_18__default_init_tagEEEOT_OT0_, symObjAddr: 0x2108, symBinAddr: 0x100006DE4, symSize: 0x3C }
  - { offsetInCU: 0x22170, offset: 0x303BF, size: 0x8, addend: 0x0, symName: __ZNKSt3__15dequeINS_8functionIFvvEEENS_9allocatorIS3_EEE14__annotate_newB8ue170006Em, symObjAddr: 0x2144, symBinAddr: 0x100006E20, symSize: 0xC8 }
  - { offsetInCU: 0x221A3, offset: 0x303F2, size: 0x8, addend: 0x0, symName: __ZNSt3__114__split_bufferIPNS_8functionIFvvEEENS_9allocatorIS4_EEEC2B8ue170006Ev, symObjAddr: 0x220C, symBinAddr: 0x100006EE8, symSize: 0x50 }
  - { offsetInCU: 0x221CB, offset: 0x3041A, size: 0x8, addend: 0x0, symName: __ZNSt3__117__compressed_pairIPPNS_8functionIFvvEEENS_9allocatorIS4_EEEC1B8ue170006IDnNS_18__default_init_tagEEEOT_OT0_, symObjAddr: 0x225C, symBinAddr: 0x100006F38, symSize: 0x3C }
  - { offsetInCU: 0x22221, offset: 0x30470, size: 0x8, addend: 0x0, symName: __ZNSt3__117__compressed_pairIPPNS_8functionIFvvEEENS_9allocatorIS4_EEEC2B8ue170006IDnNS_18__default_init_tagEEEOT_OT0_, symObjAddr: 0x2298, symBinAddr: 0x100006F74, symSize: 0x40 }
  - { offsetInCU: 0x22277, offset: 0x304C6, size: 0x8, addend: 0x0, symName: __ZNSt3__122__compressed_pair_elemIPPNS_8functionIFvvEEELi0ELb0EEC2B8ue170006IDnvEEOT_, symObjAddr: 0x22D8, symBinAddr: 0x100006FB4, symSize: 0x1C }
  - { offsetInCU: 0x222B7, offset: 0x30506, size: 0x8, addend: 0x0, symName: __ZNSt3__122__compressed_pair_elemINS_9allocatorIPNS_8functionIFvvEEEEELi1ELb1EEC2B8ue170006ENS_18__default_init_tagE, symObjAddr: 0x22F4, symBinAddr: 0x100006FD0, symSize: 0x2C }
  - { offsetInCU: 0x222EA, offset: 0x30539, size: 0x8, addend: 0x0, symName: __ZNSt3__19allocatorIPNS_8functionIFvvEEEEC2B8ue170006Ev, symObjAddr: 0x2320, symBinAddr: 0x100006FFC, symSize: 0x2C }
  - { offsetInCU: 0x22312, offset: 0x30561, size: 0x8, addend: 0x0, symName: __ZNSt3__116__non_trivial_ifILb1ENS_9allocatorIPNS_8functionIFvvEEEEEEC2B8ue170006Ev, symObjAddr: 0x234C, symBinAddr: 0x100007028, symSize: 0x14 }
  - { offsetInCU: 0x2233A, offset: 0x30589, size: 0x8, addend: 0x0, symName: __ZNSt3__117__compressed_pairImNS_9allocatorINS_8functionIFvvEEEEEEC2B8ue170006IiNS_18__default_init_tagEEEOT_OT0_, symObjAddr: 0x2360, symBinAddr: 0x10000703C, symSize: 0x40 }
  - { offsetInCU: 0x22390, offset: 0x305DF, size: 0x8, addend: 0x0, symName: __ZNSt3__122__compressed_pair_elemImLi0ELb0EEC2B8ue170006IivEEOT_, symObjAddr: 0x23A0, symBinAddr: 0x10000707C, symSize: 0x24 }
  - { offsetInCU: 0x223D0, offset: 0x3061F, size: 0x8, addend: 0x0, symName: __ZNSt3__122__compressed_pair_elemINS_9allocatorINS_8functionIFvvEEEEELi1ELb1EEC2B8ue170006ENS_18__default_init_tagE, symObjAddr: 0x23C4, symBinAddr: 0x1000070A0, symSize: 0x2C }
  - { offsetInCU: 0x22403, offset: 0x30652, size: 0x8, addend: 0x0, symName: __ZNSt3__19allocatorINS_8functionIFvvEEEEC2B8ue170006Ev, symObjAddr: 0x23F0, symBinAddr: 0x1000070CC, symSize: 0x2C }
  - { offsetInCU: 0x2242B, offset: 0x3067A, size: 0x8, addend: 0x0, symName: __ZNSt3__116__non_trivial_ifILb1ENS_9allocatorINS_8functionIFvvEEEEEEC2B8ue170006Ev, symObjAddr: 0x241C, symBinAddr: 0x1000070F8, symSize: 0x14 }
  - { offsetInCU: 0x22453, offset: 0x306A2, size: 0x8, addend: 0x0, symName: __ZNKSt3__15dequeINS_8functionIFvvEEENS_9allocatorIS3_EEE18__annotate_from_toB8ue170006EmmNS6_22__asan_annotation_typeENS6_23__asan_annotation_placeE, symObjAddr: 0x2430, symBinAddr: 0x10000710C, symSize: 0x580 }
  - { offsetInCU: 0x2260D, offset: 0x3085C, size: 0x8, addend: 0x0, symName: __ZNKSt3__114__split_bufferIPNS_8functionIFvvEEENS_9allocatorIS4_EEE4sizeB8ue170006Ev, symObjAddr: 0x29B0, symBinAddr: 0x10000768C, symSize: 0x28 }
  - { offsetInCU: 0x22631, offset: 0x30880, size: 0x8, addend: 0x0, symName: __ZNKSt3__114__split_bufferIPNS_8functionIFvvEEENS_9allocatorIS4_EEE5beginB8ue170006Ev, symObjAddr: 0x29D8, symBinAddr: 0x1000076B4, symSize: 0x18 }
  - { offsetInCU: 0x22655, offset: 0x308A4, size: 0x8, addend: 0x0, symName: __ZNKSt3__15dequeINS_8functionIFvvEEENS_9allocatorIS3_EEE4sizeB8ue170006Ev, symObjAddr: 0x29F0, symBinAddr: 0x1000076CC, symSize: 0x28 }
  - { offsetInCU: 0x22679, offset: 0x308C8, size: 0x8, addend: 0x0, symName: __ZNKSt3__15dequeINS_8functionIFvvEEENS_9allocatorIS3_EEE5emptyB8ue170006Ev, symObjAddr: 0x2A18, symBinAddr: 0x1000076F4, symSize: 0x30 }
  - { offsetInCU: 0x2269D, offset: 0x308EC, size: 0x8, addend: 0x0, symName: __ZNKSt3__15dequeINS_8functionIFvvEEENS_9allocatorIS3_EEE44__annotate_double_ended_contiguous_containerB8ue170006EPKvS8_S8_S8_S8_S8_, symObjAddr: 0x2A5C, symBinAddr: 0x100007738, symSize: 0x28 }
  - { offsetInCU: 0x22703, offset: 0x30952, size: 0x8, addend: 0x0, symName: __ZNKSt3__15dequeINS_8functionIFvvEEENS_9allocatorIS3_EEE6__sizeB8ue170006Ev, symObjAddr: 0x2A84, symBinAddr: 0x100007760, symSize: 0x28 }
  - { offsetInCU: 0x22727, offset: 0x30976, size: 0x8, addend: 0x0, symName: __ZNKSt3__117__compressed_pairImNS_9allocatorINS_8functionIFvvEEEEEE5firstB8ue170006Ev, symObjAddr: 0x2AAC, symBinAddr: 0x100007788, symSize: 0x24 }
  - { offsetInCU: 0x2274B, offset: 0x3099A, size: 0x8, addend: 0x0, symName: __ZNKSt3__122__compressed_pair_elemImLi0ELb0EE5__getB8ue170006Ev, symObjAddr: 0x2AD0, symBinAddr: 0x1000077AC, symSize: 0x14 }
  - { offsetInCU: 0x2276F, offset: 0x309BE, size: 0x8, addend: 0x0, symName: __ZNSt3__15mutexC2B8ue170006Ev, symObjAddr: 0x2AE4, symBinAddr: 0x1000077C0, symSize: 0x44 }
  - { offsetInCU: 0x22797, offset: 0x309E6, size: 0x8, addend: 0x0, symName: __ZNSt3__118condition_variableC2B8ue170006Ev, symObjAddr: 0x2B28, symBinAddr: 0x100007804, symSize: 0x44 }
  - { offsetInCU: 0x227BF, offset: 0x30A0E, size: 0x8, addend: 0x0, symName: __ZN10ThreadPoolD2Ev, symObjAddr: 0x2B6C, symBinAddr: 0x100007848, symSize: 0xF8 }
  - { offsetInCU: 0x2284D, offset: 0x30A9C, size: 0x8, addend: 0x0, symName: __ZNSt3__111unique_lockINS_5mutexEEC1B8ue170006ERS1_, symObjAddr: 0x2C64, symBinAddr: 0x100007940, symSize: 0x34 }
  - { offsetInCU: 0x22883, offset: 0x30AD2, size: 0x8, addend: 0x0, symName: __ZNSt3__111unique_lockINS_5mutexEED1B8ue170006Ev, symObjAddr: 0x2C98, symBinAddr: 0x100007974, symSize: 0x2C }
  - { offsetInCU: 0x228AB, offset: 0x30AFA, size: 0x8, addend: 0x0, symName: __ZNSt3__16vectorINS_6threadENS_9allocatorIS1_EEE5beginB8ue170006Ev, symObjAddr: 0x2CC4, symBinAddr: 0x1000079A0, symSize: 0x30 }
  - { offsetInCU: 0x228D2, offset: 0x30B21, size: 0x8, addend: 0x0, symName: __ZNSt3__16vectorINS_6threadENS_9allocatorIS1_EEE3endB8ue170006Ev, symObjAddr: 0x2CF4, symBinAddr: 0x1000079D0, symSize: 0x30 }
  - { offsetInCU: 0x228F9, offset: 0x30B48, size: 0x8, addend: 0x0, symName: __ZNKSt3__111__wrap_iterIPNS_6threadEEdeB8ue170006Ev, symObjAddr: 0x2D58, symBinAddr: 0x100007A34, symSize: 0x18 }
  - { offsetInCU: 0x2291D, offset: 0x30B6C, size: 0x8, addend: 0x0, symName: __ZNSt3__111__wrap_iterIPNS_6threadEEppB8ue170006Ev, symObjAddr: 0x2D70, symBinAddr: 0x100007A4C, symSize: 0x20 }
  - { offsetInCU: 0x22941, offset: 0x30B90, size: 0x8, addend: 0x0, symName: __ZNSt3__15queueINS_8functionIFvvEEENS_5dequeIS3_NS_9allocatorIS3_EEEEED1Ev, symObjAddr: 0x2D90, symBinAddr: 0x100007A6C, symSize: 0x2C }
  - { offsetInCU: 0x2296D, offset: 0x30BBC, size: 0x8, addend: 0x0, symName: __ZNSt3__16vectorINS_6threadENS_9allocatorIS1_EEED1B8ue170006Ev, symObjAddr: 0x2DBC, symBinAddr: 0x100007A98, symSize: 0x2C }
  - { offsetInCU: 0x22995, offset: 0x30BE4, size: 0x8, addend: 0x0, symName: __ZNSt3__111unique_lockINS_5mutexEEC2B8ue170006ERS1_, symObjAddr: 0x2DE8, symBinAddr: 0x100007AC4, symSize: 0x44 }
  - { offsetInCU: 0x229CB, offset: 0x30C1A, size: 0x8, addend: 0x0, symName: __ZNSt3__111unique_lockINS_5mutexEED2B8ue170006Ev, symObjAddr: 0x2E2C, symBinAddr: 0x100007B08, symSize: 0x4C }
  - { offsetInCU: 0x229F3, offset: 0x30C42, size: 0x8, addend: 0x0, symName: __ZNSt3__16vectorINS_6threadENS_9allocatorIS1_EEE11__make_iterB8ue170006EPS1_, symObjAddr: 0x2E78, symBinAddr: 0x100007B54, symSize: 0x30 }
  - { offsetInCU: 0x22A26, offset: 0x30C75, size: 0x8, addend: 0x0, symName: __ZNSt3__111__wrap_iterIPNS_6threadEEC1B8ue170006ES2_, symObjAddr: 0x2EA8, symBinAddr: 0x100007B84, symSize: 0x34 }
  - { offsetInCU: 0x22A5C, offset: 0x30CAB, size: 0x8, addend: 0x0, symName: __ZNSt3__111__wrap_iterIPNS_6threadEEC2B8ue170006ES2_, symObjAddr: 0x2EDC, symBinAddr: 0x100007BB8, symSize: 0x20 }
  - { offsetInCU: 0x22A92, offset: 0x30CE1, size: 0x8, addend: 0x0, symName: __ZNKSt3__111__wrap_iterIPNS_6threadEE4baseB8ue170006Ev, symObjAddr: 0x2F44, symBinAddr: 0x100007C20, symSize: 0x18 }
  - { offsetInCU: 0x22AB6, offset: 0x30D05, size: 0x8, addend: 0x0, symName: __ZNSt3__15queueINS_8functionIFvvEEENS_5dequeIS3_NS_9allocatorIS3_EEEEED2Ev, symObjAddr: 0x2F5C, symBinAddr: 0x100007C38, symSize: 0x2C }
  - { offsetInCU: 0x22AE2, offset: 0x30D31, size: 0x8, addend: 0x0, symName: __ZNSt3__15dequeINS_8functionIFvvEEENS_9allocatorIS3_EEED1B8ue170006Ev, symObjAddr: 0x2F88, symBinAddr: 0x100007C64, symSize: 0x2C }
  - { offsetInCU: 0x22B0A, offset: 0x30D59, size: 0x8, addend: 0x0, symName: __ZNSt3__15dequeINS_8functionIFvvEEENS_9allocatorIS3_EEED2B8ue170006Ev, symObjAddr: 0x2FB4, symBinAddr: 0x100007C90, symSize: 0xA4 }
  - { offsetInCU: 0x22B5E, offset: 0x30DAD, size: 0x8, addend: 0x0, symName: __ZNSt3__15dequeINS_8functionIFvvEEENS_9allocatorIS3_EEE5clearEv, symObjAddr: 0x3058, symBinAddr: 0x100007D34, symSize: 0x180 }
  - { offsetInCU: 0x22BB9, offset: 0x30E08, size: 0x8, addend: 0x0, symName: __ZNKSt3__15dequeINS_8functionIFvvEEENS_9allocatorIS3_EEE17__annotate_deleteB8ue170006Ev, symObjAddr: 0x31D8, symBinAddr: 0x100007EB4, symSize: 0xE8 }
  - { offsetInCU: 0x22BFA, offset: 0x30E49, size: 0x8, addend: 0x0, symName: __ZNSt3__114__split_bufferIPNS_8functionIFvvEEENS_9allocatorIS4_EEE5beginB8ue170006Ev, symObjAddr: 0x32C0, symBinAddr: 0x100007F9C, symSize: 0x18 }
  - { offsetInCU: 0x22C1E, offset: 0x30E6D, size: 0x8, addend: 0x0, symName: __ZNSt3__114__split_bufferIPNS_8functionIFvvEEENS_9allocatorIS4_EEE3endB8ue170006Ev, symObjAddr: 0x32D8, symBinAddr: 0x100007FB4, symSize: 0x18 }
  - { offsetInCU: 0x22C42, offset: 0x30E91, size: 0x8, addend: 0x0, symName: __ZNSt3__116allocator_traitsINS_9allocatorINS_8functionIFvvEEEEEE10deallocateB8ue170006ERS5_PS4_m, symObjAddr: 0x32F0, symBinAddr: 0x100007FCC, symSize: 0x34 }
  - { offsetInCU: 0x22C83, offset: 0x30ED2, size: 0x8, addend: 0x0, symName: __ZNSt3__15dequeINS_8functionIFvvEEENS_9allocatorIS3_EEE7__allocB8ue170006Ev, symObjAddr: 0x3324, symBinAddr: 0x100008000, symSize: 0x28 }
  - { offsetInCU: 0x22CA7, offset: 0x30EF6, size: 0x8, addend: 0x0, symName: __ZNSt3__114__split_bufferIPNS_8functionIFvvEEENS_9allocatorIS4_EEED1Ev, symObjAddr: 0x334C, symBinAddr: 0x100008028, symSize: 0x2C }
  - { offsetInCU: 0x22CD2, offset: 0x30F21, size: 0x8, addend: 0x0, symName: __ZNSt3__15dequeINS_8functionIFvvEEENS_9allocatorIS3_EEE5beginB8ue170006Ev, symObjAddr: 0x3378, symBinAddr: 0x100008054, symSize: 0xB8 }
  - { offsetInCU: 0x22D05, offset: 0x30F54, size: 0x8, addend: 0x0, symName: __ZNSt3__15dequeINS_8functionIFvvEEENS_9allocatorIS3_EEE3endB8ue170006Ev, symObjAddr: 0x3430, symBinAddr: 0x10000810C, symSize: 0xBC }
  - { offsetInCU: 0x22D47, offset: 0x30F96, size: 0x8, addend: 0x0, symName: __ZNSt3__116allocator_traitsINS_9allocatorINS_8functionIFvvEEEEEE7destroyB8ue170006IS4_vEEvRS5_PT_, symObjAddr: 0x3520, symBinAddr: 0x1000081FC, symSize: 0x2C }
  - { offsetInCU: 0x22D83, offset: 0x30FD2, size: 0x8, addend: 0x0, symName: __ZNKSt3__116__deque_iteratorINS_8functionIFvvEEEPS3_RS3_PS4_lLl128EEdeB8ue170006Ev, symObjAddr: 0x354C, symBinAddr: 0x100008228, symSize: 0x18 }
  - { offsetInCU: 0x22DA7, offset: 0x30FF6, size: 0x8, addend: 0x0, symName: __ZNSt3__116__deque_iteratorINS_8functionIFvvEEEPS3_RS3_PS4_lLl128EEppB8ue170006Ev, symObjAddr: 0x3564, symBinAddr: 0x100008240, symSize: 0x70 }
  - { offsetInCU: 0x22DCB, offset: 0x3101A, size: 0x8, addend: 0x0, symName: __ZNSt3__15dequeINS_8functionIFvvEEENS_9allocatorIS3_EEE6__sizeB8ue170006Ev, symObjAddr: 0x35D4, symBinAddr: 0x1000082B0, symSize: 0x28 }
  - { offsetInCU: 0x22DEF, offset: 0x3103E, size: 0x8, addend: 0x0, symName: __ZNSt3__114__split_bufferIPNS_8functionIFvvEEENS_9allocatorIS4_EEE5frontB8ue170006Ev, symObjAddr: 0x35FC, symBinAddr: 0x1000082D8, symSize: 0x18 }
  - { offsetInCU: 0x22E13, offset: 0x31062, size: 0x8, addend: 0x0, symName: __ZNSt3__114__split_bufferIPNS_8functionIFvvEEENS_9allocatorIS4_EEE9pop_frontB8ue170006Ev, symObjAddr: 0x3614, symBinAddr: 0x1000082F0, symSize: 0x2C }
  - { offsetInCU: 0x22E37, offset: 0x31086, size: 0x8, addend: 0x0, symName: __ZNKSt3__114__split_bufferIPNS_8functionIFvvEEENS_9allocatorIS4_EEE5emptyB8ue170006Ev, symObjAddr: 0x3640, symBinAddr: 0x10000831C, symSize: 0x28 }
  - { offsetInCU: 0x22E5B, offset: 0x310AA, size: 0x8, addend: 0x0, symName: __ZNSt3__116__deque_iteratorINS_8functionIFvvEEEPS3_RS3_PS4_lLl128EEC1B8ue170006ES6_S4_, symObjAddr: 0x3668, symBinAddr: 0x100008344, symSize: 0x3C }
  - { offsetInCU: 0x22EA1, offset: 0x310F0, size: 0x8, addend: 0x0, symName: __ZNSt3__116__deque_iteratorINS_8functionIFvvEEEPS3_RS3_PS4_lLl128EEC2B8ue170006ES6_S4_, symObjAddr: 0x36A4, symBinAddr: 0x100008380, symSize: 0x2C }
  - { offsetInCU: 0x22EE7, offset: 0x31136, size: 0x8, addend: 0x0, symName: __ZNSt3__19allocatorINS_8functionIFvvEEEE7destroyB8ue170006EPS3_, symObjAddr: 0x3700, symBinAddr: 0x1000083DC, symSize: 0x28 }
  - { offsetInCU: 0x22F19, offset: 0x31168, size: 0x8, addend: 0x0, symName: __ZNSt3__18functionIFvvEED1Ev, symObjAddr: 0x3728, symBinAddr: 0x100008404, symSize: 0x2C }
  - { offsetInCU: 0x22F44, offset: 0x31193, size: 0x8, addend: 0x0, symName: __ZNSt3__18functionIFvvEED2Ev, symObjAddr: 0x3754, symBinAddr: 0x100008430, symSize: 0x2C }
  - { offsetInCU: 0x22F6F, offset: 0x311BE, size: 0x8, addend: 0x0, symName: __ZNSt3__110__function12__value_funcIFvvEED1B8ue170006Ev, symObjAddr: 0x3780, symBinAddr: 0x10000845C, symSize: 0x2C }
  - { offsetInCU: 0x22F97, offset: 0x311E6, size: 0x8, addend: 0x0, symName: __ZNSt3__110__function12__value_funcIFvvEED2B8ue170006Ev, symObjAddr: 0x37AC, symBinAddr: 0x100008488, symSize: 0x90 }
  - { offsetInCU: 0x22FBF, offset: 0x3120E, size: 0x8, addend: 0x0, symName: __ZNSt3__117__compressed_pairImNS_9allocatorINS_8functionIFvvEEEEEE5firstB8ue170006Ev, symObjAddr: 0x383C, symBinAddr: 0x100008518, symSize: 0x24 }
  - { offsetInCU: 0x22FE3, offset: 0x31232, size: 0x8, addend: 0x0, symName: __ZNSt3__122__compressed_pair_elemImLi0ELb0EE5__getB8ue170006Ev, symObjAddr: 0x3860, symBinAddr: 0x10000853C, symSize: 0x14 }
  - { offsetInCU: 0x23007, offset: 0x31256, size: 0x8, addend: 0x0, symName: __ZNSt3__114__split_bufferIPNS_8functionIFvvEEENS_9allocatorIS4_EEE19__destruct_at_beginB8ue170006EPS4_, symObjAddr: 0x3874, symBinAddr: 0x100008550, symSize: 0x2C }
  - { offsetInCU: 0x23039, offset: 0x31288, size: 0x8, addend: 0x0, symName: __ZNSt3__114__split_bufferIPNS_8functionIFvvEEENS_9allocatorIS4_EEE19__destruct_at_beginEPS4_NS_17integral_constantIbLb1EEE, symObjAddr: 0x38A0, symBinAddr: 0x10000857C, symSize: 0x20 }
  - { offsetInCU: 0x23079, offset: 0x312C8, size: 0x8, addend: 0x0, symName: __ZNKSt3__15dequeINS_8functionIFvvEEENS_9allocatorIS3_EEE22__annotate_whole_blockB8ue170006EmNS6_22__asan_annotation_typeE, symObjAddr: 0x38C0, symBinAddr: 0x10000859C, symSize: 0xAC }
  - { offsetInCU: 0x230E8, offset: 0x31337, size: 0x8, addend: 0x0, symName: __ZNKSt3__15dequeINS_8functionIFvvEEENS_9allocatorIS3_EEE23__annotate_poison_blockB8ue170006EPKvS8_, symObjAddr: 0x396C, symBinAddr: 0x100008648, symSize: 0x44 }
  - { offsetInCU: 0x2312A, offset: 0x31379, size: 0x8, addend: 0x0, symName: __ZNSt3__19allocatorINS_8functionIFvvEEEE10deallocateB8ue170006EPS3_m, symObjAddr: 0x39B0, symBinAddr: 0x10000868C, symSize: 0x40 }
  - { offsetInCU: 0x2316A, offset: 0x313B9, size: 0x8, addend: 0x0, symName: __ZNSt3__117__compressed_pairImNS_9allocatorINS_8functionIFvvEEEEEE6secondB8ue170006Ev, symObjAddr: 0x3B18, symBinAddr: 0x1000086CC, symSize: 0x24 }
  - { offsetInCU: 0x2318E, offset: 0x313DD, size: 0x8, addend: 0x0, symName: __ZNSt3__122__compressed_pair_elemINS_9allocatorINS_8functionIFvvEEEEELi1ELb1EE5__getB8ue170006Ev, symObjAddr: 0x3B3C, symBinAddr: 0x1000086F0, symSize: 0x14 }
  - { offsetInCU: 0x231B2, offset: 0x31401, size: 0x8, addend: 0x0, symName: __ZNSt3__114__split_bufferIPNS_8functionIFvvEEENS_9allocatorIS4_EEED2Ev, symObjAddr: 0x3B50, symBinAddr: 0x100008704, symSize: 0x8C }
  - { offsetInCU: 0x231DD, offset: 0x3142C, size: 0x8, addend: 0x0, symName: __ZNSt3__114__split_bufferIPNS_8functionIFvvEEENS_9allocatorIS4_EEE5clearB8ue170006Ev, symObjAddr: 0x3BDC, symBinAddr: 0x100008790, symSize: 0x28 }
  - { offsetInCU: 0x23201, offset: 0x31450, size: 0x8, addend: 0x0, symName: __ZNSt3__116allocator_traitsINS_9allocatorIPNS_8functionIFvvEEEEEE10deallocateB8ue170006ERS6_PS5_m, symObjAddr: 0x3C04, symBinAddr: 0x1000087B8, symSize: 0x34 }
  - { offsetInCU: 0x23242, offset: 0x31491, size: 0x8, addend: 0x0, symName: __ZNSt3__114__split_bufferIPNS_8functionIFvvEEENS_9allocatorIS4_EEE7__allocB8ue170006Ev, symObjAddr: 0x3C38, symBinAddr: 0x1000087EC, symSize: 0x28 }
  - { offsetInCU: 0x23266, offset: 0x314B5, size: 0x8, addend: 0x0, symName: __ZNKSt3__114__split_bufferIPNS_8functionIFvvEEENS_9allocatorIS4_EEE8capacityB8ue170006Ev, symObjAddr: 0x3C60, symBinAddr: 0x100008814, symSize: 0x40 }
  - { offsetInCU: 0x2328A, offset: 0x314D9, size: 0x8, addend: 0x0, symName: __ZNSt3__114__split_bufferIPNS_8functionIFvvEEENS_9allocatorIS4_EEE17__destruct_at_endB8ue170006EPS4_, symObjAddr: 0x3CA0, symBinAddr: 0x100008854, symSize: 0x2C }
  - { offsetInCU: 0x232BC, offset: 0x3150B, size: 0x8, addend: 0x0, symName: __ZNSt3__114__split_bufferIPNS_8functionIFvvEEENS_9allocatorIS4_EEE17__destruct_at_endB8ue170006EPS4_NS_17integral_constantIbLb0EEE, symObjAddr: 0x3CCC, symBinAddr: 0x100008880, symSize: 0x80 }
  - { offsetInCU: 0x232FC, offset: 0x3154B, size: 0x8, addend: 0x0, symName: __ZNSt3__116allocator_traitsINS_9allocatorIPNS_8functionIFvvEEEEEE7destroyB8ue170006IS5_vEEvRS6_PT_, symObjAddr: 0x3D4C, symBinAddr: 0x100008900, symSize: 0x2C }
  - { offsetInCU: 0x23338, offset: 0x31587, size: 0x8, addend: 0x0, symName: __ZNSt3__19allocatorIPNS_8functionIFvvEEEE7destroyB8ue170006EPS4_, symObjAddr: 0x3D8C, symBinAddr: 0x100008940, symSize: 0x14 }
  - { offsetInCU: 0x2336A, offset: 0x315B9, size: 0x8, addend: 0x0, symName: __ZNSt3__19allocatorIPNS_8functionIFvvEEEE10deallocateB8ue170006EPS4_m, symObjAddr: 0x3DA0, symBinAddr: 0x100008954, symSize: 0x40 }
  - { offsetInCU: 0x233AA, offset: 0x315F9, size: 0x8, addend: 0x0, symName: __ZNSt3__117__compressed_pairIPPNS_8functionIFvvEEENS_9allocatorIS4_EEE6secondB8ue170006Ev, symObjAddr: 0x3DE0, symBinAddr: 0x100008994, symSize: 0x24 }
  - { offsetInCU: 0x233CE, offset: 0x3161D, size: 0x8, addend: 0x0, symName: __ZNSt3__122__compressed_pair_elemINS_9allocatorIPNS_8functionIFvvEEEEELi1ELb1EE5__getB8ue170006Ev, symObjAddr: 0x3E04, symBinAddr: 0x1000089B8, symSize: 0x14 }
  - { offsetInCU: 0x233F2, offset: 0x31641, size: 0x8, addend: 0x0, symName: __ZNKSt3__114__split_bufferIPNS_8functionIFvvEEENS_9allocatorIS4_EEE9__end_capB8ue170006Ev, symObjAddr: 0x3E18, symBinAddr: 0x1000089CC, symSize: 0x28 }
  - { offsetInCU: 0x23416, offset: 0x31665, size: 0x8, addend: 0x0, symName: __ZNKSt3__117__compressed_pairIPPNS_8functionIFvvEEENS_9allocatorIS4_EEE5firstB8ue170006Ev, symObjAddr: 0x3E40, symBinAddr: 0x1000089F4, symSize: 0x24 }
  - { offsetInCU: 0x2343A, offset: 0x31689, size: 0x8, addend: 0x0, symName: __ZNKSt3__122__compressed_pair_elemIPPNS_8functionIFvvEEELi0ELb0EE5__getB8ue170006Ev, symObjAddr: 0x3E64, symBinAddr: 0x100008A18, symSize: 0x14 }
  - { offsetInCU: 0x2345E, offset: 0x316AD, size: 0x8, addend: 0x0, symName: __ZNSt3__16vectorINS_6threadENS_9allocatorIS1_EEED2B8ue170006Ev, symObjAddr: 0x3E78, symBinAddr: 0x100008A2C, symSize: 0x44 }
  - { offsetInCU: 0x23486, offset: 0x316D5, size: 0x8, addend: 0x0, symName: __ZNSt3__16vectorINS_6threadENS_9allocatorIS1_EEE16__destroy_vectorC1B8ue170006ERS4_, symObjAddr: 0x3EBC, symBinAddr: 0x100008A70, symSize: 0x34 }
  - { offsetInCU: 0x234BD, offset: 0x3170C, size: 0x8, addend: 0x0, symName: __ZNSt3__16vectorINS_6threadENS_9allocatorIS1_EEE16__destroy_vectorclB8ue170006Ev, symObjAddr: 0x3EF0, symBinAddr: 0x100008AA4, symSize: 0x90 }
  - { offsetInCU: 0x234E1, offset: 0x31730, size: 0x8, addend: 0x0, symName: __ZNSt3__16vectorINS_6threadENS_9allocatorIS1_EEE16__destroy_vectorC2B8ue170006ERS4_, symObjAddr: 0x3F80, symBinAddr: 0x100008B34, symSize: 0x20 }
  - { offsetInCU: 0x23518, offset: 0x31767, size: 0x8, addend: 0x0, symName: __ZNSt3__16vectorINS_6threadENS_9allocatorIS1_EEE7__clearB8ue170006Ev, symObjAddr: 0x3FA0, symBinAddr: 0x100008B54, symSize: 0x28 }
  - { offsetInCU: 0x2353C, offset: 0x3178B, size: 0x8, addend: 0x0, symName: __ZNKSt3__16vectorINS_6threadENS_9allocatorIS1_EEE17__annotate_deleteB8ue170006Ev, symObjAddr: 0x3FC8, symBinAddr: 0x100008B7C, symSize: 0xB8 }
  - { offsetInCU: 0x23560, offset: 0x317AF, size: 0x8, addend: 0x0, symName: __ZNSt3__116allocator_traitsINS_9allocatorINS_6threadEEEE10deallocateB8ue170006ERS3_PS2_m, symObjAddr: 0x4080, symBinAddr: 0x100008C34, symSize: 0x34 }
  - { offsetInCU: 0x235A1, offset: 0x317F0, size: 0x8, addend: 0x0, symName: __ZNSt3__16vectorINS_6threadENS_9allocatorIS1_EEE7__allocB8ue170006Ev, symObjAddr: 0x40B4, symBinAddr: 0x100008C68, symSize: 0x28 }
  - { offsetInCU: 0x235C5, offset: 0x31814, size: 0x8, addend: 0x0, symName: __ZNKSt3__16vectorINS_6threadENS_9allocatorIS1_EEE8capacityB8ue170006Ev, symObjAddr: 0x40DC, symBinAddr: 0x100008C90, symSize: 0x40 }
  - { offsetInCU: 0x235E9, offset: 0x31838, size: 0x8, addend: 0x0, symName: __ZNSt3__16vectorINS_6threadENS_9allocatorIS1_EEE22__base_destruct_at_endB8ue170006EPS1_, symObjAddr: 0x411C, symBinAddr: 0x100008CD0, symSize: 0x8C }
  - { offsetInCU: 0x2362B, offset: 0x3187A, size: 0x8, addend: 0x0, symName: __ZNSt3__116allocator_traitsINS_9allocatorINS_6threadEEEE7destroyB8ue170006IS2_vEEvRS3_PT_, symObjAddr: 0x41A8, symBinAddr: 0x100008D5C, symSize: 0x2C }
  - { offsetInCU: 0x23667, offset: 0x318B6, size: 0x8, addend: 0x0, symName: __ZNSt3__19allocatorINS_6threadEE7destroyB8ue170006EPS1_, symObjAddr: 0x41E8, symBinAddr: 0x100008D9C, symSize: 0x28 }
  - { offsetInCU: 0x23699, offset: 0x318E8, size: 0x8, addend: 0x0, symName: __ZNKSt3__16vectorINS_6threadENS_9allocatorIS1_EEE31__annotate_contiguous_containerB8ue170006EPKvS6_S6_S6_, symObjAddr: 0x4210, symBinAddr: 0x100008DC4, symSize: 0x20 }
  - { offsetInCU: 0x236E9, offset: 0x31938, size: 0x8, addend: 0x0, symName: __ZNKSt3__16vectorINS_6threadENS_9allocatorIS1_EEE4dataB8ue170006Ev, symObjAddr: 0x4230, symBinAddr: 0x100008DE4, symSize: 0x28 }
  - { offsetInCU: 0x2370D, offset: 0x3195C, size: 0x8, addend: 0x0, symName: __ZNKSt3__16vectorINS_6threadENS_9allocatorIS1_EEE4sizeB8ue170006Ev, symObjAddr: 0x4258, symBinAddr: 0x100008E0C, symSize: 0x28 }
  - { offsetInCU: 0x23731, offset: 0x31980, size: 0x8, addend: 0x0, symName: __ZNSt3__19allocatorINS_6threadEE10deallocateB8ue170006EPS1_m, symObjAddr: 0x4280, symBinAddr: 0x100008E34, symSize: 0x40 }
  - { offsetInCU: 0x23771, offset: 0x319C0, size: 0x8, addend: 0x0, symName: __ZNSt3__117__compressed_pairIPNS_6threadENS_9allocatorIS1_EEE6secondB8ue170006Ev, symObjAddr: 0x42C0, symBinAddr: 0x100008E74, symSize: 0x24 }
  - { offsetInCU: 0x23795, offset: 0x319E4, size: 0x8, addend: 0x0, symName: __ZNSt3__122__compressed_pair_elemINS_9allocatorINS_6threadEEELi1ELb1EE5__getB8ue170006Ev, symObjAddr: 0x42E4, symBinAddr: 0x100008E98, symSize: 0x14 }
  - { offsetInCU: 0x237B9, offset: 0x31A08, size: 0x8, addend: 0x0, symName: __ZNKSt3__16vectorINS_6threadENS_9allocatorIS1_EEE9__end_capB8ue170006Ev, symObjAddr: 0x42F8, symBinAddr: 0x100008EAC, symSize: 0x28 }
  - { offsetInCU: 0x237DD, offset: 0x31A2C, size: 0x8, addend: 0x0, symName: __ZNKSt3__117__compressed_pairIPNS_6threadENS_9allocatorIS1_EEE5firstB8ue170006Ev, symObjAddr: 0x4320, symBinAddr: 0x100008ED4, symSize: 0x24 }
  - { offsetInCU: 0x23801, offset: 0x31A50, size: 0x8, addend: 0x0, symName: __ZNKSt3__122__compressed_pair_elemIPNS_6threadELi0ELb0EE5__getB8ue170006Ev, symObjAddr: 0x4344, symBinAddr: 0x100008EF8, symSize: 0x14 }
  - { offsetInCU: 0x23825, offset: 0x31A74, size: 0x8, addend: 0x0, symName: __ZNSt3__16vectorINS_6threadENS_9allocatorIS1_EEE12emplace_backIJS1_EEERS1_DpOT_, symObjAddr: 0x4924, symBinAddr: 0x100008F0C, symSize: 0x74 }
  - { offsetInCU: 0x23866, offset: 0x31AB5, size: 0x8, addend: 0x0, symName: __ZN10ThreadPool10threadLoopEv, symObjAddr: 0x4998, symBinAddr: 0x100008F80, symSize: 0x178 }
  - { offsetInCU: 0x238EB, offset: 0x31B3A, size: 0x8, addend: 0x0, symName: __ZNSt3__16threadC1IM10ThreadPoolFvvEJPS2_EvEEOT_DpOT0_, symObjAddr: 0x4B10, symBinAddr: 0x1000090F8, symSize: 0x3C }
  - { offsetInCU: 0x23944, offset: 0x31B93, size: 0x8, addend: 0x0, symName: __ZNSt3__16vectorINS_6threadENS_9allocatorIS1_EEE9__end_capB8ue170006Ev, symObjAddr: 0x4B4C, symBinAddr: 0x100009134, symSize: 0x28 }
  - { offsetInCU: 0x23968, offset: 0x31BB7, size: 0x8, addend: 0x0, symName: __ZNSt3__16vectorINS_6threadENS_9allocatorIS1_EEE22__construct_one_at_endB8ue170006IJS1_EEEvDpOT_, symObjAddr: 0x4B74, symBinAddr: 0x10000915C, symSize: 0x90 }
  - { offsetInCU: 0x239B5, offset: 0x31C04, size: 0x8, addend: 0x0, symName: __ZNSt3__16vectorINS_6threadENS_9allocatorIS1_EEE24__emplace_back_slow_pathIJS1_EEEvDpOT_, symObjAddr: 0x4C04, symBinAddr: 0x1000091EC, symSize: 0xD8 }
  - { offsetInCU: 0x23A14, offset: 0x31C63, size: 0x8, addend: 0x0, symName: __ZNSt3__16vectorINS_6threadENS_9allocatorIS1_EEE4backB8ue170006Ev, symObjAddr: 0x4CDC, symBinAddr: 0x1000092C4, symSize: 0x1C }
  - { offsetInCU: 0x23A38, offset: 0x31C87, size: 0x8, addend: 0x0, symName: __ZNSt3__117__compressed_pairIPNS_6threadENS_9allocatorIS1_EEE5firstB8ue170006Ev, symObjAddr: 0x4CF8, symBinAddr: 0x1000092E0, symSize: 0x24 }
  - { offsetInCU: 0x23A5C, offset: 0x31CAB, size: 0x8, addend: 0x0, symName: __ZNSt3__122__compressed_pair_elemIPNS_6threadELi0ELb0EE5__getB8ue170006Ev, symObjAddr: 0x4D1C, symBinAddr: 0x100009304, symSize: 0x14 }
  - { offsetInCU: 0x23A99, offset: 0x31CE8, size: 0x8, addend: 0x0, symName: __ZNSt3__16vectorINS_6threadENS_9allocatorIS1_EEE21_ConstructTransactionC1B8ue170006ERS4_m, symObjAddr: 0x4D30, symBinAddr: 0x100009318, symSize: 0x3C }
  - { offsetInCU: 0x23ADF, offset: 0x31D2E, size: 0x8, addend: 0x0, symName: __ZNSt3__116allocator_traitsINS_9allocatorINS_6threadEEEE9constructB8ue170006IS2_JS2_EvEEvRS3_PT_DpOT0_, symObjAddr: 0x4D6C, symBinAddr: 0x100009354, symSize: 0x34 }
  - { offsetInCU: 0x23B35, offset: 0x31D84, size: 0x8, addend: 0x0, symName: __ZNSt3__16vectorINS_6threadENS_9allocatorIS1_EEE21_ConstructTransactionD1B8ue170006Ev, symObjAddr: 0x4DA0, symBinAddr: 0x100009388, symSize: 0x2C }
  - { offsetInCU: 0x23B5D, offset: 0x31DAC, size: 0x8, addend: 0x0, symName: __ZNSt3__16vectorINS_6threadENS_9allocatorIS1_EEE21_ConstructTransactionC2B8ue170006ERS4_m, symObjAddr: 0x4DCC, symBinAddr: 0x1000093B4, symSize: 0x44 }
  - { offsetInCU: 0x23BA3, offset: 0x31DF2, size: 0x8, addend: 0x0, symName: __ZNSt3__19allocatorINS_6threadEE9constructB8ue170006IS1_JS1_EEEvPT_DpOT0_, symObjAddr: 0x4E10, symBinAddr: 0x1000093F8, symSize: 0x30 }
  - { offsetInCU: 0x23BF7, offset: 0x31E46, size: 0x8, addend: 0x0, symName: __ZNSt3__16threadC1B8ue170006EOS0_, symObjAddr: 0x4E40, symBinAddr: 0x100009428, symSize: 0x34 }
  - { offsetInCU: 0x23C2D, offset: 0x31E7C, size: 0x8, addend: 0x0, symName: __ZNSt3__16threadC2B8ue170006EOS0_, symObjAddr: 0x4E74, symBinAddr: 0x10000945C, symSize: 0x2C }
  - { offsetInCU: 0x23C63, offset: 0x31EB2, size: 0x8, addend: 0x0, symName: __ZNSt3__16vectorINS_6threadENS_9allocatorIS1_EEE21_ConstructTransactionD2B8ue170006Ev, symObjAddr: 0x4EA0, symBinAddr: 0x100009488, symSize: 0x20 }
  - { offsetInCU: 0x23C8B, offset: 0x31EDA, size: 0x8, addend: 0x0, symName: __ZNKSt3__16vectorINS_6threadENS_9allocatorIS1_EEE11__recommendB8ue170006Em, symObjAddr: 0x4EC0, symBinAddr: 0x1000094A8, symSize: 0xB4 }
  - { offsetInCU: 0x23CDF, offset: 0x31F2E, size: 0x8, addend: 0x0, symName: __ZNSt3__114__split_bufferINS_6threadERNS_9allocatorIS1_EEEC1EmmS4_, symObjAddr: 0x4F74, symBinAddr: 0x10000955C, symSize: 0x44 }
  - { offsetInCU: 0x23D34, offset: 0x31F83, size: 0x8, addend: 0x0, symName: __ZNSt3__114__split_bufferINS_6threadERNS_9allocatorIS1_EEED1Ev, symObjAddr: 0x50C8, symBinAddr: 0x1000096B0, symSize: 0x2C }
  - { offsetInCU: 0x23D5F, offset: 0x31FAE, size: 0x8, addend: 0x0, symName: __ZNKSt3__16vectorINS_6threadENS_9allocatorIS1_EEE8max_sizeEv, symObjAddr: 0x50F4, symBinAddr: 0x1000096DC, symSize: 0x60 }
  - { offsetInCU: 0x23D86, offset: 0x31FD5, size: 0x8, addend: 0x0, symName: __ZNKSt3__16vectorINS_6threadENS_9allocatorIS1_EEE20__throw_length_errorB8ue170006Ev, symObjAddr: 0x5154, symBinAddr: 0x10000973C, symSize: 0x1C }
  - { offsetInCU: 0x23DB4, offset: 0x32003, size: 0x8, addend: 0x0, symName: __ZNSt3__116allocator_traitsINS_9allocatorINS_6threadEEEE8max_sizeB8ue170006IS3_vEEmRKS3_, symObjAddr: 0x51C8, symBinAddr: 0x1000097B0, symSize: 0x24 }
  - { offsetInCU: 0x23DE1, offset: 0x32030, size: 0x8, addend: 0x0, symName: __ZNKSt3__16vectorINS_6threadENS_9allocatorIS1_EEE7__allocB8ue170006Ev, symObjAddr: 0x51EC, symBinAddr: 0x1000097D4, symSize: 0x28 }
  - { offsetInCU: 0x23E05, offset: 0x32054, size: 0x8, addend: 0x0, symName: __ZNSt3__114numeric_limitsIlE3maxB8ue170006Ev, symObjAddr: 0x5214, symBinAddr: 0x1000097FC, symSize: 0x14 }
  - { offsetInCU: 0x23E23, offset: 0x32072, size: 0x8, addend: 0x0, symName: __ZNKSt3__16__lessIvvEclB8ue170006ImmEEbRKT_RKT0_, symObjAddr: 0x527C, symBinAddr: 0x100009864, symSize: 0x34 }
  - { offsetInCU: 0x23E75, offset: 0x320C4, size: 0x8, addend: 0x0, symName: __ZNKSt3__19allocatorINS_6threadEE8max_sizeB8ue170006Ev, symObjAddr: 0x52B0, symBinAddr: 0x100009898, symSize: 0x14 }
  - { offsetInCU: 0x23E99, offset: 0x320E8, size: 0x8, addend: 0x0, symName: __ZNKSt3__117__compressed_pairIPNS_6threadENS_9allocatorIS1_EEE6secondB8ue170006Ev, symObjAddr: 0x52C4, symBinAddr: 0x1000098AC, symSize: 0x24 }
  - { offsetInCU: 0x23EBD, offset: 0x3210C, size: 0x8, addend: 0x0, symName: __ZNKSt3__122__compressed_pair_elemINS_9allocatorINS_6threadEEELi1ELb1EE5__getB8ue170006Ev, symObjAddr: 0x52E8, symBinAddr: 0x1000098D0, symSize: 0x14 }
  - { offsetInCU: 0x23EE1, offset: 0x32130, size: 0x8, addend: 0x0, symName: __ZNSt3__123__libcpp_numeric_limitsIlLb1EE3maxB8ue170006Ev, symObjAddr: 0x52FC, symBinAddr: 0x1000098E4, symSize: 0x8 }
  - { offsetInCU: 0x23EF5, offset: 0x32144, size: 0x8, addend: 0x0, symName: __ZNSt12length_errorC1B8ue170006EPKc, symObjAddr: 0x5368, symBinAddr: 0x100009950, symSize: 0x34 }
  - { offsetInCU: 0x23F2B, offset: 0x3217A, size: 0x8, addend: 0x0, symName: __ZNSt12length_errorC2B8ue170006EPKc, symObjAddr: 0x539C, symBinAddr: 0x100009984, symSize: 0x4C }
  - { offsetInCU: 0x23F61, offset: 0x321B0, size: 0x8, addend: 0x0, symName: __ZNSt3__114__split_bufferINS_6threadERNS_9allocatorIS1_EEEC2EmmS4_, symObjAddr: 0x543C, symBinAddr: 0x100009A24, symSize: 0xD4 }
  - { offsetInCU: 0x23FD3, offset: 0x32222, size: 0x8, addend: 0x0, symName: __ZNSt3__117__compressed_pairIPNS_6threadERNS_9allocatorIS1_EEEC1B8ue170006IDnS5_EEOT_OT0_, symObjAddr: 0x5510, symBinAddr: 0x100009AF8, symSize: 0x3C }
  - { offsetInCU: 0x24029, offset: 0x32278, size: 0x8, addend: 0x0, symName: __ZNSt3__114__split_bufferINS_6threadERNS_9allocatorIS1_EEE7__allocB8ue170006Ev, symObjAddr: 0x558C, symBinAddr: 0x100009B74, symSize: 0x28 }
  - { offsetInCU: 0x2404D, offset: 0x3229C, size: 0x8, addend: 0x0, symName: __ZNSt3__114__split_bufferINS_6threadERNS_9allocatorIS1_EEE9__end_capB8ue170006Ev, symObjAddr: 0x55B4, symBinAddr: 0x100009B9C, symSize: 0x28 }
  - { offsetInCU: 0x24071, offset: 0x322C0, size: 0x8, addend: 0x0, symName: __ZNSt3__117__compressed_pairIPNS_6threadERNS_9allocatorIS1_EEEC2B8ue170006IDnS5_EEOT_OT0_, symObjAddr: 0x55DC, symBinAddr: 0x100009BC4, symSize: 0x48 }
  - { offsetInCU: 0x240C7, offset: 0x32316, size: 0x8, addend: 0x0, symName: __ZNSt3__122__compressed_pair_elemIRNS_9allocatorINS_6threadEEELi1ELb0EEC2B8ue170006IS4_vEEOT_, symObjAddr: 0x5624, symBinAddr: 0x100009C0C, symSize: 0x20 }
  - { offsetInCU: 0x24107, offset: 0x32356, size: 0x8, addend: 0x0, symName: __ZNSt3__19allocatorINS_6threadEE8allocateB8ue170006Em, symObjAddr: 0x5644, symBinAddr: 0x100009C2C, symSize: 0x58 }
  - { offsetInCU: 0x24139, offset: 0x32388, size: 0x8, addend: 0x0, symName: __ZNSt3__117__compressed_pairIPNS_6threadERNS_9allocatorIS1_EEE6secondB8ue170006Ev, symObjAddr: 0x5780, symBinAddr: 0x100009D68, symSize: 0x28 }
  - { offsetInCU: 0x2415D, offset: 0x323AC, size: 0x8, addend: 0x0, symName: __ZNSt3__122__compressed_pair_elemIRNS_9allocatorINS_6threadEEELi1ELb0EE5__getB8ue170006Ev, symObjAddr: 0x57A8, symBinAddr: 0x100009D90, symSize: 0x18 }
  - { offsetInCU: 0x24181, offset: 0x323D0, size: 0x8, addend: 0x0, symName: __ZNSt3__117__compressed_pairIPNS_6threadERNS_9allocatorIS1_EEE5firstB8ue170006Ev, symObjAddr: 0x57C0, symBinAddr: 0x100009DA8, symSize: 0x24 }
  - { offsetInCU: 0x241A5, offset: 0x323F4, size: 0x8, addend: 0x0, symName: __ZNSt3__116reverse_iteratorIPNS_6threadEEC1B8ue170006ES2_, symObjAddr: 0x5910, symBinAddr: 0x100009EF8, symSize: 0x34 }
  - { offsetInCU: 0x241DB, offset: 0x3242A, size: 0x8, addend: 0x0, symName: __ZNKSt3__116reverse_iteratorIPNS_6threadEE4baseB8ue170006Ev, symObjAddr: 0x5944, symBinAddr: 0x100009F2C, symSize: 0x18 }
  - { offsetInCU: 0x241FF, offset: 0x3244E, size: 0x8, addend: 0x0, symName: __ZNKSt3__16vectorINS_6threadENS_9allocatorIS1_EEE14__annotate_newB8ue170006Em, symObjAddr: 0x5998, symBinAddr: 0x100009F80, symSize: 0xAC }
  - { offsetInCU: 0x24232, offset: 0x32481, size: 0x8, addend: 0x0, symName: __ZNSt3__129_AllocatorDestroyRangeReverseINS_9allocatorINS_6threadEEENS_16reverse_iteratorIPS2_EEEC1B8ue170006ERS3_RS6_S9_, symObjAddr: 0x5A90, symBinAddr: 0x10000A078, symSize: 0x44 }
  - { offsetInCU: 0x24287, offset: 0x324D6, size: 0x8, addend: 0x0, symName: __ZNKSt3__116reverse_iteratorIPNS_6threadEEdeB8ue170006Ev, symObjAddr: 0x5B40, symBinAddr: 0x10000A128, symSize: 0x28 }
  - { offsetInCU: 0x242B9, offset: 0x32508, size: 0x8, addend: 0x0, symName: __ZNSt3__116reverse_iteratorIPNS_6threadEEppB8ue170006Ev, symObjAddr: 0x5B68, symBinAddr: 0x10000A150, symSize: 0x20 }
  - { offsetInCU: 0x242DD, offset: 0x3252C, size: 0x8, addend: 0x0, symName: __ZNSt3__128__exception_guard_exceptionsINS_29_AllocatorDestroyRangeReverseINS_9allocatorINS_6threadEEENS_16reverse_iteratorIPS3_EEEEE10__completeB8ue170006Ev, symObjAddr: 0x5B88, symBinAddr: 0x10000A170, symSize: 0x1C }
  - { offsetInCU: 0x24301, offset: 0x32550, size: 0x8, addend: 0x0, symName: __ZNSt3__128__exception_guard_exceptionsINS_29_AllocatorDestroyRangeReverseINS_9allocatorINS_6threadEEENS_16reverse_iteratorIPS3_EEEEED1B8ue170006Ev, symObjAddr: 0x5BA4, symBinAddr: 0x10000A18C, symSize: 0x2C }
  - { offsetInCU: 0x24329, offset: 0x32578, size: 0x8, addend: 0x0, symName: __ZNSt3__128__exception_guard_exceptionsINS_29_AllocatorDestroyRangeReverseINS_9allocatorINS_6threadEEENS_16reverse_iteratorIPS3_EEEEEC1B8ue170006ES8_, symObjAddr: 0x5BD0, symBinAddr: 0x10000A1B8, symSize: 0x34 }
  - { offsetInCU: 0x24360, offset: 0x325AF, size: 0x8, addend: 0x0, symName: __ZNSt3__128__exception_guard_exceptionsINS_29_AllocatorDestroyRangeReverseINS_9allocatorINS_6threadEEENS_16reverse_iteratorIPS3_EEEEEC2B8ue170006ES8_, symObjAddr: 0x5C04, symBinAddr: 0x10000A1EC, symSize: 0x30 }
  - { offsetInCU: 0x24397, offset: 0x325E6, size: 0x8, addend: 0x0, symName: __ZNSt3__129_AllocatorDestroyRangeReverseINS_9allocatorINS_6threadEEENS_16reverse_iteratorIPS2_EEEC2B8ue170006ERS3_RS6_S9_, symObjAddr: 0x5C34, symBinAddr: 0x10000A21C, symSize: 0x38 }
  - { offsetInCU: 0x243F1, offset: 0x32640, size: 0x8, addend: 0x0, symName: __ZNSt3__119__to_address_helperINS_16reverse_iteratorIPNS_6threadEEEvE6__callB8ue170006ERKS4_, symObjAddr: 0x5C6C, symBinAddr: 0x10000A254, symSize: 0x38 }
  - { offsetInCU: 0x24413, offset: 0x32662, size: 0x8, addend: 0x0, symName: __ZNKSt3__116reverse_iteratorIPNS_6threadEEptB8ue170006Ev, symObjAddr: 0x5CA4, symBinAddr: 0x10000A28C, symSize: 0x24 }
  - { offsetInCU: 0x24437, offset: 0x32686, size: 0x8, addend: 0x0, symName: __ZNSt3__128__exception_guard_exceptionsINS_29_AllocatorDestroyRangeReverseINS_9allocatorINS_6threadEEENS_16reverse_iteratorIPS3_EEEEED2B8ue170006Ev, symObjAddr: 0x5CC8, symBinAddr: 0x10000A2B0, symSize: 0x50 }
  - { offsetInCU: 0x2445F, offset: 0x326AE, size: 0x8, addend: 0x0, symName: __ZNKSt3__129_AllocatorDestroyRangeReverseINS_9allocatorINS_6threadEEENS_16reverse_iteratorIPS2_EEEclB8ue170006Ev, symObjAddr: 0x5D18, symBinAddr: 0x10000A300, symSize: 0xB4 }
  - { offsetInCU: 0x24484, offset: 0x326D3, size: 0x8, addend: 0x0, symName: __ZNSt3__116reverse_iteratorINS0_IPNS_6threadEEEEC1B8ue170006ES3_, symObjAddr: 0x5E3C, symBinAddr: 0x10000A424, symSize: 0x3C }
  - { offsetInCU: 0x244BA, offset: 0x32709, size: 0x8, addend: 0x0, symName: __ZNSt3__116reverse_iteratorINS0_IPNS_6threadEEEEppB8ue170006Ev, symObjAddr: 0x5EFC, symBinAddr: 0x10000A4E4, symSize: 0x30 }
  - { offsetInCU: 0x244DE, offset: 0x3272D, size: 0x8, addend: 0x0, symName: __ZNKSt3__116reverse_iteratorINS0_IPNS_6threadEEEE4baseB8ue170006Ev, symObjAddr: 0x5F2C, symBinAddr: 0x10000A514, symSize: 0x24 }
  - { offsetInCU: 0x24507, offset: 0x32756, size: 0x8, addend: 0x0, symName: __ZNSt3__119__to_address_helperINS_16reverse_iteratorINS1_IPNS_6threadEEEEEvE6__callB8ue170006ERKS5_, symObjAddr: 0x5F50, symBinAddr: 0x10000A538, symSize: 0x38 }
  - { offsetInCU: 0x24529, offset: 0x32778, size: 0x8, addend: 0x0, symName: __ZNKSt3__116reverse_iteratorINS0_IPNS_6threadEEEEptB8ue170006Ev, symObjAddr: 0x5F88, symBinAddr: 0x10000A570, symSize: 0x24 }
  - { offsetInCU: 0x2454D, offset: 0x3279C, size: 0x8, addend: 0x0, symName: __ZNKSt3__116reverse_iteratorINS0_IPNS_6threadEEEEdeB8ue170006Ev, symObjAddr: 0x5FAC, symBinAddr: 0x10000A594, symSize: 0x34 }
  - { offsetInCU: 0x2457F, offset: 0x327CE, size: 0x8, addend: 0x0, symName: __ZNSt3__116reverse_iteratorIPNS_6threadEEmmB8ue170006Ev, symObjAddr: 0x5FE0, symBinAddr: 0x10000A5C8, symSize: 0x20 }
  - { offsetInCU: 0x245A3, offset: 0x327F2, size: 0x8, addend: 0x0, symName: __ZNSt3__116reverse_iteratorINS0_IPNS_6threadEEEEC2B8ue170006ES3_, symObjAddr: 0x6000, symBinAddr: 0x10000A5E8, symSize: 0x2C }
  - { offsetInCU: 0x245D9, offset: 0x32828, size: 0x8, addend: 0x0, symName: __ZNSt3__116reverse_iteratorIPNS_6threadEEC2B8ue170006ES2_, symObjAddr: 0x602C, symBinAddr: 0x10000A614, symSize: 0x28 }
  - { offsetInCU: 0x2460F, offset: 0x3285E, size: 0x8, addend: 0x0, symName: __ZNSt3__114__split_bufferINS_6threadERNS_9allocatorIS1_EEED2Ev, symObjAddr: 0x6054, symBinAddr: 0x10000A63C, symSize: 0x8C }
  - { offsetInCU: 0x2463A, offset: 0x32889, size: 0x8, addend: 0x0, symName: __ZNSt3__114__split_bufferINS_6threadERNS_9allocatorIS1_EEE5clearB8ue170006Ev, symObjAddr: 0x60E0, symBinAddr: 0x10000A6C8, symSize: 0x28 }
  - { offsetInCU: 0x2465E, offset: 0x328AD, size: 0x8, addend: 0x0, symName: __ZNKSt3__114__split_bufferINS_6threadERNS_9allocatorIS1_EEE8capacityB8ue170006Ev, symObjAddr: 0x6108, symBinAddr: 0x10000A6F0, symSize: 0x40 }
  - { offsetInCU: 0x24682, offset: 0x328D1, size: 0x8, addend: 0x0, symName: __ZNSt3__114__split_bufferINS_6threadERNS_9allocatorIS1_EEE17__destruct_at_endB8ue170006EPS1_, symObjAddr: 0x6148, symBinAddr: 0x10000A730, symSize: 0x2C }
  - { offsetInCU: 0x246B4, offset: 0x32903, size: 0x8, addend: 0x0, symName: __ZNSt3__114__split_bufferINS_6threadERNS_9allocatorIS1_EEE17__destruct_at_endB8ue170006EPS1_NS_17integral_constantIbLb0EEE, symObjAddr: 0x6174, symBinAddr: 0x10000A75C, symSize: 0x80 }
  - { offsetInCU: 0x246F4, offset: 0x32943, size: 0x8, addend: 0x0, symName: __ZNKSt3__114__split_bufferINS_6threadERNS_9allocatorIS1_EEE9__end_capB8ue170006Ev, symObjAddr: 0x61F4, symBinAddr: 0x10000A7DC, symSize: 0x28 }
  - { offsetInCU: 0x24718, offset: 0x32967, size: 0x8, addend: 0x0, symName: __ZNKSt3__117__compressed_pairIPNS_6threadERNS_9allocatorIS1_EEE5firstB8ue170006Ev, symObjAddr: 0x621C, symBinAddr: 0x10000A804, symSize: 0x24 }
  - { offsetInCU: 0x2473C, offset: 0x3298B, size: 0x8, addend: 0x0, symName: __ZNSt3__18functionIFvvEEC1B8ue170006Ev, symObjAddr: 0x6240, symBinAddr: 0x10000A828, symSize: 0x2C }
  - { offsetInCU: 0x24764, offset: 0x329B3, size: 0x8, addend: 0x0, symName: __ZNSt3__118condition_variable4waitIZN10ThreadPool10threadLoopEvEUlvE_EEvRNS_11unique_lockINS_5mutexEEET_, symObjAddr: 0x626C, symBinAddr: 0x10000A854, symSize: 0x50 }
  - { offsetInCU: 0x247AD, offset: 0x329FC, size: 0x8, addend: 0x0, symName: __ZNSt3__15queueINS_8functionIFvvEEENS_5dequeIS3_NS_9allocatorIS3_EEEEE5frontB8ue170006Ev, symObjAddr: 0x62BC, symBinAddr: 0x10000A8A4, symSize: 0x24 }
  - { offsetInCU: 0x247D1, offset: 0x32A20, size: 0x8, addend: 0x0, symName: __ZNSt3__18functionIFvvEEaSEOS2_, symObjAddr: 0x62E0, symBinAddr: 0x10000A8C8, symSize: 0x3C }
  - { offsetInCU: 0x24807, offset: 0x32A56, size: 0x8, addend: 0x0, symName: __ZNSt3__15queueINS_8functionIFvvEEENS_5dequeIS3_NS_9allocatorIS3_EEEEE3popB8ue170006Ev, symObjAddr: 0x631C, symBinAddr: 0x10000A904, symSize: 0x24 }
  - { offsetInCU: 0x2482B, offset: 0x32A7A, size: 0x8, addend: 0x0, symName: __ZNKSt3__18functionIFvvEEclEv, symObjAddr: 0x6340, symBinAddr: 0x10000A928, symSize: 0x24 }
  - { offsetInCU: 0x24852, offset: 0x32AA1, size: 0x8, addend: 0x0, symName: __ZNSt3__18functionIFvvEEC2B8ue170006Ev, symObjAddr: 0x6364, symBinAddr: 0x10000A94C, symSize: 0x2C }
  - { offsetInCU: 0x2487A, offset: 0x32AC9, size: 0x8, addend: 0x0, symName: __ZNSt3__110__function12__value_funcIFvvEEC1B8ue170006Ev, symObjAddr: 0x6390, symBinAddr: 0x10000A978, symSize: 0x2C }
  - { offsetInCU: 0x248A2, offset: 0x32AF1, size: 0x8, addend: 0x0, symName: __ZNSt3__110__function12__value_funcIFvvEEC2B8ue170006Ev, symObjAddr: 0x63BC, symBinAddr: 0x10000A9A4, symSize: 0x18 }
  - { offsetInCU: 0x248D4, offset: 0x32B23, size: 0x8, addend: 0x0, symName: __ZZN10ThreadPool10threadLoopEvENKUlvE_clEv, symObjAddr: 0x63D4, symBinAddr: 0x10000A9BC, symSize: 0x58 }
  - { offsetInCU: 0x248FC, offset: 0x32B4B, size: 0x8, addend: 0x0, symName: __ZNKSt3__15queueINS_8functionIFvvEEENS_5dequeIS3_NS_9allocatorIS3_EEEEE5emptyB8ue170006Ev, symObjAddr: 0x642C, symBinAddr: 0x10000AA14, symSize: 0x28 }
  - { offsetInCU: 0x24920, offset: 0x32B6F, size: 0x8, addend: 0x0, symName: __ZNSt3__15dequeINS_8functionIFvvEEENS_9allocatorIS3_EEE5frontEv, symObjAddr: 0x6454, symBinAddr: 0x10000AA3C, symSize: 0x50 }
  - { offsetInCU: 0x24947, offset: 0x32B96, size: 0x8, addend: 0x0, symName: __ZNSt3__110__function12__value_funcIFvvEEaSB8ue170006EOS3_, symObjAddr: 0x64A4, symBinAddr: 0x10000AA8C, symSize: 0xC0 }
  - { offsetInCU: 0x2497A, offset: 0x32BC9, size: 0x8, addend: 0x0, symName: __ZNSt3__110__function12__value_funcIFvvEEaSB8ue170006EDn, symObjAddr: 0x6564, symBinAddr: 0x10000AB4C, symSize: 0x8C }
  - { offsetInCU: 0x249B8, offset: 0x32C07, size: 0x8, addend: 0x0, symName: __ZNSt3__110__function12__value_funcIFvvEE9__as_baseB8ue170006EPv, symObjAddr: 0x65F0, symBinAddr: 0x10000ABD8, symSize: 0x14 }
  - { offsetInCU: 0x249DC, offset: 0x32C2B, size: 0x8, addend: 0x0, symName: __ZNSt3__15dequeINS_8functionIFvvEEENS_9allocatorIS3_EEE9pop_frontEv, symObjAddr: 0x6604, symBinAddr: 0x10000ABEC, symSize: 0xD4 }
  - { offsetInCU: 0x24A30, offset: 0x32C7F, size: 0x8, addend: 0x0, symName: __ZNKSt3__15dequeINS_8functionIFvvEEENS_9allocatorIS3_EEE23__annotate_shrink_frontB8ue170006Emm, symObjAddr: 0x66D8, symBinAddr: 0x10000ACC0, symSize: 0x70 }
  - { offsetInCU: 0x24A72, offset: 0x32CC1, size: 0x8, addend: 0x0, symName: __ZNSt3__15dequeINS_8functionIFvvEEENS_9allocatorIS3_EEE26__maybe_remove_front_spareB8ue170006Eb, symObjAddr: 0x6748, symBinAddr: 0x10000AD30, symSize: 0xEC }
  - { offsetInCU: 0x24AA5, offset: 0x32CF4, size: 0x8, addend: 0x0, symName: __ZNKSt3__15dequeINS_8functionIFvvEEENS_9allocatorIS3_EEE20__front_spare_blocksB8ue170006Ev, symObjAddr: 0x6834, symBinAddr: 0x10000AE1C, symSize: 0x2C }
  - { offsetInCU: 0x24AC9, offset: 0x32D18, size: 0x8, addend: 0x0, symName: __ZNKSt3__15dequeINS_8functionIFvvEEENS_9allocatorIS3_EEE13__front_spareB8ue170006Ev, symObjAddr: 0x6860, symBinAddr: 0x10000AE48, symSize: 0x18 }
  - { offsetInCU: 0x24AED, offset: 0x32D3C, size: 0x8, addend: 0x0, symName: __ZNKSt3__110__function12__value_funcIFvvEEclB8ue170006Ev, symObjAddr: 0x6878, symBinAddr: 0x10000AE60, symSize: 0x50 }
  - { offsetInCU: 0x24B16, offset: 0x32D65, size: 0x8, addend: 0x0, symName: __ZNSt3__117bad_function_callC1Ev, symObjAddr: 0x6900, symBinAddr: 0x10000AEE8, symSize: 0x2C }
  - { offsetInCU: 0x24B40, offset: 0x32D8F, size: 0x8, addend: 0x0, symName: __ZNSt3__117bad_function_callD1Ev, symObjAddr: 0x692C, symBinAddr: 0x10000AF14, symSize: 0x2C }
  - { offsetInCU: 0x24B68, offset: 0x32DB7, size: 0x8, addend: 0x0, symName: __ZNSt3__117bad_function_callC2Ev, symObjAddr: 0x6958, symBinAddr: 0x10000AF40, symSize: 0x44 }
  - { offsetInCU: 0x24B92, offset: 0x32DE1, size: 0x8, addend: 0x0, symName: __ZNSt9exceptionC2B8ue170006Ev, symObjAddr: 0x699C, symBinAddr: 0x10000AF84, symSize: 0x24 }
  - { offsetInCU: 0x24BBA, offset: 0x32E09, size: 0x8, addend: 0x0, symName: __ZNSt3__117bad_function_callD0Ev, symObjAddr: 0x69C0, symBinAddr: 0x10000AFA8, symSize: 0x30 }
  - { offsetInCU: 0x24BE2, offset: 0x32E31, size: 0x8, addend: 0x0, symName: __ZNSt3__117bad_function_callD2Ev, symObjAddr: 0x69F0, symBinAddr: 0x10000AFD8, symSize: 0x2C }
  - { offsetInCU: 0x24C0A, offset: 0x32E59, size: 0x8, addend: 0x0, symName: __ZNSt3__16threadC2IM10ThreadPoolFvvEJPS2_EvEEOT_DpOT0_, symObjAddr: 0x6A1C, symBinAddr: 0x10000B004, symSize: 0x150 }
  - { offsetInCU: 0x24C94, offset: 0x32EE3, size: 0x8, addend: 0x0, symName: __ZNSt3__110unique_ptrINS_15__thread_structENS_14default_deleteIS1_EEEC1B8ue170006ILb1EvEEPS1_, symObjAddr: 0x6B6C, symBinAddr: 0x10000B154, symSize: 0x34 }
  - { offsetInCU: 0x24CD5, offset: 0x32F24, size: 0x8, addend: 0x0, symName: __ZNSt3__15tupleIJNS_10unique_ptrINS_15__thread_structENS_14default_deleteIS2_EEEEM10ThreadPoolFvvEPS6_EEC1B8ue170006IJS5_S8_S9_ELi0EEEDpOT_, symObjAddr: 0x6BA0, symBinAddr: 0x10000B188, symSize: 0x44 }
  - { offsetInCU: 0x24DD7, offset: 0x33026, size: 0x8, addend: 0x0, symName: __ZNSt3__110unique_ptrINS_5tupleIJNS0_INS_15__thread_structENS_14default_deleteIS2_EEEEM10ThreadPoolFvvEPS6_EEENS3_ISA_EEEC1B8ue170006ILb1EvEEPSA_, symObjAddr: 0x6BE4, symBinAddr: 0x10000B1CC, symSize: 0x34 }
  - { offsetInCU: 0x24E18, offset: 0x33067, size: 0x8, addend: 0x0, symName: __ZNKSt3__110unique_ptrINS_5tupleIJNS0_INS_15__thread_structENS_14default_deleteIS2_EEEEM10ThreadPoolFvvEPS6_EEENS3_ISA_EEE3getB8ue170006Ev, symObjAddr: 0x6CE0, symBinAddr: 0x10000B2C8, symSize: 0x28 }
  - { offsetInCU: 0x24E3C, offset: 0x3308B, size: 0x8, addend: 0x0, symName: __ZNSt3__110unique_ptrINS_5tupleIJNS0_INS_15__thread_structENS_14default_deleteIS2_EEEEM10ThreadPoolFvvEPS6_EEENS3_ISA_EEE7releaseB8ue170006Ev, symObjAddr: 0x6D08, symBinAddr: 0x10000B2F0, symSize: 0x44 }
  - { offsetInCU: 0x24E6F, offset: 0x330BE, size: 0x8, addend: 0x0, symName: __ZNSt3__110unique_ptrINS_5tupleIJNS0_INS_15__thread_structENS_14default_deleteIS2_EEEEM10ThreadPoolFvvEPS6_EEENS3_ISA_EEED1B8ue170006Ev, symObjAddr: 0x6D4C, symBinAddr: 0x10000B334, symSize: 0x2C }
  - { offsetInCU: 0x24E97, offset: 0x330E6, size: 0x8, addend: 0x0, symName: __ZNSt3__110unique_ptrINS_15__thread_structENS_14default_deleteIS1_EEED1B8ue170006Ev, symObjAddr: 0x6D78, symBinAddr: 0x10000B360, symSize: 0x2C }
  - { offsetInCU: 0x24EBF, offset: 0x3310E, size: 0x8, addend: 0x0, symName: __ZNSt3__110unique_ptrINS_15__thread_structENS_14default_deleteIS1_EEEC2B8ue170006ILb1EvEEPS1_, symObjAddr: 0x6DA4, symBinAddr: 0x10000B38C, symSize: 0x44 }
  - { offsetInCU: 0x24F05, offset: 0x33154, size: 0x8, addend: 0x0, symName: __ZNSt3__117__compressed_pairIPNS_15__thread_structENS_14default_deleteIS1_EEEC1B8ue170006IRS2_NS_16__value_init_tagEEEOT_OT0_, symObjAddr: 0x6DE8, symBinAddr: 0x10000B3D0, symSize: 0x3C }
  - { offsetInCU: 0x24F5B, offset: 0x331AA, size: 0x8, addend: 0x0, symName: __ZNSt3__117__compressed_pairIPNS_15__thread_structENS_14default_deleteIS1_EEEC2B8ue170006IRS2_NS_16__value_init_tagEEEOT_OT0_, symObjAddr: 0x6E24, symBinAddr: 0x10000B40C, symSize: 0x40 }
  - { offsetInCU: 0x24FB1, offset: 0x33200, size: 0x8, addend: 0x0, symName: __ZNSt3__122__compressed_pair_elemIPNS_15__thread_structELi0ELb0EEC2B8ue170006IRS2_vEEOT_, symObjAddr: 0x6E64, symBinAddr: 0x10000B44C, symSize: 0x24 }
  - { offsetInCU: 0x24FF1, offset: 0x33240, size: 0x8, addend: 0x0, symName: __ZNSt3__122__compressed_pair_elemINS_14default_deleteINS_15__thread_structEEELi1ELb1EEC2B8ue170006ENS_16__value_init_tagE, symObjAddr: 0x6E88, symBinAddr: 0x10000B470, symSize: 0x14 }
  - { offsetInCU: 0x25024, offset: 0x33273, size: 0x8, addend: 0x0, symName: __ZNSt3__15tupleIJNS_10unique_ptrINS_15__thread_structENS_14default_deleteIS2_EEEEM10ThreadPoolFvvEPS6_EEC2B8ue170006IJS5_S8_S9_ELi0EEEDpOT_, symObjAddr: 0x6E9C, symBinAddr: 0x10000B484, symSize: 0x44 }
  - { offsetInCU: 0x25095, offset: 0x332E4, size: 0x8, addend: 0x0, symName: __ZNSt3__112__tuple_implINS_15__tuple_indicesIJLm0ELm1ELm2EEEEJNS_10unique_ptrINS_15__thread_structENS_14default_deleteIS4_EEEEM10ThreadPoolFvvEPS8_EEC1B8ue170006IJLm0ELm1ELm2EEJS7_SA_SB_EJEJEJS7_SA_SB_EEENS1_IJXspT_EEEENS_13__tuple_typesIJDpT0_EEENS1_IJXspT1_EEEENSF_IJDpT2_EEEDpOT3_, symObjAddr: 0x6EE0, symBinAddr: 0x10000B4C8, symSize: 0x44 }
  - { offsetInCU: 0x25165, offset: 0x333B4, size: 0x8, addend: 0x0, symName: __ZNSt3__112__tuple_implINS_15__tuple_indicesIJLm0ELm1ELm2EEEEJNS_10unique_ptrINS_15__thread_structENS_14default_deleteIS4_EEEEM10ThreadPoolFvvEPS8_EEC2B8ue170006IJLm0ELm1ELm2EEJS7_SA_SB_EJEJEJS7_SA_SB_EEENS1_IJXspT_EEEENS_13__tuple_typesIJDpT0_EEENS1_IJXspT1_EEEENSF_IJDpT2_EEEDpOT3_, symObjAddr: 0x6F24, symBinAddr: 0x10000B50C, symSize: 0x5C }
  - { offsetInCU: 0x25235, offset: 0x33484, size: 0x8, addend: 0x0, symName: __ZNSt3__112__tuple_leafILm0ENS_10unique_ptrINS_15__thread_structENS_14default_deleteIS2_EEEELb0EEC2B8ue170006IS5_vEEOT_, symObjAddr: 0x6F80, symBinAddr: 0x10000B568, symSize: 0x34 }
  - { offsetInCU: 0x25276, offset: 0x334C5, size: 0x8, addend: 0x0, symName: __ZNSt3__112__tuple_leafILm1EM10ThreadPoolFvvELb0EEC2B8ue170006IS3_vEEOT_, symObjAddr: 0x6FB4, symBinAddr: 0x10000B59C, symSize: 0x2C }
  - { offsetInCU: 0x252B7, offset: 0x33506, size: 0x8, addend: 0x0, symName: __ZNSt3__112__tuple_leafILm2EP10ThreadPoolLb0EEC2B8ue170006IS2_vEEOT_, symObjAddr: 0x6FE0, symBinAddr: 0x10000B5C8, symSize: 0x24 }
  - { offsetInCU: 0x252F8, offset: 0x33547, size: 0x8, addend: 0x0, symName: __ZNSt3__110unique_ptrINS_15__thread_structENS_14default_deleteIS1_EEEC1B8ue170006EOS4_, symObjAddr: 0x7004, symBinAddr: 0x10000B5EC, symSize: 0x34 }
  - { offsetInCU: 0x2532E, offset: 0x3357D, size: 0x8, addend: 0x0, symName: __ZNSt3__110unique_ptrINS_15__thread_structENS_14default_deleteIS1_EEEC2B8ue170006EOS4_, symObjAddr: 0x7038, symBinAddr: 0x10000B620, symSize: 0x60 }
  - { offsetInCU: 0x25364, offset: 0x335B3, size: 0x8, addend: 0x0, symName: __ZNSt3__110unique_ptrINS_15__thread_structENS_14default_deleteIS1_EEE7releaseB8ue170006Ev, symObjAddr: 0x7098, symBinAddr: 0x10000B680, symSize: 0x44 }
  - { offsetInCU: 0x25397, offset: 0x335E6, size: 0x8, addend: 0x0, symName: __ZNSt3__110unique_ptrINS_15__thread_structENS_14default_deleteIS1_EEE11get_deleterB8ue170006Ev, symObjAddr: 0x70DC, symBinAddr: 0x10000B6C4, symSize: 0x24 }
  - { offsetInCU: 0x253C5, offset: 0x33614, size: 0x8, addend: 0x0, symName: __ZNSt3__117__compressed_pairIPNS_15__thread_structENS_14default_deleteIS1_EEEC1B8ue170006IS2_S4_EEOT_OT0_, symObjAddr: 0x7100, symBinAddr: 0x10000B6E8, symSize: 0x3C }
  - { offsetInCU: 0x2541B, offset: 0x3366A, size: 0x8, addend: 0x0, symName: __ZNSt3__117__compressed_pairIPNS_15__thread_structENS_14default_deleteIS1_EEE5firstB8ue170006Ev, symObjAddr: 0x713C, symBinAddr: 0x10000B724, symSize: 0x24 }
  - { offsetInCU: 0x2543F, offset: 0x3368E, size: 0x8, addend: 0x0, symName: __ZNSt3__122__compressed_pair_elemIPNS_15__thread_structELi0ELb0EE5__getB8ue170006Ev, symObjAddr: 0x7160, symBinAddr: 0x10000B748, symSize: 0x14 }
  - { offsetInCU: 0x25463, offset: 0x336B2, size: 0x8, addend: 0x0, symName: __ZNSt3__117__compressed_pairIPNS_15__thread_structENS_14default_deleteIS1_EEE6secondB8ue170006Ev, symObjAddr: 0x7174, symBinAddr: 0x10000B75C, symSize: 0x24 }
  - { offsetInCU: 0x25487, offset: 0x336D6, size: 0x8, addend: 0x0, symName: __ZNSt3__122__compressed_pair_elemINS_14default_deleteINS_15__thread_structEEELi1ELb1EE5__getB8ue170006Ev, symObjAddr: 0x7198, symBinAddr: 0x10000B780, symSize: 0x14 }
  - { offsetInCU: 0x254AB, offset: 0x336FA, size: 0x8, addend: 0x0, symName: __ZNSt3__117__compressed_pairIPNS_15__thread_structENS_14default_deleteIS1_EEEC2B8ue170006IS2_S4_EEOT_OT0_, symObjAddr: 0x71AC, symBinAddr: 0x10000B794, symSize: 0x44 }
  - { offsetInCU: 0x25501, offset: 0x33750, size: 0x8, addend: 0x0, symName: __ZNSt3__122__compressed_pair_elemIPNS_15__thread_structELi0ELb0EEC2B8ue170006IS2_vEEOT_, symObjAddr: 0x71F0, symBinAddr: 0x10000B7D8, symSize: 0x24 }
  - { offsetInCU: 0x25541, offset: 0x33790, size: 0x8, addend: 0x0, symName: __ZNSt3__122__compressed_pair_elemINS_14default_deleteINS_15__thread_structEEELi1ELb1EEC2B8ue170006IS3_vEEOT_, symObjAddr: 0x7214, symBinAddr: 0x10000B7FC, symSize: 0x18 }
  - { offsetInCU: 0x25581, offset: 0x337D0, size: 0x8, addend: 0x0, symName: __ZNSt3__110unique_ptrINS_5tupleIJNS0_INS_15__thread_structENS_14default_deleteIS2_EEEEM10ThreadPoolFvvEPS6_EEENS3_ISA_EEEC2B8ue170006ILb1EvEEPSA_, symObjAddr: 0x722C, symBinAddr: 0x10000B814, symSize: 0x44 }
  - { offsetInCU: 0x255C2, offset: 0x33811, size: 0x8, addend: 0x0, symName: __ZNSt3__117__compressed_pairIPNS_5tupleIJNS_10unique_ptrINS_15__thread_structENS_14default_deleteIS3_EEEEM10ThreadPoolFvvEPS7_EEENS4_ISB_EEEC1B8ue170006IRSC_NS_16__value_init_tagEEEOT_OT0_, symObjAddr: 0x7270, symBinAddr: 0x10000B858, symSize: 0x3C }
  - { offsetInCU: 0x25618, offset: 0x33867, size: 0x8, addend: 0x0, symName: __ZNSt3__117__compressed_pairIPNS_5tupleIJNS_10unique_ptrINS_15__thread_structENS_14default_deleteIS3_EEEEM10ThreadPoolFvvEPS7_EEENS4_ISB_EEEC2B8ue170006IRSC_NS_16__value_init_tagEEEOT_OT0_, symObjAddr: 0x72AC, symBinAddr: 0x10000B894, symSize: 0x40 }
  - { offsetInCU: 0x2566E, offset: 0x338BD, size: 0x8, addend: 0x0, symName: __ZNSt3__122__compressed_pair_elemIPNS_5tupleIJNS_10unique_ptrINS_15__thread_structENS_14default_deleteIS3_EEEEM10ThreadPoolFvvEPS7_EEELi0ELb0EEC2B8ue170006IRSC_vEEOT_, symObjAddr: 0x72EC, symBinAddr: 0x10000B8D4, symSize: 0x24 }
  - { offsetInCU: 0x256AE, offset: 0x338FD, size: 0x8, addend: 0x0, symName: __ZNSt3__122__compressed_pair_elemINS_14default_deleteINS_5tupleIJNS_10unique_ptrINS_15__thread_structENS1_IS4_EEEEM10ThreadPoolFvvEPS7_EEEEELi1ELb1EEC2B8ue170006ENS_16__value_init_tagE, symObjAddr: 0x7310, symBinAddr: 0x10000B8F8, symSize: 0x14 }
  - { offsetInCU: 0x25710, offset: 0x3395F, size: 0x8, addend: 0x0, symName: __ZNSt3__121__thread_specific_ptrINS_15__thread_structEE11set_pointerEPS1_, symObjAddr: 0x7324, symBinAddr: 0x10000B90C, symSize: 0x30 }
  - { offsetInCU: 0x25744, offset: 0x33993, size: 0x8, addend: 0x0, symName: __ZNSt3__112__tuple_leafILm0ENS_10unique_ptrINS_15__thread_structENS_14default_deleteIS2_EEEELb0EE3getB8ue170006Ev, symObjAddr: 0x73E0, symBinAddr: 0x10000B9C8, symSize: 0x14 }
  - { offsetInCU: 0x25768, offset: 0x339B7, size: 0x8, addend: 0x0, symName: __ZNSt3__112__tuple_leafILm1EM10ThreadPoolFvvELb0EE3getB8ue170006Ev, symObjAddr: 0x74C4, symBinAddr: 0x10000BAAC, symSize: 0x14 }
  - { offsetInCU: 0x2578C, offset: 0x339DB, size: 0x8, addend: 0x0, symName: __ZNSt3__112__tuple_leafILm2EP10ThreadPoolLb0EE3getB8ue170006Ev, symObjAddr: 0x74D8, symBinAddr: 0x10000BAC0, symSize: 0x14 }
  - { offsetInCU: 0x257B0, offset: 0x339FF, size: 0x8, addend: 0x0, symName: __ZNKSt3__117__compressed_pairIPNS_5tupleIJNS_10unique_ptrINS_15__thread_structENS_14default_deleteIS3_EEEEM10ThreadPoolFvvEPS7_EEENS4_ISB_EEE5firstB8ue170006Ev, symObjAddr: 0x74EC, symBinAddr: 0x10000BAD4, symSize: 0x24 }
  - { offsetInCU: 0x257D4, offset: 0x33A23, size: 0x8, addend: 0x0, symName: __ZNKSt3__122__compressed_pair_elemIPNS_5tupleIJNS_10unique_ptrINS_15__thread_structENS_14default_deleteIS3_EEEEM10ThreadPoolFvvEPS7_EEELi0ELb0EE5__getB8ue170006Ev, symObjAddr: 0x7510, symBinAddr: 0x10000BAF8, symSize: 0x14 }
  - { offsetInCU: 0x257F8, offset: 0x33A47, size: 0x8, addend: 0x0, symName: __ZNSt3__117__compressed_pairIPNS_5tupleIJNS_10unique_ptrINS_15__thread_structENS_14default_deleteIS3_EEEEM10ThreadPoolFvvEPS7_EEENS4_ISB_EEE5firstB8ue170006Ev, symObjAddr: 0x7524, symBinAddr: 0x10000BB0C, symSize: 0x24 }
  - { offsetInCU: 0x2581C, offset: 0x33A6B, size: 0x8, addend: 0x0, symName: __ZNSt3__122__compressed_pair_elemIPNS_5tupleIJNS_10unique_ptrINS_15__thread_structENS_14default_deleteIS3_EEEEM10ThreadPoolFvvEPS7_EEELi0ELb0EE5__getB8ue170006Ev, symObjAddr: 0x7548, symBinAddr: 0x10000BB30, symSize: 0x14 }
  - { offsetInCU: 0x25840, offset: 0x33A8F, size: 0x8, addend: 0x0, symName: __ZNSt3__110unique_ptrINS_5tupleIJNS0_INS_15__thread_structENS_14default_deleteIS2_EEEEM10ThreadPoolFvvEPS6_EEENS3_ISA_EEED2B8ue170006Ev, symObjAddr: 0x755C, symBinAddr: 0x10000BB44, symSize: 0x30 }
  - { offsetInCU: 0x25868, offset: 0x33AB7, size: 0x8, addend: 0x0, symName: __ZNSt3__110unique_ptrINS_5tupleIJNS0_INS_15__thread_structENS_14default_deleteIS2_EEEEM10ThreadPoolFvvEPS6_EEENS3_ISA_EEE5resetB8ue170006EPSA_, symObjAddr: 0x758C, symBinAddr: 0x10000BB74, symSize: 0x78 }
  - { offsetInCU: 0x258AA, offset: 0x33AF9, size: 0x8, addend: 0x0, symName: __ZNSt3__117__compressed_pairIPNS_5tupleIJNS_10unique_ptrINS_15__thread_structENS_14default_deleteIS3_EEEEM10ThreadPoolFvvEPS7_EEENS4_ISB_EEE6secondB8ue170006Ev, symObjAddr: 0x7604, symBinAddr: 0x10000BBEC, symSize: 0x24 }
  - { offsetInCU: 0x258CE, offset: 0x33B1D, size: 0x8, addend: 0x0, symName: __ZNKSt3__114default_deleteINS_5tupleIJNS_10unique_ptrINS_15__thread_structENS0_IS3_EEEEM10ThreadPoolFvvEPS6_EEEEclB8ue170006EPSA_, symObjAddr: 0x7628, symBinAddr: 0x10000BC10, symSize: 0x4C }
  - { offsetInCU: 0x25900, offset: 0x33B4F, size: 0x8, addend: 0x0, symName: __ZNSt3__122__compressed_pair_elemINS_14default_deleteINS_5tupleIJNS_10unique_ptrINS_15__thread_structENS1_IS4_EEEEM10ThreadPoolFvvEPS7_EEEEELi1ELb1EE5__getB8ue170006Ev, symObjAddr: 0x7674, symBinAddr: 0x10000BC5C, symSize: 0x14 }
  - { offsetInCU: 0x25924, offset: 0x33B73, size: 0x8, addend: 0x0, symName: __ZNSt3__15tupleIJNS_10unique_ptrINS_15__thread_structENS_14default_deleteIS2_EEEEM10ThreadPoolFvvEPS6_EED1Ev, symObjAddr: 0x7688, symBinAddr: 0x10000BC70, symSize: 0x2C }
  - { offsetInCU: 0x25950, offset: 0x33B9F, size: 0x8, addend: 0x0, symName: __ZNSt3__15tupleIJNS_10unique_ptrINS_15__thread_structENS_14default_deleteIS2_EEEEM10ThreadPoolFvvEPS6_EED2Ev, symObjAddr: 0x76B4, symBinAddr: 0x10000BC9C, symSize: 0x2C }
  - { offsetInCU: 0x2597C, offset: 0x33BCB, size: 0x8, addend: 0x0, symName: __ZNSt3__112__tuple_implINS_15__tuple_indicesIJLm0ELm1ELm2EEEEJNS_10unique_ptrINS_15__thread_structENS_14default_deleteIS4_EEEEM10ThreadPoolFvvEPS8_EED1Ev, symObjAddr: 0x76E0, symBinAddr: 0x10000BCC8, symSize: 0x2C }
  - { offsetInCU: 0x259A8, offset: 0x33BF7, size: 0x8, addend: 0x0, symName: __ZNSt3__112__tuple_implINS_15__tuple_indicesIJLm0ELm1ELm2EEEEJNS_10unique_ptrINS_15__thread_structENS_14default_deleteIS4_EEEEM10ThreadPoolFvvEPS8_EED2Ev, symObjAddr: 0x770C, symBinAddr: 0x10000BCF4, symSize: 0x2C }
  - { offsetInCU: 0x259D4, offset: 0x33C23, size: 0x8, addend: 0x0, symName: __ZNSt3__112__tuple_leafILm0ENS_10unique_ptrINS_15__thread_structENS_14default_deleteIS2_EEEELb0EED2Ev, symObjAddr: 0x7738, symBinAddr: 0x10000BD20, symSize: 0x2C }
  - { offsetInCU: 0x25A00, offset: 0x33C4F, size: 0x8, addend: 0x0, symName: __ZNSt3__110unique_ptrINS_15__thread_structENS_14default_deleteIS1_EEED2B8ue170006Ev, symObjAddr: 0x7764, symBinAddr: 0x10000BD4C, symSize: 0x30 }
  - { offsetInCU: 0x25A28, offset: 0x33C77, size: 0x8, addend: 0x0, symName: __ZNSt3__110unique_ptrINS_15__thread_structENS_14default_deleteIS1_EEE5resetB8ue170006EPS1_, symObjAddr: 0x7794, symBinAddr: 0x10000BD7C, symSize: 0x78 }
  - { offsetInCU: 0x25A6A, offset: 0x33CB9, size: 0x8, addend: 0x0, symName: __ZNKSt3__114default_deleteINS_15__thread_structEEclB8ue170006EPS1_, symObjAddr: 0x780C, symBinAddr: 0x10000BDF4, symSize: 0x4C }
  - { offsetInCU: 0x25A9C, offset: 0x33CEB, size: 0x8, addend: 0x0, symName: __ZNKSt3__16chrono8durationIxNS_5ratioILl1ELl1000000000EEEE5countB8ue170006Ev, symObjAddr: 0x78A4, symBinAddr: 0x10000BE8C, symSize: 0x18 }
  - { offsetInCU: 0x25ACF, offset: 0x33D1E, size: 0x8, addend: 0x0, symName: __ZNSt3__16chrono8durationIxNS_5ratioILl1ELl1000EEEEC1B8ue170006IxEERKT_PNS_9enable_ifIXaasr14is_convertibleIS8_xEE5valueooL_ZNS_17integral_constantIbLb0EE5valueEEntsr23treat_as_floating_pointIS6_EE5valueEvE4typeE, symObjAddr: 0x78BC, symBinAddr: 0x10000BEA4, symSize: 0x3C }
  - { offsetInCU: 0x25B19, offset: 0x33D68, size: 0x8, addend: 0x0, symName: __ZNSt3__16chrono8durationIxNS_5ratioILl1ELl1000EEEEC2B8ue170006IxEERKT_PNS_9enable_ifIXaasr14is_convertibleIS8_xEE5valueooL_ZNS_17integral_constantIbLb0EE5valueEEntsr23treat_as_floating_pointIS6_EE5valueEvE4typeE, symObjAddr: 0x78F8, symBinAddr: 0x10000BEE0, symSize: 0x28 }
  - { offsetInCU: 0x25B81, offset: 0x33DD0, size: 0x8, addend: 0x0, symName: __ZNKSt3__16chrono10time_pointINS0_12steady_clockENS0_8durationIxNS_5ratioILl1ELl1000000000EEEEEE16time_since_epochB8ue170006Ev, symObjAddr: 0x7990, symBinAddr: 0x10000BF78, symSize: 0x20 }
  - { offsetInCU: 0x25BA5, offset: 0x33DF4, size: 0x8, addend: 0x0, symName: __ZNSt3__16chrono8durationIxNS_5ratioILl1ELl1000000000EEEEC1B8ue170006IxEERKT_PNS_9enable_ifIXaasr14is_convertibleIS8_xEE5valueooL_ZNS_17integral_constantIbLb0EE5valueEEntsr23treat_as_floating_pointIS6_EE5valueEvE4typeE, symObjAddr: 0x79B0, symBinAddr: 0x10000BF98, symSize: 0x3C }
  - { offsetInCU: 0x25BEF, offset: 0x33E3E, size: 0x8, addend: 0x0, symName: __ZNSt3__16chrono8durationIxNS_5ratioILl1ELl1000000000EEEEC2B8ue170006IxEERKT_PNS_9enable_ifIXaasr14is_convertibleIS8_xEE5valueooL_ZNS_17integral_constantIbLb0EE5valueEEntsr23treat_as_floating_pointIS6_EE5valueEvE4typeE, symObjAddr: 0x79EC, symBinAddr: 0x10000BFD4, symSize: 0x28 }
  - { offsetInCU: 0x25C39, offset: 0x33E88, size: 0x8, addend: 0x0, symName: __ZNKSt3__111__wrap_iterIPNS_6vectorI6neuronNS_9allocatorIS2_EEEEE4baseB8ue170006Ev, symObjAddr: 0x7A5C, symBinAddr: 0x10000C044, symSize: 0x18 }
  - { offsetInCU: 0x25C5D, offset: 0x33EAC, size: 0x8, addend: 0x0, symName: __ZNKSt3__111__wrap_iterIP6neuronE4baseB8ue170006Ev, symObjAddr: 0x7ABC, symBinAddr: 0x10000C0A4, symSize: 0x18 }
  - { offsetInCU: 0x25C81, offset: 0x33ED0, size: 0x8, addend: 0x0, symName: __ZNKSt3__111__wrap_iterIPNS_6futureINS_6vectorI5valueNS_9allocatorIS3_EEEEEEE4baseB8ue170006Ev, symObjAddr: 0x7B1C, symBinAddr: 0x10000C104, symSize: 0x18 }
  - { offsetInCU: 0x25CA5, offset: 0x33EF4, size: 0x8, addend: 0x0, symName: __ZNSt3__16vectorI6neuronNS_9allocatorIS1_EEEC2B8ue170006Ev, symObjAddr: 0x8014, symBinAddr: 0x10000C11C, symSize: 0x4C }
  - { offsetInCU: 0x25CCD, offset: 0x33F1C, size: 0x8, addend: 0x0, symName: __ZNSt3__117__compressed_pairIP6neuronNS_9allocatorIS1_EEEC1B8ue170006IDnNS_18__default_init_tagEEEOT_OT0_, symObjAddr: 0x8060, symBinAddr: 0x10000C168, symSize: 0x3C }
  - { offsetInCU: 0x25D23, offset: 0x33F72, size: 0x8, addend: 0x0, symName: __ZNSt3__117__compressed_pairIP6neuronNS_9allocatorIS1_EEEC2B8ue170006IDnNS_18__default_init_tagEEEOT_OT0_, symObjAddr: 0x809C, symBinAddr: 0x10000C1A4, symSize: 0x40 }
  - { offsetInCU: 0x25D79, offset: 0x33FC8, size: 0x8, addend: 0x0, symName: __ZNSt3__122__compressed_pair_elemIP6neuronLi0ELb0EEC2B8ue170006IDnvEEOT_, symObjAddr: 0x80DC, symBinAddr: 0x10000C1E4, symSize: 0x1C }
  - { offsetInCU: 0x25DB9, offset: 0x34008, size: 0x8, addend: 0x0, symName: __ZNSt3__122__compressed_pair_elemINS_9allocatorI6neuronEELi1ELb1EEC2B8ue170006ENS_18__default_init_tagE, symObjAddr: 0x80F8, symBinAddr: 0x10000C200, symSize: 0x2C }
  - { offsetInCU: 0x25DEC, offset: 0x3403B, size: 0x8, addend: 0x0, symName: __ZNSt3__19allocatorI6neuronEC2B8ue170006Ev, symObjAddr: 0x8124, symBinAddr: 0x10000C22C, symSize: 0x2C }
  - { offsetInCU: 0x25E14, offset: 0x34063, size: 0x8, addend: 0x0, symName: __ZNSt3__116__non_trivial_ifILb1ENS_9allocatorI6neuronEEEC2B8ue170006Ev, symObjAddr: 0x8150, symBinAddr: 0x10000C258, symSize: 0x14 }
  - { offsetInCU: 0x25E3C, offset: 0x3408B, size: 0x8, addend: 0x0, symName: __ZNSt3__16vectorINS0_I6neuronNS_9allocatorIS1_EEEENS2_IS4_EEEC2B8ue170006Ev, symObjAddr: 0x8164, symBinAddr: 0x10000C26C, symSize: 0x4C }
  - { offsetInCU: 0x25E64, offset: 0x340B3, size: 0x8, addend: 0x0, symName: __ZNSt3__117__compressed_pairIPNS_6vectorI6neuronNS_9allocatorIS2_EEEENS3_IS5_EEEC1B8ue170006IDnNS_18__default_init_tagEEEOT_OT0_, symObjAddr: 0x81B0, symBinAddr: 0x10000C2B8, symSize: 0x3C }
  - { offsetInCU: 0x25EBA, offset: 0x34109, size: 0x8, addend: 0x0, symName: __ZNSt3__117__compressed_pairIPNS_6vectorI6neuronNS_9allocatorIS2_EEEENS3_IS5_EEEC2B8ue170006IDnNS_18__default_init_tagEEEOT_OT0_, symObjAddr: 0x81EC, symBinAddr: 0x10000C2F4, symSize: 0x40 }
  - { offsetInCU: 0x25F10, offset: 0x3415F, size: 0x8, addend: 0x0, symName: __ZNSt3__122__compressed_pair_elemIPNS_6vectorI6neuronNS_9allocatorIS2_EEEELi0ELb0EEC2B8ue170006IDnvEEOT_, symObjAddr: 0x822C, symBinAddr: 0x10000C334, symSize: 0x1C }
  - { offsetInCU: 0x25F50, offset: 0x3419F, size: 0x8, addend: 0x0, symName: __ZNSt3__122__compressed_pair_elemINS_9allocatorINS_6vectorI6neuronNS1_IS3_EEEEEELi1ELb1EEC2B8ue170006ENS_18__default_init_tagE, symObjAddr: 0x8248, symBinAddr: 0x10000C350, symSize: 0x2C }
  - { offsetInCU: 0x25F83, offset: 0x341D2, size: 0x8, addend: 0x0, symName: __ZNSt3__19allocatorINS_6vectorI6neuronNS0_IS2_EEEEEC2B8ue170006Ev, symObjAddr: 0x8274, symBinAddr: 0x10000C37C, symSize: 0x2C }
  - { offsetInCU: 0x25FAB, offset: 0x341FA, size: 0x8, addend: 0x0, symName: __ZNSt3__116__non_trivial_ifILb1ENS_9allocatorINS_6vectorI6neuronNS1_IS3_EEEEEEEC2B8ue170006Ev, symObjAddr: 0x82A0, symBinAddr: 0x10000C3A8, symSize: 0x14 }
  - { offsetInCU: 0x25FD3, offset: 0x34222, size: 0x8, addend: 0x0, symName: __ZNSt3__16vectorI6neuronNS_9allocatorIS1_EEE9__end_capB8ue170006Ev, symObjAddr: 0x8C8C, symBinAddr: 0x10000C3BC, symSize: 0x28 }
  - { offsetInCU: 0x25FF7, offset: 0x34246, size: 0x8, addend: 0x0, symName: __ZNSt3__16vectorI6neuronNS_9allocatorIS1_EEE22__construct_one_at_endB8ue170006IJS1_EEEvDpOT_, symObjAddr: 0x8CB4, symBinAddr: 0x10000C3E4, symSize: 0x90 }
  - { offsetInCU: 0x26044, offset: 0x34293, size: 0x8, addend: 0x0, symName: __ZNSt3__16vectorI6neuronNS_9allocatorIS1_EEE24__emplace_back_slow_pathIJS1_EEEvDpOT_, symObjAddr: 0x8D44, symBinAddr: 0x10000C474, symSize: 0xD8 }
  - { offsetInCU: 0x260A3, offset: 0x342F2, size: 0x8, addend: 0x0, symName: __ZNSt3__16vectorI6neuronNS_9allocatorIS1_EEE4backB8ue170006Ev, symObjAddr: 0x8E1C, symBinAddr: 0x10000C54C, symSize: 0x1C }
  - { offsetInCU: 0x260C7, offset: 0x34316, size: 0x8, addend: 0x0, symName: __ZNSt3__117__compressed_pairIP6neuronNS_9allocatorIS1_EEE5firstB8ue170006Ev, symObjAddr: 0x8E38, symBinAddr: 0x10000C568, symSize: 0x24 }
  - { offsetInCU: 0x260EB, offset: 0x3433A, size: 0x8, addend: 0x0, symName: __ZNSt3__122__compressed_pair_elemIP6neuronLi0ELb0EE5__getB8ue170006Ev, symObjAddr: 0x8E5C, symBinAddr: 0x10000C58C, symSize: 0x14 }
  - { offsetInCU: 0x26128, offset: 0x34377, size: 0x8, addend: 0x0, symName: __ZNSt3__16vectorI6neuronNS_9allocatorIS1_EEE21_ConstructTransactionC1B8ue170006ERS4_m, symObjAddr: 0x8E70, symBinAddr: 0x10000C5A0, symSize: 0x3C }
  - { offsetInCU: 0x2616E, offset: 0x343BD, size: 0x8, addend: 0x0, symName: __ZNSt3__116allocator_traitsINS_9allocatorI6neuronEEE9constructB8ue170006IS2_JS2_EvEEvRS3_PT_DpOT0_, symObjAddr: 0x8EAC, symBinAddr: 0x10000C5DC, symSize: 0x34 }
  - { offsetInCU: 0x261C4, offset: 0x34413, size: 0x8, addend: 0x0, symName: __ZNSt3__16vectorI6neuronNS_9allocatorIS1_EEE21_ConstructTransactionD1B8ue170006Ev, symObjAddr: 0x8EE0, symBinAddr: 0x10000C610, symSize: 0x2C }
  - { offsetInCU: 0x261EC, offset: 0x3443B, size: 0x8, addend: 0x0, symName: __ZNSt3__16vectorI6neuronNS_9allocatorIS1_EEE21_ConstructTransactionC2B8ue170006ERS4_m, symObjAddr: 0x8F0C, symBinAddr: 0x10000C63C, symSize: 0x4C }
  - { offsetInCU: 0x26232, offset: 0x34481, size: 0x8, addend: 0x0, symName: __ZNSt3__19allocatorI6neuronE9constructB8ue170006IS1_JS1_EEEvPT_DpOT0_, symObjAddr: 0x8F58, symBinAddr: 0x10000C688, symSize: 0x30 }
  - { offsetInCU: 0x26286, offset: 0x344D5, size: 0x8, addend: 0x0, symName: __ZN6neuronC1EOS_, symObjAddr: 0x8F88, symBinAddr: 0x10000C6B8, symSize: 0x34 }
  - { offsetInCU: 0x262B9, offset: 0x34508, size: 0x8, addend: 0x0, symName: __ZN6neuronC2EOS_, symObjAddr: 0x8FBC, symBinAddr: 0x10000C6EC, symSize: 0x1A0 }
  - { offsetInCU: 0x262EC, offset: 0x3453B, size: 0x8, addend: 0x0, symName: __ZNSt3__16vectorI6neuronNS_9allocatorIS1_EEE21_ConstructTransactionD2B8ue170006Ev, symObjAddr: 0x915C, symBinAddr: 0x10000C88C, symSize: 0x20 }
  - { offsetInCU: 0x26314, offset: 0x34563, size: 0x8, addend: 0x0, symName: __ZNKSt3__16vectorI6neuronNS_9allocatorIS1_EEE11__recommendB8ue170006Em, symObjAddr: 0x917C, symBinAddr: 0x10000C8AC, symSize: 0xB4 }
  - { offsetInCU: 0x26368, offset: 0x345B7, size: 0x8, addend: 0x0, symName: __ZNSt3__114__split_bufferI6neuronRNS_9allocatorIS1_EEEC1EmmS4_, symObjAddr: 0x9230, symBinAddr: 0x10000C960, symSize: 0x44 }
  - { offsetInCU: 0x263BD, offset: 0x3460C, size: 0x8, addend: 0x0, symName: __ZNSt3__114__split_bufferI6neuronRNS_9allocatorIS1_EEED1Ev, symObjAddr: 0x9384, symBinAddr: 0x10000CAB4, symSize: 0x2C }
  - { offsetInCU: 0x263E8, offset: 0x34637, size: 0x8, addend: 0x0, symName: __ZNKSt3__16vectorI6neuronNS_9allocatorIS1_EEE8max_sizeEv, symObjAddr: 0x93B0, symBinAddr: 0x10000CAE0, symSize: 0x60 }
  - { offsetInCU: 0x2640F, offset: 0x3465E, size: 0x8, addend: 0x0, symName: __ZNKSt3__16vectorI6neuronNS_9allocatorIS1_EEE20__throw_length_errorB8ue170006Ev, symObjAddr: 0x9410, symBinAddr: 0x10000CB40, symSize: 0x1C }
  - { offsetInCU: 0x2643D, offset: 0x3468C, size: 0x8, addend: 0x0, symName: __ZNSt3__116allocator_traitsINS_9allocatorI6neuronEEE8max_sizeB8ue170006IS3_vEEmRKS3_, symObjAddr: 0x942C, symBinAddr: 0x10000CB5C, symSize: 0x24 }
  - { offsetInCU: 0x2646A, offset: 0x346B9, size: 0x8, addend: 0x0, symName: __ZNKSt3__16vectorI6neuronNS_9allocatorIS1_EEE7__allocB8ue170006Ev, symObjAddr: 0x9450, symBinAddr: 0x10000CB80, symSize: 0x28 }
  - { offsetInCU: 0x2648E, offset: 0x346DD, size: 0x8, addend: 0x0, symName: __ZNKSt3__19allocatorI6neuronE8max_sizeB8ue170006Ev, symObjAddr: 0x9478, symBinAddr: 0x10000CBA8, symSize: 0x18 }
  - { offsetInCU: 0x264B2, offset: 0x34701, size: 0x8, addend: 0x0, symName: __ZNKSt3__117__compressed_pairIP6neuronNS_9allocatorIS1_EEE6secondB8ue170006Ev, symObjAddr: 0x9490, symBinAddr: 0x10000CBC0, symSize: 0x24 }
  - { offsetInCU: 0x264D6, offset: 0x34725, size: 0x8, addend: 0x0, symName: __ZNKSt3__122__compressed_pair_elemINS_9allocatorI6neuronEELi1ELb1EE5__getB8ue170006Ev, symObjAddr: 0x94B4, symBinAddr: 0x10000CBE4, symSize: 0x14 }
  - { offsetInCU: 0x264FA, offset: 0x34749, size: 0x8, addend: 0x0, symName: __ZNSt3__114__split_bufferI6neuronRNS_9allocatorIS1_EEEC2EmmS4_, symObjAddr: 0x94C8, symBinAddr: 0x10000CBF8, symSize: 0xE0 }
  - { offsetInCU: 0x2656C, offset: 0x347BB, size: 0x8, addend: 0x0, symName: __ZNSt3__117__compressed_pairIP6neuronRNS_9allocatorIS1_EEEC1B8ue170006IDnS5_EEOT_OT0_, symObjAddr: 0x95A8, symBinAddr: 0x10000CCD8, symSize: 0x3C }
  - { offsetInCU: 0x265C2, offset: 0x34811, size: 0x8, addend: 0x0, symName: __ZNSt3__114__split_bufferI6neuronRNS_9allocatorIS1_EEE7__allocB8ue170006Ev, symObjAddr: 0x9624, symBinAddr: 0x10000CD54, symSize: 0x28 }
  - { offsetInCU: 0x265E6, offset: 0x34835, size: 0x8, addend: 0x0, symName: __ZNSt3__114__split_bufferI6neuronRNS_9allocatorIS1_EEE9__end_capB8ue170006Ev, symObjAddr: 0x964C, symBinAddr: 0x10000CD7C, symSize: 0x28 }
  - { offsetInCU: 0x2660A, offset: 0x34859, size: 0x8, addend: 0x0, symName: __ZNSt3__117__compressed_pairIP6neuronRNS_9allocatorIS1_EEEC2B8ue170006IDnS5_EEOT_OT0_, symObjAddr: 0x9674, symBinAddr: 0x10000CDA4, symSize: 0x48 }
  - { offsetInCU: 0x26660, offset: 0x348AF, size: 0x8, addend: 0x0, symName: __ZNSt3__122__compressed_pair_elemIRNS_9allocatorI6neuronEELi1ELb0EEC2B8ue170006IS4_vEEOT_, symObjAddr: 0x96BC, symBinAddr: 0x10000CDEC, symSize: 0x20 }
  - { offsetInCU: 0x266A0, offset: 0x348EF, size: 0x8, addend: 0x0, symName: __ZNSt3__19allocatorI6neuronE8allocateB8ue170006Em, symObjAddr: 0x96DC, symBinAddr: 0x10000CE0C, symSize: 0x5C }
  - { offsetInCU: 0x266D2, offset: 0x34921, size: 0x8, addend: 0x0, symName: __ZNSt3__117__compressed_pairIP6neuronRNS_9allocatorIS1_EEE6secondB8ue170006Ev, symObjAddr: 0x9738, symBinAddr: 0x10000CE68, symSize: 0x28 }
  - { offsetInCU: 0x266F6, offset: 0x34945, size: 0x8, addend: 0x0, symName: __ZNSt3__122__compressed_pair_elemIRNS_9allocatorI6neuronEELi1ELb0EE5__getB8ue170006Ev, symObjAddr: 0x9760, symBinAddr: 0x10000CE90, symSize: 0x18 }
  - { offsetInCU: 0x2671A, offset: 0x34969, size: 0x8, addend: 0x0, symName: __ZNSt3__117__compressed_pairIP6neuronRNS_9allocatorIS1_EEE5firstB8ue170006Ev, symObjAddr: 0x9778, symBinAddr: 0x10000CEA8, symSize: 0x24 }
  - { offsetInCU: 0x2673E, offset: 0x3498D, size: 0x8, addend: 0x0, symName: __ZNSt3__116reverse_iteratorIP6neuronEC1B8ue170006ES2_, symObjAddr: 0x98C8, symBinAddr: 0x10000CFF8, symSize: 0x34 }
  - { offsetInCU: 0x26774, offset: 0x349C3, size: 0x8, addend: 0x0, symName: __ZNKSt3__116reverse_iteratorIP6neuronE4baseB8ue170006Ev, symObjAddr: 0x98FC, symBinAddr: 0x10000D02C, symSize: 0x18 }
  - { offsetInCU: 0x26798, offset: 0x349E7, size: 0x8, addend: 0x0, symName: __ZNKSt3__16vectorI6neuronNS_9allocatorIS1_EEE14__annotate_newB8ue170006Em, symObjAddr: 0x9950, symBinAddr: 0x10000D080, symSize: 0xC8 }
  - { offsetInCU: 0x267CB, offset: 0x34A1A, size: 0x8, addend: 0x0, symName: __ZNSt3__129_AllocatorDestroyRangeReverseINS_9allocatorI6neuronEENS_16reverse_iteratorIPS2_EEEC1B8ue170006ERS3_RS6_S9_, symObjAddr: 0x9A64, symBinAddr: 0x10000D194, symSize: 0x44 }
  - { offsetInCU: 0x26820, offset: 0x34A6F, size: 0x8, addend: 0x0, symName: __ZNKSt3__116reverse_iteratorIP6neuronEdeB8ue170006Ev, symObjAddr: 0x9B14, symBinAddr: 0x10000D244, symSize: 0x28 }
  - { offsetInCU: 0x26852, offset: 0x34AA1, size: 0x8, addend: 0x0, symName: __ZNSt3__116reverse_iteratorIP6neuronEppB8ue170006Ev, symObjAddr: 0x9B3C, symBinAddr: 0x10000D26C, symSize: 0x20 }
  - { offsetInCU: 0x26876, offset: 0x34AC5, size: 0x8, addend: 0x0, symName: __ZNSt3__128__exception_guard_exceptionsINS_29_AllocatorDestroyRangeReverseINS_9allocatorI6neuronEENS_16reverse_iteratorIPS3_EEEEE10__completeB8ue170006Ev, symObjAddr: 0x9B5C, symBinAddr: 0x10000D28C, symSize: 0x1C }
  - { offsetInCU: 0x2689A, offset: 0x34AE9, size: 0x8, addend: 0x0, symName: __ZNSt3__128__exception_guard_exceptionsINS_29_AllocatorDestroyRangeReverseINS_9allocatorI6neuronEENS_16reverse_iteratorIPS3_EEEEED1B8ue170006Ev, symObjAddr: 0x9B78, symBinAddr: 0x10000D2A8, symSize: 0x2C }
  - { offsetInCU: 0x268C2, offset: 0x34B11, size: 0x8, addend: 0x0, symName: __ZNSt3__128__exception_guard_exceptionsINS_29_AllocatorDestroyRangeReverseINS_9allocatorI6neuronEENS_16reverse_iteratorIPS3_EEEEEC1B8ue170006ES8_, symObjAddr: 0x9BA4, symBinAddr: 0x10000D2D4, symSize: 0x34 }
  - { offsetInCU: 0x268F9, offset: 0x34B48, size: 0x8, addend: 0x0, symName: __ZNSt3__128__exception_guard_exceptionsINS_29_AllocatorDestroyRangeReverseINS_9allocatorI6neuronEENS_16reverse_iteratorIPS3_EEEEEC2B8ue170006ES8_, symObjAddr: 0x9BD8, symBinAddr: 0x10000D308, symSize: 0x30 }
  - { offsetInCU: 0x26930, offset: 0x34B7F, size: 0x8, addend: 0x0, symName: __ZNSt3__129_AllocatorDestroyRangeReverseINS_9allocatorI6neuronEENS_16reverse_iteratorIPS2_EEEC2B8ue170006ERS3_RS6_S9_, symObjAddr: 0x9C08, symBinAddr: 0x10000D338, symSize: 0x38 }
  - { offsetInCU: 0x2698A, offset: 0x34BD9, size: 0x8, addend: 0x0, symName: __ZNSt3__119__to_address_helperINS_16reverse_iteratorIP6neuronEEvE6__callB8ue170006ERKS4_, symObjAddr: 0x9C40, symBinAddr: 0x10000D370, symSize: 0x38 }
  - { offsetInCU: 0x269AC, offset: 0x34BFB, size: 0x8, addend: 0x0, symName: __ZNKSt3__116reverse_iteratorIP6neuronEptB8ue170006Ev, symObjAddr: 0x9C78, symBinAddr: 0x10000D3A8, symSize: 0x24 }
  - { offsetInCU: 0x269D0, offset: 0x34C1F, size: 0x8, addend: 0x0, symName: __ZNSt3__128__exception_guard_exceptionsINS_29_AllocatorDestroyRangeReverseINS_9allocatorI6neuronEENS_16reverse_iteratorIPS3_EEEEED2B8ue170006Ev, symObjAddr: 0x9C9C, symBinAddr: 0x10000D3CC, symSize: 0x50 }
  - { offsetInCU: 0x269F8, offset: 0x34C47, size: 0x8, addend: 0x0, symName: __ZNKSt3__129_AllocatorDestroyRangeReverseINS_9allocatorI6neuronEENS_16reverse_iteratorIPS2_EEEclB8ue170006Ev, symObjAddr: 0x9CEC, symBinAddr: 0x10000D41C, symSize: 0xB4 }
  - { offsetInCU: 0x26A1D, offset: 0x34C6C, size: 0x8, addend: 0x0, symName: __ZNSt3__116reverse_iteratorINS0_IP6neuronEEEC1B8ue170006ES3_, symObjAddr: 0x9E10, symBinAddr: 0x10000D540, symSize: 0x3C }
  - { offsetInCU: 0x26A53, offset: 0x34CA2, size: 0x8, addend: 0x0, symName: __ZNSt3__116reverse_iteratorINS0_IP6neuronEEEppB8ue170006Ev, symObjAddr: 0x9ED0, symBinAddr: 0x10000D600, symSize: 0x30 }
  - { offsetInCU: 0x26A77, offset: 0x34CC6, size: 0x8, addend: 0x0, symName: __ZNKSt3__116reverse_iteratorINS0_IP6neuronEEE4baseB8ue170006Ev, symObjAddr: 0x9F00, symBinAddr: 0x10000D630, symSize: 0x24 }
  - { offsetInCU: 0x26AA0, offset: 0x34CEF, size: 0x8, addend: 0x0, symName: __ZNSt3__119__to_address_helperINS_16reverse_iteratorINS1_IP6neuronEEEEvE6__callB8ue170006ERKS5_, symObjAddr: 0x9F24, symBinAddr: 0x10000D654, symSize: 0x38 }
  - { offsetInCU: 0x26AC2, offset: 0x34D11, size: 0x8, addend: 0x0, symName: __ZNKSt3__116reverse_iteratorINS0_IP6neuronEEEptB8ue170006Ev, symObjAddr: 0x9F5C, symBinAddr: 0x10000D68C, symSize: 0x24 }
  - { offsetInCU: 0x26AE6, offset: 0x34D35, size: 0x8, addend: 0x0, symName: __ZNKSt3__116reverse_iteratorINS0_IP6neuronEEEdeB8ue170006Ev, symObjAddr: 0x9F80, symBinAddr: 0x10000D6B0, symSize: 0x34 }
  - { offsetInCU: 0x26B18, offset: 0x34D67, size: 0x8, addend: 0x0, symName: __ZNSt3__116reverse_iteratorIP6neuronEmmB8ue170006Ev, symObjAddr: 0x9FB4, symBinAddr: 0x10000D6E4, symSize: 0x20 }
  - { offsetInCU: 0x26B3C, offset: 0x34D8B, size: 0x8, addend: 0x0, symName: __ZNSt3__116reverse_iteratorINS0_IP6neuronEEEC2B8ue170006ES3_, symObjAddr: 0x9FD4, symBinAddr: 0x10000D704, symSize: 0x2C }
  - { offsetInCU: 0x26B72, offset: 0x34DC1, size: 0x8, addend: 0x0, symName: __ZNSt3__116reverse_iteratorIP6neuronEC2B8ue170006ES2_, symObjAddr: 0xA000, symBinAddr: 0x10000D730, symSize: 0x28 }
  - { offsetInCU: 0x26BA8, offset: 0x34DF7, size: 0x8, addend: 0x0, symName: __ZNSt3__114__split_bufferI6neuronRNS_9allocatorIS1_EEED2Ev, symObjAddr: 0xA028, symBinAddr: 0x10000D758, symSize: 0x8C }
  - { offsetInCU: 0x26BD3, offset: 0x34E22, size: 0x8, addend: 0x0, symName: __ZNSt3__114__split_bufferI6neuronRNS_9allocatorIS1_EEE5clearB8ue170006Ev, symObjAddr: 0xA0B4, symBinAddr: 0x10000D7E4, symSize: 0x28 }
  - { offsetInCU: 0x26BF7, offset: 0x34E46, size: 0x8, addend: 0x0, symName: __ZNKSt3__114__split_bufferI6neuronRNS_9allocatorIS1_EEE8capacityB8ue170006Ev, symObjAddr: 0xA0DC, symBinAddr: 0x10000D80C, symSize: 0x40 }
  - { offsetInCU: 0x26C1B, offset: 0x34E6A, size: 0x8, addend: 0x0, symName: __ZNSt3__114__split_bufferI6neuronRNS_9allocatorIS1_EEE17__destruct_at_endB8ue170006EPS1_, symObjAddr: 0xA11C, symBinAddr: 0x10000D84C, symSize: 0x2C }
  - { offsetInCU: 0x26C4D, offset: 0x34E9C, size: 0x8, addend: 0x0, symName: __ZNSt3__114__split_bufferI6neuronRNS_9allocatorIS1_EEE17__destruct_at_endB8ue170006EPS1_NS_17integral_constantIbLb0EEE, symObjAddr: 0xA148, symBinAddr: 0x10000D878, symSize: 0x80 }
  - { offsetInCU: 0x26C8D, offset: 0x34EDC, size: 0x8, addend: 0x0, symName: __ZNKSt3__114__split_bufferI6neuronRNS_9allocatorIS1_EEE9__end_capB8ue170006Ev, symObjAddr: 0xA1C8, symBinAddr: 0x10000D8F8, symSize: 0x28 }
  - { offsetInCU: 0x26CB1, offset: 0x34F00, size: 0x8, addend: 0x0, symName: __ZNKSt3__117__compressed_pairIP6neuronRNS_9allocatorIS1_EEE5firstB8ue170006Ev, symObjAddr: 0xA1F0, symBinAddr: 0x10000D920, symSize: 0x24 }
  - { offsetInCU: 0x26CD5, offset: 0x34F24, size: 0x8, addend: 0x0, symName: __ZNSt3__16vectorINS0_I6neuronNS_9allocatorIS1_EEEENS2_IS4_EEE9__end_capB8ue170006Ev, symObjAddr: 0xA214, symBinAddr: 0x10000D944, symSize: 0x28 }
  - { offsetInCU: 0x26CF9, offset: 0x34F48, size: 0x8, addend: 0x0, symName: __ZNSt3__16vectorINS0_I6neuronNS_9allocatorIS1_EEEENS2_IS4_EEE22__construct_one_at_endB8ue170006IJS4_EEEvDpOT_, symObjAddr: 0xA23C, symBinAddr: 0x10000D96C, symSize: 0x90 }
  - { offsetInCU: 0x26D46, offset: 0x34F95, size: 0x8, addend: 0x0, symName: __ZNSt3__16vectorINS0_I6neuronNS_9allocatorIS1_EEEENS2_IS4_EEE21__push_back_slow_pathIS4_EEvOT_, symObjAddr: 0xA2CC, symBinAddr: 0x10000D9FC, symSize: 0xD8 }
  - { offsetInCU: 0x26DA3, offset: 0x34FF2, size: 0x8, addend: 0x0, symName: __ZNSt3__117__compressed_pairIPNS_6vectorI6neuronNS_9allocatorIS2_EEEENS3_IS5_EEE5firstB8ue170006Ev, symObjAddr: 0xA3A4, symBinAddr: 0x10000DAD4, symSize: 0x24 }
  - { offsetInCU: 0x26DC7, offset: 0x35016, size: 0x8, addend: 0x0, symName: __ZNSt3__122__compressed_pair_elemIPNS_6vectorI6neuronNS_9allocatorIS2_EEEELi0ELb0EE5__getB8ue170006Ev, symObjAddr: 0xA3C8, symBinAddr: 0x10000DAF8, symSize: 0x14 }
  - { offsetInCU: 0x26E04, offset: 0x35053, size: 0x8, addend: 0x0, symName: __ZNSt3__16vectorINS0_I6neuronNS_9allocatorIS1_EEEENS2_IS4_EEE21_ConstructTransactionC1B8ue170006ERS6_m, symObjAddr: 0xA3DC, symBinAddr: 0x10000DB0C, symSize: 0x3C }
  - { offsetInCU: 0x26E4A, offset: 0x35099, size: 0x8, addend: 0x0, symName: __ZNSt3__116allocator_traitsINS_9allocatorINS_6vectorI6neuronNS1_IS3_EEEEEEE9constructB8ue170006IS5_JS5_EvEEvRS6_PT_DpOT0_, symObjAddr: 0xA418, symBinAddr: 0x10000DB48, symSize: 0x34 }
  - { offsetInCU: 0x26EA0, offset: 0x350EF, size: 0x8, addend: 0x0, symName: __ZNSt3__16vectorINS0_I6neuronNS_9allocatorIS1_EEEENS2_IS4_EEE21_ConstructTransactionD1B8ue170006Ev, symObjAddr: 0xA44C, symBinAddr: 0x10000DB7C, symSize: 0x2C }
  - { offsetInCU: 0x26EC8, offset: 0x35117, size: 0x8, addend: 0x0, symName: __ZNSt3__16vectorINS0_I6neuronNS_9allocatorIS1_EEEENS2_IS4_EEE21_ConstructTransactionC2B8ue170006ERS6_m, symObjAddr: 0xA478, symBinAddr: 0x10000DBA8, symSize: 0x4C }
  - { offsetInCU: 0x26F0E, offset: 0x3515D, size: 0x8, addend: 0x0, symName: __ZNSt3__19allocatorINS_6vectorI6neuronNS0_IS2_EEEEE9constructB8ue170006IS4_JS4_EEEvPT_DpOT0_, symObjAddr: 0xA4C4, symBinAddr: 0x10000DBF4, symSize: 0x30 }
  - { offsetInCU: 0x26F62, offset: 0x351B1, size: 0x8, addend: 0x0, symName: __ZNSt3__16vectorI6neuronNS_9allocatorIS1_EEEC1B8ue170006EOS4_, symObjAddr: 0xA4F4, symBinAddr: 0x10000DC24, symSize: 0x34 }
  - { offsetInCU: 0x26F9C, offset: 0x351EB, size: 0x8, addend: 0x0, symName: __ZNSt3__16vectorI6neuronNS_9allocatorIS1_EEEC2B8ue170006EOS4_, symObjAddr: 0xA528, symBinAddr: 0x10000DC58, symSize: 0xC4 }
  - { offsetInCU: 0x26FDB, offset: 0x3522A, size: 0x8, addend: 0x0, symName: __ZNSt3__117__compressed_pairIP6neuronNS_9allocatorIS1_EEEC1B8ue170006IDnS4_EEOT_OT0_, symObjAddr: 0xA5EC, symBinAddr: 0x10000DD1C, symSize: 0x3C }
  - { offsetInCU: 0x27031, offset: 0x35280, size: 0x8, addend: 0x0, symName: __ZNSt3__117__compressed_pairIP6neuronNS_9allocatorIS1_EEEC2B8ue170006IDnS4_EEOT_OT0_, symObjAddr: 0xA628, symBinAddr: 0x10000DD58, symSize: 0x44 }
  - { offsetInCU: 0x27087, offset: 0x352D6, size: 0x8, addend: 0x0, symName: __ZNSt3__122__compressed_pair_elemINS_9allocatorI6neuronEELi1ELb1EEC2B8ue170006IS3_vEEOT_, symObjAddr: 0xA66C, symBinAddr: 0x10000DD9C, symSize: 0x18 }
  - { offsetInCU: 0x270C7, offset: 0x35316, size: 0x8, addend: 0x0, symName: __ZNSt3__16vectorINS0_I6neuronNS_9allocatorIS1_EEEENS2_IS4_EEE21_ConstructTransactionD2B8ue170006Ev, symObjAddr: 0xA684, symBinAddr: 0x10000DDB4, symSize: 0x20 }
  - { offsetInCU: 0x270EF, offset: 0x3533E, size: 0x8, addend: 0x0, symName: __ZNKSt3__16vectorINS0_I6neuronNS_9allocatorIS1_EEEENS2_IS4_EEE11__recommendB8ue170006Em, symObjAddr: 0xA6A4, symBinAddr: 0x10000DDD4, symSize: 0xB4 }
  - { offsetInCU: 0x27143, offset: 0x35392, size: 0x8, addend: 0x0, symName: __ZNSt3__114__split_bufferINS_6vectorI6neuronNS_9allocatorIS2_EEEERNS3_IS5_EEEC1EmmS7_, symObjAddr: 0xA758, symBinAddr: 0x10000DE88, symSize: 0x44 }
  - { offsetInCU: 0x27198, offset: 0x353E7, size: 0x8, addend: 0x0, symName: __ZNSt3__114__split_bufferINS_6vectorI6neuronNS_9allocatorIS2_EEEERNS3_IS5_EEED1Ev, symObjAddr: 0xA8AC, symBinAddr: 0x10000DFDC, symSize: 0x2C }
  - { offsetInCU: 0x271C3, offset: 0x35412, size: 0x8, addend: 0x0, symName: __ZNKSt3__16vectorINS0_I6neuronNS_9allocatorIS1_EEEENS2_IS4_EEE8max_sizeEv, symObjAddr: 0xA8D8, symBinAddr: 0x10000E008, symSize: 0x60 }
  - { offsetInCU: 0x271EA, offset: 0x35439, size: 0x8, addend: 0x0, symName: __ZNKSt3__16vectorINS0_I6neuronNS_9allocatorIS1_EEEENS2_IS4_EEE20__throw_length_errorB8ue170006Ev, symObjAddr: 0xA938, symBinAddr: 0x10000E068, symSize: 0x1C }
  - { offsetInCU: 0x27218, offset: 0x35467, size: 0x8, addend: 0x0, symName: __ZNSt3__116allocator_traitsINS_9allocatorINS_6vectorI6neuronNS1_IS3_EEEEEEE8max_sizeB8ue170006IS6_vEEmRKS6_, symObjAddr: 0xA954, symBinAddr: 0x10000E084, symSize: 0x24 }
  - { offsetInCU: 0x27245, offset: 0x35494, size: 0x8, addend: 0x0, symName: __ZNKSt3__16vectorINS0_I6neuronNS_9allocatorIS1_EEEENS2_IS4_EEE7__allocB8ue170006Ev, symObjAddr: 0xA978, symBinAddr: 0x10000E0A8, symSize: 0x28 }
  - { offsetInCU: 0x27269, offset: 0x354B8, size: 0x8, addend: 0x0, symName: __ZNKSt3__19allocatorINS_6vectorI6neuronNS0_IS2_EEEEE8max_sizeB8ue170006Ev, symObjAddr: 0xA9A0, symBinAddr: 0x10000E0D0, symSize: 0x18 }
  - { offsetInCU: 0x2728D, offset: 0x354DC, size: 0x8, addend: 0x0, symName: __ZNKSt3__117__compressed_pairIPNS_6vectorI6neuronNS_9allocatorIS2_EEEENS3_IS5_EEE6secondB8ue170006Ev, symObjAddr: 0xA9B8, symBinAddr: 0x10000E0E8, symSize: 0x24 }
  - { offsetInCU: 0x272B1, offset: 0x35500, size: 0x8, addend: 0x0, symName: __ZNKSt3__122__compressed_pair_elemINS_9allocatorINS_6vectorI6neuronNS1_IS3_EEEEEELi1ELb1EE5__getB8ue170006Ev, symObjAddr: 0xA9DC, symBinAddr: 0x10000E10C, symSize: 0x14 }
  - { offsetInCU: 0x272D5, offset: 0x35524, size: 0x8, addend: 0x0, symName: __ZNSt3__114__split_bufferINS_6vectorI6neuronNS_9allocatorIS2_EEEERNS3_IS5_EEEC2EmmS7_, symObjAddr: 0xA9F0, symBinAddr: 0x10000E120, symSize: 0xE0 }
  - { offsetInCU: 0x27347, offset: 0x35596, size: 0x8, addend: 0x0, symName: __ZNSt3__117__compressed_pairIPNS_6vectorI6neuronNS_9allocatorIS2_EEEERNS3_IS5_EEEC1B8ue170006IDnS8_EEOT_OT0_, symObjAddr: 0xAAD0, symBinAddr: 0x10000E200, symSize: 0x3C }
  - { offsetInCU: 0x2739D, offset: 0x355EC, size: 0x8, addend: 0x0, symName: __ZNSt3__114__split_bufferINS_6vectorI6neuronNS_9allocatorIS2_EEEERNS3_IS5_EEE7__allocB8ue170006Ev, symObjAddr: 0xAB4C, symBinAddr: 0x10000E27C, symSize: 0x28 }
  - { offsetInCU: 0x273C1, offset: 0x35610, size: 0x8, addend: 0x0, symName: __ZNSt3__114__split_bufferINS_6vectorI6neuronNS_9allocatorIS2_EEEERNS3_IS5_EEE9__end_capB8ue170006Ev, symObjAddr: 0xAB74, symBinAddr: 0x10000E2A4, symSize: 0x28 }
  - { offsetInCU: 0x273E5, offset: 0x35634, size: 0x8, addend: 0x0, symName: __ZNSt3__117__compressed_pairIPNS_6vectorI6neuronNS_9allocatorIS2_EEEERNS3_IS5_EEEC2B8ue170006IDnS8_EEOT_OT0_, symObjAddr: 0xAB9C, symBinAddr: 0x10000E2CC, symSize: 0x48 }
  - { offsetInCU: 0x2743B, offset: 0x3568A, size: 0x8, addend: 0x0, symName: __ZNSt3__122__compressed_pair_elemIRNS_9allocatorINS_6vectorI6neuronNS1_IS3_EEEEEELi1ELb0EEC2B8ue170006IS7_vEEOT_, symObjAddr: 0xABE4, symBinAddr: 0x10000E314, symSize: 0x20 }
  - { offsetInCU: 0x2747B, offset: 0x356CA, size: 0x8, addend: 0x0, symName: __ZNSt3__19allocatorINS_6vectorI6neuronNS0_IS2_EEEEE8allocateB8ue170006Em, symObjAddr: 0xAC04, symBinAddr: 0x10000E334, symSize: 0x5C }
  - { offsetInCU: 0x274AD, offset: 0x356FC, size: 0x8, addend: 0x0, symName: __ZNSt3__117__compressed_pairIPNS_6vectorI6neuronNS_9allocatorIS2_EEEERNS3_IS5_EEE6secondB8ue170006Ev, symObjAddr: 0xAC60, symBinAddr: 0x10000E390, symSize: 0x28 }
  - { offsetInCU: 0x274D1, offset: 0x35720, size: 0x8, addend: 0x0, symName: __ZNSt3__122__compressed_pair_elemIRNS_9allocatorINS_6vectorI6neuronNS1_IS3_EEEEEELi1ELb0EE5__getB8ue170006Ev, symObjAddr: 0xAC88, symBinAddr: 0x10000E3B8, symSize: 0x18 }
  - { offsetInCU: 0x274F5, offset: 0x35744, size: 0x8, addend: 0x0, symName: __ZNSt3__117__compressed_pairIPNS_6vectorI6neuronNS_9allocatorIS2_EEEERNS3_IS5_EEE5firstB8ue170006Ev, symObjAddr: 0xACA0, symBinAddr: 0x10000E3D0, symSize: 0x24 }
  - { offsetInCU: 0x27519, offset: 0x35768, size: 0x8, addend: 0x0, symName: __ZNSt3__116reverse_iteratorIPNS_6vectorI6neuronNS_9allocatorIS2_EEEEEC1B8ue170006ES6_, symObjAddr: 0xADF0, symBinAddr: 0x10000E520, symSize: 0x34 }
  - { offsetInCU: 0x2754F, offset: 0x3579E, size: 0x8, addend: 0x0, symName: __ZNKSt3__116reverse_iteratorIPNS_6vectorI6neuronNS_9allocatorIS2_EEEEE4baseB8ue170006Ev, symObjAddr: 0xAE24, symBinAddr: 0x10000E554, symSize: 0x18 }
  - { offsetInCU: 0x27573, offset: 0x357C2, size: 0x8, addend: 0x0, symName: __ZNKSt3__16vectorINS0_I6neuronNS_9allocatorIS1_EEEENS2_IS4_EEE14__annotate_newB8ue170006Em, symObjAddr: 0xAE78, symBinAddr: 0x10000E5A8, symSize: 0xC8 }
  - { offsetInCU: 0x275A6, offset: 0x357F5, size: 0x8, addend: 0x0, symName: __ZNSt3__129_AllocatorDestroyRangeReverseINS_9allocatorINS_6vectorI6neuronNS1_IS3_EEEEEENS_16reverse_iteratorIPS5_EEEC1B8ue170006ERS6_RS9_SC_, symObjAddr: 0xAF8C, symBinAddr: 0x10000E6BC, symSize: 0x44 }
  - { offsetInCU: 0x275FB, offset: 0x3584A, size: 0x8, addend: 0x0, symName: __ZNKSt3__116reverse_iteratorIPNS_6vectorI6neuronNS_9allocatorIS2_EEEEEdeB8ue170006Ev, symObjAddr: 0xB03C, symBinAddr: 0x10000E76C, symSize: 0x28 }
  - { offsetInCU: 0x2762D, offset: 0x3587C, size: 0x8, addend: 0x0, symName: __ZNSt3__116reverse_iteratorIPNS_6vectorI6neuronNS_9allocatorIS2_EEEEEppB8ue170006Ev, symObjAddr: 0xB064, symBinAddr: 0x10000E794, symSize: 0x20 }
  - { offsetInCU: 0x27651, offset: 0x358A0, size: 0x8, addend: 0x0, symName: __ZNSt3__128__exception_guard_exceptionsINS_29_AllocatorDestroyRangeReverseINS_9allocatorINS_6vectorI6neuronNS2_IS4_EEEEEENS_16reverse_iteratorIPS6_EEEEE10__completeB8ue170006Ev, symObjAddr: 0xB084, symBinAddr: 0x10000E7B4, symSize: 0x1C }
  - { offsetInCU: 0x27675, offset: 0x358C4, size: 0x8, addend: 0x0, symName: __ZNSt3__128__exception_guard_exceptionsINS_29_AllocatorDestroyRangeReverseINS_9allocatorINS_6vectorI6neuronNS2_IS4_EEEEEENS_16reverse_iteratorIPS6_EEEEED1B8ue170006Ev, symObjAddr: 0xB0A0, symBinAddr: 0x10000E7D0, symSize: 0x2C }
  - { offsetInCU: 0x2769D, offset: 0x358EC, size: 0x8, addend: 0x0, symName: __ZNSt3__128__exception_guard_exceptionsINS_29_AllocatorDestroyRangeReverseINS_9allocatorINS_6vectorI6neuronNS2_IS4_EEEEEENS_16reverse_iteratorIPS6_EEEEEC1B8ue170006ESB_, symObjAddr: 0xB0CC, symBinAddr: 0x10000E7FC, symSize: 0x34 }
  - { offsetInCU: 0x276D4, offset: 0x35923, size: 0x8, addend: 0x0, symName: __ZNSt3__128__exception_guard_exceptionsINS_29_AllocatorDestroyRangeReverseINS_9allocatorINS_6vectorI6neuronNS2_IS4_EEEEEENS_16reverse_iteratorIPS6_EEEEEC2B8ue170006ESB_, symObjAddr: 0xB100, symBinAddr: 0x10000E830, symSize: 0x30 }
  - { offsetInCU: 0x2770B, offset: 0x3595A, size: 0x8, addend: 0x0, symName: __ZNSt3__129_AllocatorDestroyRangeReverseINS_9allocatorINS_6vectorI6neuronNS1_IS3_EEEEEENS_16reverse_iteratorIPS5_EEEC2B8ue170006ERS6_RS9_SC_, symObjAddr: 0xB130, symBinAddr: 0x10000E860, symSize: 0x38 }
  - { offsetInCU: 0x27765, offset: 0x359B4, size: 0x8, addend: 0x0, symName: __ZNSt3__119__to_address_helperINS_16reverse_iteratorIPNS_6vectorI6neuronNS_9allocatorIS3_EEEEEEvE6__callB8ue170006ERKS8_, symObjAddr: 0xB168, symBinAddr: 0x10000E898, symSize: 0x38 }
  - { offsetInCU: 0x27787, offset: 0x359D6, size: 0x8, addend: 0x0, symName: __ZNKSt3__116reverse_iteratorIPNS_6vectorI6neuronNS_9allocatorIS2_EEEEEptB8ue170006Ev, symObjAddr: 0xB1A0, symBinAddr: 0x10000E8D0, symSize: 0x24 }
  - { offsetInCU: 0x277AB, offset: 0x359FA, size: 0x8, addend: 0x0, symName: __ZNSt3__128__exception_guard_exceptionsINS_29_AllocatorDestroyRangeReverseINS_9allocatorINS_6vectorI6neuronNS2_IS4_EEEEEENS_16reverse_iteratorIPS6_EEEEED2B8ue170006Ev, symObjAddr: 0xB1C4, symBinAddr: 0x10000E8F4, symSize: 0x50 }
  - { offsetInCU: 0x277D3, offset: 0x35A22, size: 0x8, addend: 0x0, symName: __ZNKSt3__129_AllocatorDestroyRangeReverseINS_9allocatorINS_6vectorI6neuronNS1_IS3_EEEEEENS_16reverse_iteratorIPS5_EEEclB8ue170006Ev, symObjAddr: 0xB214, symBinAddr: 0x10000E944, symSize: 0xB4 }
  - { offsetInCU: 0x277F8, offset: 0x35A47, size: 0x8, addend: 0x0, symName: __ZNSt3__116reverse_iteratorINS0_IPNS_6vectorI6neuronNS_9allocatorIS2_EEEEEEEC1B8ue170006ES7_, symObjAddr: 0xB338, symBinAddr: 0x10000EA68, symSize: 0x3C }
  - { offsetInCU: 0x2782E, offset: 0x35A7D, size: 0x8, addend: 0x0, symName: __ZNSt3__116reverse_iteratorINS0_IPNS_6vectorI6neuronNS_9allocatorIS2_EEEEEEEppB8ue170006Ev, symObjAddr: 0xB3F8, symBinAddr: 0x10000EB28, symSize: 0x30 }
  - { offsetInCU: 0x27852, offset: 0x35AA1, size: 0x8, addend: 0x0, symName: __ZNKSt3__116reverse_iteratorINS0_IPNS_6vectorI6neuronNS_9allocatorIS2_EEEEEEE4baseB8ue170006Ev, symObjAddr: 0xB428, symBinAddr: 0x10000EB58, symSize: 0x24 }
  - { offsetInCU: 0x2787B, offset: 0x35ACA, size: 0x8, addend: 0x0, symName: __ZNSt3__119__to_address_helperINS_16reverse_iteratorINS1_IPNS_6vectorI6neuronNS_9allocatorIS3_EEEEEEEEvE6__callB8ue170006ERKS9_, symObjAddr: 0xB44C, symBinAddr: 0x10000EB7C, symSize: 0x38 }
  - { offsetInCU: 0x2789D, offset: 0x35AEC, size: 0x8, addend: 0x0, symName: __ZNKSt3__116reverse_iteratorINS0_IPNS_6vectorI6neuronNS_9allocatorIS2_EEEEEEEptB8ue170006Ev, symObjAddr: 0xB484, symBinAddr: 0x10000EBB4, symSize: 0x24 }
  - { offsetInCU: 0x278C1, offset: 0x35B10, size: 0x8, addend: 0x0, symName: __ZNKSt3__116reverse_iteratorINS0_IPNS_6vectorI6neuronNS_9allocatorIS2_EEEEEEEdeB8ue170006Ev, symObjAddr: 0xB4A8, symBinAddr: 0x10000EBD8, symSize: 0x34 }
  - { offsetInCU: 0x278F3, offset: 0x35B42, size: 0x8, addend: 0x0, symName: __ZNSt3__116reverse_iteratorIPNS_6vectorI6neuronNS_9allocatorIS2_EEEEEmmB8ue170006Ev, symObjAddr: 0xB4DC, symBinAddr: 0x10000EC0C, symSize: 0x20 }
  - { offsetInCU: 0x27917, offset: 0x35B66, size: 0x8, addend: 0x0, symName: __ZNSt3__116reverse_iteratorINS0_IPNS_6vectorI6neuronNS_9allocatorIS2_EEEEEEEC2B8ue170006ES7_, symObjAddr: 0xB4FC, symBinAddr: 0x10000EC2C, symSize: 0x2C }
  - { offsetInCU: 0x2794D, offset: 0x35B9C, size: 0x8, addend: 0x0, symName: __ZNSt3__116reverse_iteratorIPNS_6vectorI6neuronNS_9allocatorIS2_EEEEEC2B8ue170006ES6_, symObjAddr: 0xB528, symBinAddr: 0x10000EC58, symSize: 0x28 }
  - { offsetInCU: 0x27983, offset: 0x35BD2, size: 0x8, addend: 0x0, symName: __ZNSt3__114__split_bufferINS_6vectorI6neuronNS_9allocatorIS2_EEEERNS3_IS5_EEED2Ev, symObjAddr: 0xB550, symBinAddr: 0x10000EC80, symSize: 0x8C }
  - { offsetInCU: 0x279AE, offset: 0x35BFD, size: 0x8, addend: 0x0, symName: __ZNSt3__114__split_bufferINS_6vectorI6neuronNS_9allocatorIS2_EEEERNS3_IS5_EEE5clearB8ue170006Ev, symObjAddr: 0xB5DC, symBinAddr: 0x10000ED0C, symSize: 0x28 }
  - { offsetInCU: 0x279D2, offset: 0x35C21, size: 0x8, addend: 0x0, symName: __ZNKSt3__114__split_bufferINS_6vectorI6neuronNS_9allocatorIS2_EEEERNS3_IS5_EEE8capacityB8ue170006Ev, symObjAddr: 0xB604, symBinAddr: 0x10000ED34, symSize: 0x40 }
  - { offsetInCU: 0x279F6, offset: 0x35C45, size: 0x8, addend: 0x0, symName: __ZNSt3__114__split_bufferINS_6vectorI6neuronNS_9allocatorIS2_EEEERNS3_IS5_EEE17__destruct_at_endB8ue170006EPS5_, symObjAddr: 0xB644, symBinAddr: 0x10000ED74, symSize: 0x2C }
  - { offsetInCU: 0x27A28, offset: 0x35C77, size: 0x8, addend: 0x0, symName: __ZNSt3__114__split_bufferINS_6vectorI6neuronNS_9allocatorIS2_EEEERNS3_IS5_EEE17__destruct_at_endB8ue170006EPS5_NS_17integral_constantIbLb0EEE, symObjAddr: 0xB670, symBinAddr: 0x10000EDA0, symSize: 0x80 }
  - { offsetInCU: 0x27A68, offset: 0x35CB7, size: 0x8, addend: 0x0, symName: __ZNKSt3__114__split_bufferINS_6vectorI6neuronNS_9allocatorIS2_EEEERNS3_IS5_EEE9__end_capB8ue170006Ev, symObjAddr: 0xB6F0, symBinAddr: 0x10000EE20, symSize: 0x28 }
  - { offsetInCU: 0x27A8C, offset: 0x35CDB, size: 0x8, addend: 0x0, symName: __ZNKSt3__117__compressed_pairIPNS_6vectorI6neuronNS_9allocatorIS2_EEEERNS3_IS5_EEE5firstB8ue170006Ev, symObjAddr: 0xB718, symBinAddr: 0x10000EE48, symSize: 0x24 }
  - { offsetInCU: 0x27AB0, offset: 0x35CFF, size: 0x8, addend: 0x0, symName: __ZNSt3__16vectorI5valueNS_9allocatorIS1_EEEC2B8ue170006Ev, symObjAddr: 0xB73C, symBinAddr: 0x10000EE6C, symSize: 0x4C }
  - { offsetInCU: 0x27AD8, offset: 0x35D27, size: 0x8, addend: 0x0, symName: __ZNSt3__117__compressed_pairIP5valueNS_9allocatorIS1_EEEC1B8ue170006IDnNS_18__default_init_tagEEEOT_OT0_, symObjAddr: 0xB788, symBinAddr: 0x10000EEB8, symSize: 0x3C }
  - { offsetInCU: 0x27B2E, offset: 0x35D7D, size: 0x8, addend: 0x0, symName: __ZNSt3__117__compressed_pairIP5valueNS_9allocatorIS1_EEEC2B8ue170006IDnNS_18__default_init_tagEEEOT_OT0_, symObjAddr: 0xB7C4, symBinAddr: 0x10000EEF4, symSize: 0x40 }
  - { offsetInCU: 0x27B84, offset: 0x35DD3, size: 0x8, addend: 0x0, symName: __ZNSt3__122__compressed_pair_elemIP5valueLi0ELb0EEC2B8ue170006IDnvEEOT_, symObjAddr: 0xB804, symBinAddr: 0x10000EF34, symSize: 0x1C }
  - { offsetInCU: 0x27BC4, offset: 0x35E13, size: 0x8, addend: 0x0, symName: __ZNSt3__122__compressed_pair_elemINS_9allocatorI5valueEELi1ELb1EEC2B8ue170006ENS_18__default_init_tagE, symObjAddr: 0xB820, symBinAddr: 0x10000EF50, symSize: 0x2C }
  - { offsetInCU: 0x27BF7, offset: 0x35E46, size: 0x8, addend: 0x0, symName: __ZNSt3__19allocatorI5valueEC2B8ue170006Ev, symObjAddr: 0xB84C, symBinAddr: 0x10000EF7C, symSize: 0x2C }
  - { offsetInCU: 0x27C1F, offset: 0x35E6E, size: 0x8, addend: 0x0, symName: __ZNSt3__116__non_trivial_ifILb1ENS_9allocatorI5valueEEEC2B8ue170006Ev, symObjAddr: 0xB878, symBinAddr: 0x10000EFA8, symSize: 0x14 }
  - { offsetInCU: 0x27C47, offset: 0x35E96, size: 0x8, addend: 0x0, symName: __ZNSt3__16vectorI6neuronNS_9allocatorIS1_EEE11__make_iterB8ue170006EPS1_, symObjAddr: 0xB88C, symBinAddr: 0x10000EFBC, symSize: 0x30 }
  - { offsetInCU: 0x27C7A, offset: 0x35EC9, size: 0x8, addend: 0x0, symName: __ZNSt3__111__wrap_iterIP6neuronEC1B8ue170006ES2_, symObjAddr: 0xB8BC, symBinAddr: 0x10000EFEC, symSize: 0x34 }
  - { offsetInCU: 0x27CB0, offset: 0x35EFF, size: 0x8, addend: 0x0, symName: __ZNSt3__111__wrap_iterIP6neuronEC2B8ue170006ES2_, symObjAddr: 0xB8F0, symBinAddr: 0x10000F020, symSize: 0x20 }
  - { offsetInCU: 0x27CE6, offset: 0x35F35, size: 0x8, addend: 0x0, symName: __ZNSt3__16vectorINS_6futureINS0_I5valueNS_9allocatorIS2_EEEEEENS3_IS6_EEEC2B8ue170006Ev, symObjAddr: 0xB910, symBinAddr: 0x10000F040, symSize: 0x4C }
  - { offsetInCU: 0x27D0E, offset: 0x35F5D, size: 0x8, addend: 0x0, symName: __ZNSt3__117__compressed_pairIPNS_6futureINS_6vectorI5valueNS_9allocatorIS3_EEEEEENS4_IS7_EEEC1B8ue170006IDnNS_18__default_init_tagEEEOT_OT0_, symObjAddr: 0xB95C, symBinAddr: 0x10000F08C, symSize: 0x3C }
  - { offsetInCU: 0x27D64, offset: 0x35FB3, size: 0x8, addend: 0x0, symName: __ZNSt3__117__compressed_pairIPNS_6futureINS_6vectorI5valueNS_9allocatorIS3_EEEEEENS4_IS7_EEEC2B8ue170006IDnNS_18__default_init_tagEEEOT_OT0_, symObjAddr: 0xB998, symBinAddr: 0x10000F0C8, symSize: 0x40 }
  - { offsetInCU: 0x27DBA, offset: 0x36009, size: 0x8, addend: 0x0, symName: __ZNSt3__122__compressed_pair_elemIPNS_6futureINS_6vectorI5valueNS_9allocatorIS3_EEEEEELi0ELb0EEC2B8ue170006IDnvEEOT_, symObjAddr: 0xB9D8, symBinAddr: 0x10000F108, symSize: 0x1C }
  - { offsetInCU: 0x27DFA, offset: 0x36049, size: 0x8, addend: 0x0, symName: __ZNSt3__122__compressed_pair_elemINS_9allocatorINS_6futureINS_6vectorI5valueNS1_IS4_EEEEEEEELi1ELb1EEC2B8ue170006ENS_18__default_init_tagE, symObjAddr: 0xB9F4, symBinAddr: 0x10000F124, symSize: 0x2C }
  - { offsetInCU: 0x27E2D, offset: 0x3607C, size: 0x8, addend: 0x0, symName: __ZNSt3__19allocatorINS_6futureINS_6vectorI5valueNS0_IS3_EEEEEEEC2B8ue170006Ev, symObjAddr: 0xBA20, symBinAddr: 0x10000F150, symSize: 0x2C }
  - { offsetInCU: 0x27E55, offset: 0x360A4, size: 0x8, addend: 0x0, symName: __ZNSt3__116__non_trivial_ifILb1ENS_9allocatorINS_6futureINS_6vectorI5valueNS1_IS4_EEEEEEEEEC2B8ue170006Ev, symObjAddr: 0xBA4C, symBinAddr: 0x10000F17C, symSize: 0x14 }
  - { offsetInCU: 0x27E7D, offset: 0x360CC, size: 0x8, addend: 0x0, symName: __ZNSt3__16vectorINS_6futureINS0_I5valueNS_9allocatorIS2_EEEEEENS3_IS6_EEED2B8ue170006Ev, symObjAddr: 0xBA60, symBinAddr: 0x10000F190, symSize: 0x44 }
  - { offsetInCU: 0x27EA5, offset: 0x360F4, size: 0x8, addend: 0x0, symName: __ZNSt3__16vectorINS_6futureINS0_I5valueNS_9allocatorIS2_EEEEEENS3_IS6_EEE16__destroy_vectorC1B8ue170006ERS8_, symObjAddr: 0xBAA4, symBinAddr: 0x10000F1D4, symSize: 0x34 }
  - { offsetInCU: 0x27EDC, offset: 0x3612B, size: 0x8, addend: 0x0, symName: __ZNSt3__16vectorINS_6futureINS0_I5valueNS_9allocatorIS2_EEEEEENS3_IS6_EEE16__destroy_vectorclB8ue170006Ev, symObjAddr: 0xBAD8, symBinAddr: 0x10000F208, symSize: 0x90 }
  - { offsetInCU: 0x27F00, offset: 0x3614F, size: 0x8, addend: 0x0, symName: __ZNSt3__16vectorINS_6futureINS0_I5valueNS_9allocatorIS2_EEEEEENS3_IS6_EEE16__destroy_vectorC2B8ue170006ERS8_, symObjAddr: 0xBB68, symBinAddr: 0x10000F298, symSize: 0x20 }
  - { offsetInCU: 0x27F37, offset: 0x36186, size: 0x8, addend: 0x0, symName: __ZNSt3__16vectorINS_6futureINS0_I5valueNS_9allocatorIS2_EEEEEENS3_IS6_EEE7__clearB8ue170006Ev, symObjAddr: 0xBB88, symBinAddr: 0x10000F2B8, symSize: 0x28 }
  - { offsetInCU: 0x27F5B, offset: 0x361AA, size: 0x8, addend: 0x0, symName: __ZNKSt3__16vectorINS_6futureINS0_I5valueNS_9allocatorIS2_EEEEEENS3_IS6_EEE17__annotate_deleteB8ue170006Ev, symObjAddr: 0xBBB0, symBinAddr: 0x10000F2E0, symSize: 0xB8 }
  - { offsetInCU: 0x27F7F, offset: 0x361CE, size: 0x8, addend: 0x0, symName: __ZNSt3__116allocator_traitsINS_9allocatorINS_6futureINS_6vectorI5valueNS1_IS4_EEEEEEEEE10deallocateB8ue170006ERS8_PS7_m, symObjAddr: 0xBC68, symBinAddr: 0x10000F398, symSize: 0x34 }
  - { offsetInCU: 0x27FC0, offset: 0x3620F, size: 0x8, addend: 0x0, symName: __ZNSt3__16vectorINS_6futureINS0_I5valueNS_9allocatorIS2_EEEEEENS3_IS6_EEE7__allocB8ue170006Ev, symObjAddr: 0xBC9C, symBinAddr: 0x10000F3CC, symSize: 0x28 }
  - { offsetInCU: 0x27FE4, offset: 0x36233, size: 0x8, addend: 0x0, symName: __ZNKSt3__16vectorINS_6futureINS0_I5valueNS_9allocatorIS2_EEEEEENS3_IS6_EEE8capacityB8ue170006Ev, symObjAddr: 0xBCC4, symBinAddr: 0x10000F3F4, symSize: 0x40 }
  - { offsetInCU: 0x28008, offset: 0x36257, size: 0x8, addend: 0x0, symName: __ZNSt3__16vectorINS_6futureINS0_I5valueNS_9allocatorIS2_EEEEEENS3_IS6_EEE22__base_destruct_at_endB8ue170006EPS6_, symObjAddr: 0xBD04, symBinAddr: 0x10000F434, symSize: 0x8C }
  - { offsetInCU: 0x2804A, offset: 0x36299, size: 0x8, addend: 0x0, symName: __ZNSt3__116allocator_traitsINS_9allocatorINS_6futureINS_6vectorI5valueNS1_IS4_EEEEEEEEE7destroyB8ue170006IS7_vEEvRS8_PT_, symObjAddr: 0xBD90, symBinAddr: 0x10000F4C0, symSize: 0x2C }
  - { offsetInCU: 0x28086, offset: 0x362D5, size: 0x8, addend: 0x0, symName: __ZNSt3__19allocatorINS_6futureINS_6vectorI5valueNS0_IS3_EEEEEEE7destroyB8ue170006EPS6_, symObjAddr: 0xBDD0, symBinAddr: 0x10000F500, symSize: 0x28 }
  - { offsetInCU: 0x280B8, offset: 0x36307, size: 0x8, addend: 0x0, symName: __ZNKSt3__16vectorINS_6futureINS0_I5valueNS_9allocatorIS2_EEEEEENS3_IS6_EEE31__annotate_contiguous_containerB8ue170006EPKvSA_SA_SA_, symObjAddr: 0xBDF8, symBinAddr: 0x10000F528, symSize: 0x20 }
  - { offsetInCU: 0x28108, offset: 0x36357, size: 0x8, addend: 0x0, symName: __ZNKSt3__16vectorINS_6futureINS0_I5valueNS_9allocatorIS2_EEEEEENS3_IS6_EEE4dataB8ue170006Ev, symObjAddr: 0xBE18, symBinAddr: 0x10000F548, symSize: 0x28 }
  - { offsetInCU: 0x2812C, offset: 0x3637B, size: 0x8, addend: 0x0, symName: __ZNKSt3__16vectorINS_6futureINS0_I5valueNS_9allocatorIS2_EEEEEENS3_IS6_EEE4sizeB8ue170006Ev, symObjAddr: 0xBE40, symBinAddr: 0x10000F570, symSize: 0x28 }
  - { offsetInCU: 0x28150, offset: 0x3639F, size: 0x8, addend: 0x0, symName: __ZNSt3__19allocatorINS_6futureINS_6vectorI5valueNS0_IS3_EEEEEEE10deallocateB8ue170006EPS6_m, symObjAddr: 0xBE68, symBinAddr: 0x10000F598, symSize: 0x40 }
  - { offsetInCU: 0x28190, offset: 0x363DF, size: 0x8, addend: 0x0, symName: __ZNSt3__117__compressed_pairIPNS_6futureINS_6vectorI5valueNS_9allocatorIS3_EEEEEENS4_IS7_EEE6secondB8ue170006Ev, symObjAddr: 0xBEA8, symBinAddr: 0x10000F5D8, symSize: 0x24 }
  - { offsetInCU: 0x281B4, offset: 0x36403, size: 0x8, addend: 0x0, symName: __ZNSt3__122__compressed_pair_elemINS_9allocatorINS_6futureINS_6vectorI5valueNS1_IS4_EEEEEEEELi1ELb1EE5__getB8ue170006Ev, symObjAddr: 0xBECC, symBinAddr: 0x10000F5FC, symSize: 0x14 }
  - { offsetInCU: 0x281D8, offset: 0x36427, size: 0x8, addend: 0x0, symName: __ZNKSt3__16vectorINS_6futureINS0_I5valueNS_9allocatorIS2_EEEEEENS3_IS6_EEE9__end_capB8ue170006Ev, symObjAddr: 0xBEE0, symBinAddr: 0x10000F610, symSize: 0x28 }
  - { offsetInCU: 0x281FC, offset: 0x3644B, size: 0x8, addend: 0x0, symName: __ZNKSt3__117__compressed_pairIPNS_6futureINS_6vectorI5valueNS_9allocatorIS3_EEEEEENS4_IS7_EEE5firstB8ue170006Ev, symObjAddr: 0xBF08, symBinAddr: 0x10000F638, symSize: 0x24 }
  - { offsetInCU: 0x28220, offset: 0x3646F, size: 0x8, addend: 0x0, symName: __ZNKSt3__122__compressed_pair_elemIPNS_6futureINS_6vectorI5valueNS_9allocatorIS3_EEEEEELi0ELb0EE5__getB8ue170006Ev, symObjAddr: 0xBF2C, symBinAddr: 0x10000F65C, symSize: 0x14 }
  - { offsetInCU: 0x28244, offset: 0x36493, size: 0x8, addend: 0x0, symName: __ZNSt3__16vectorINS0_I5valueNS_9allocatorIS1_EEEENS2_IS4_EEEC2B8ue170006Ev, symObjAddr: 0xBF40, symBinAddr: 0x10000F670, symSize: 0x4C }
  - { offsetInCU: 0x2826C, offset: 0x364BB, size: 0x8, addend: 0x0, symName: __ZNSt3__117__compressed_pairIPNS_6vectorI5valueNS_9allocatorIS2_EEEENS3_IS5_EEEC1B8ue170006IDnNS_18__default_init_tagEEEOT_OT0_, symObjAddr: 0xBF8C, symBinAddr: 0x10000F6BC, symSize: 0x3C }
  - { offsetInCU: 0x282C2, offset: 0x36511, size: 0x8, addend: 0x0, symName: __ZNSt3__117__compressed_pairIPNS_6vectorI5valueNS_9allocatorIS2_EEEENS3_IS5_EEEC2B8ue170006IDnNS_18__default_init_tagEEEOT_OT0_, symObjAddr: 0xBFC8, symBinAddr: 0x10000F6F8, symSize: 0x40 }
  - { offsetInCU: 0x28318, offset: 0x36567, size: 0x8, addend: 0x0, symName: __ZNSt3__122__compressed_pair_elemIPNS_6vectorI5valueNS_9allocatorIS2_EEEELi0ELb0EEC2B8ue170006IDnvEEOT_, symObjAddr: 0xC008, symBinAddr: 0x10000F738, symSize: 0x1C }
  - { offsetInCU: 0x28358, offset: 0x365A7, size: 0x8, addend: 0x0, symName: __ZNSt3__122__compressed_pair_elemINS_9allocatorINS_6vectorI5valueNS1_IS3_EEEEEELi1ELb1EEC2B8ue170006ENS_18__default_init_tagE, symObjAddr: 0xC024, symBinAddr: 0x10000F754, symSize: 0x2C }
  - { offsetInCU: 0x2838B, offset: 0x365DA, size: 0x8, addend: 0x0, symName: __ZNSt3__19allocatorINS_6vectorI5valueNS0_IS2_EEEEEC2B8ue170006Ev, symObjAddr: 0xC050, symBinAddr: 0x10000F780, symSize: 0x2C }
  - { offsetInCU: 0x283B3, offset: 0x36602, size: 0x8, addend: 0x0, symName: __ZNSt3__116__non_trivial_ifILb1ENS_9allocatorINS_6vectorI5valueNS1_IS3_EEEEEEEC2B8ue170006Ev, symObjAddr: 0xC07C, symBinAddr: 0x10000F7AC, symSize: 0x14 }
  - { offsetInCU: 0x283DB, offset: 0x3662A, size: 0x8, addend: 0x0, symName: __ZNSt3__16vectorINS0_I5valueNS_9allocatorIS1_EEEENS2_IS4_EEED2B8ue170006Ev, symObjAddr: 0xC090, symBinAddr: 0x10000F7C0, symSize: 0x44 }
  - { offsetInCU: 0x28403, offset: 0x36652, size: 0x8, addend: 0x0, symName: __ZNSt3__16vectorINS0_I5valueNS_9allocatorIS1_EEEENS2_IS4_EEE16__destroy_vectorC1B8ue170006ERS6_, symObjAddr: 0xC0D4, symBinAddr: 0x10000F804, symSize: 0x34 }
  - { offsetInCU: 0x2843A, offset: 0x36689, size: 0x8, addend: 0x0, symName: __ZNSt3__16vectorINS0_I5valueNS_9allocatorIS1_EEEENS2_IS4_EEE16__destroy_vectorclB8ue170006Ev, symObjAddr: 0xC108, symBinAddr: 0x10000F838, symSize: 0x90 }
  - { offsetInCU: 0x2845E, offset: 0x366AD, size: 0x8, addend: 0x0, symName: __ZNSt3__16vectorINS0_I5valueNS_9allocatorIS1_EEEENS2_IS4_EEE16__destroy_vectorC2B8ue170006ERS6_, symObjAddr: 0xC198, symBinAddr: 0x10000F8C8, symSize: 0x20 }
  - { offsetInCU: 0x28495, offset: 0x366E4, size: 0x8, addend: 0x0, symName: __ZNSt3__16vectorINS0_I5valueNS_9allocatorIS1_EEEENS2_IS4_EEE7__clearB8ue170006Ev, symObjAddr: 0xC1B8, symBinAddr: 0x10000F8E8, symSize: 0x28 }
  - { offsetInCU: 0x284B9, offset: 0x36708, size: 0x8, addend: 0x0, symName: __ZNKSt3__16vectorINS0_I5valueNS_9allocatorIS1_EEEENS2_IS4_EEE17__annotate_deleteB8ue170006Ev, symObjAddr: 0xC1E0, symBinAddr: 0x10000F910, symSize: 0xD4 }
  - { offsetInCU: 0x284DD, offset: 0x3672C, size: 0x8, addend: 0x0, symName: __ZNSt3__116allocator_traitsINS_9allocatorINS_6vectorI5valueNS1_IS3_EEEEEEE10deallocateB8ue170006ERS6_PS5_m, symObjAddr: 0xC2B4, symBinAddr: 0x10000F9E4, symSize: 0x34 }
  - { offsetInCU: 0x2851E, offset: 0x3676D, size: 0x8, addend: 0x0, symName: __ZNSt3__16vectorINS0_I5valueNS_9allocatorIS1_EEEENS2_IS4_EEE7__allocB8ue170006Ev, symObjAddr: 0xC2E8, symBinAddr: 0x10000FA18, symSize: 0x28 }
  - { offsetInCU: 0x28542, offset: 0x36791, size: 0x8, addend: 0x0, symName: __ZNKSt3__16vectorINS0_I5valueNS_9allocatorIS1_EEEENS2_IS4_EEE8capacityB8ue170006Ev, symObjAddr: 0xC310, symBinAddr: 0x10000FA40, symSize: 0x40 }
  - { offsetInCU: 0x28566, offset: 0x367B5, size: 0x8, addend: 0x0, symName: __ZNSt3__16vectorINS0_I5valueNS_9allocatorIS1_EEEENS2_IS4_EEE22__base_destruct_at_endB8ue170006EPS4_, symObjAddr: 0xC350, symBinAddr: 0x10000FA80, symSize: 0x8C }
  - { offsetInCU: 0x285A8, offset: 0x367F7, size: 0x8, addend: 0x0, symName: __ZNSt3__116allocator_traitsINS_9allocatorINS_6vectorI5valueNS1_IS3_EEEEEEE7destroyB8ue170006IS5_vEEvRS6_PT_, symObjAddr: 0xC3DC, symBinAddr: 0x10000FB0C, symSize: 0x2C }
  - { offsetInCU: 0x285E4, offset: 0x36833, size: 0x8, addend: 0x0, symName: __ZNSt3__19allocatorINS_6vectorI5valueNS0_IS2_EEEEE7destroyB8ue170006EPS4_, symObjAddr: 0xC41C, symBinAddr: 0x10000FB4C, symSize: 0x28 }
  - { offsetInCU: 0x28616, offset: 0x36865, size: 0x8, addend: 0x0, symName: __ZNKSt3__16vectorINS0_I5valueNS_9allocatorIS1_EEEENS2_IS4_EEE31__annotate_contiguous_containerB8ue170006EPKvS8_S8_S8_, symObjAddr: 0xC444, symBinAddr: 0x10000FB74, symSize: 0x20 }
  - { offsetInCU: 0x28666, offset: 0x368B5, size: 0x8, addend: 0x0, symName: __ZNKSt3__16vectorINS0_I5valueNS_9allocatorIS1_EEEENS2_IS4_EEE4dataB8ue170006Ev, symObjAddr: 0xC464, symBinAddr: 0x10000FB94, symSize: 0x28 }
  - { offsetInCU: 0x2868A, offset: 0x368D9, size: 0x8, addend: 0x0, symName: __ZNKSt3__16vectorINS0_I5valueNS_9allocatorIS1_EEEENS2_IS4_EEE4sizeB8ue170006Ev, symObjAddr: 0xC48C, symBinAddr: 0x10000FBBC, symSize: 0x28 }
  - { offsetInCU: 0x286AE, offset: 0x368FD, size: 0x8, addend: 0x0, symName: __ZNSt3__19allocatorINS_6vectorI5valueNS0_IS2_EEEEE10deallocateB8ue170006EPS4_m, symObjAddr: 0xC4B4, symBinAddr: 0x10000FBE4, symSize: 0x44 }
  - { offsetInCU: 0x286EE, offset: 0x3693D, size: 0x8, addend: 0x0, symName: __ZNSt3__117__compressed_pairIPNS_6vectorI5valueNS_9allocatorIS2_EEEENS3_IS5_EEE6secondB8ue170006Ev, symObjAddr: 0xC4F8, symBinAddr: 0x10000FC28, symSize: 0x24 }
  - { offsetInCU: 0x28712, offset: 0x36961, size: 0x8, addend: 0x0, symName: __ZNSt3__122__compressed_pair_elemINS_9allocatorINS_6vectorI5valueNS1_IS3_EEEEEELi1ELb1EE5__getB8ue170006Ev, symObjAddr: 0xC51C, symBinAddr: 0x10000FC4C, symSize: 0x14 }
  - { offsetInCU: 0x28736, offset: 0x36985, size: 0x8, addend: 0x0, symName: __ZNKSt3__16vectorINS0_I5valueNS_9allocatorIS1_EEEENS2_IS4_EEE9__end_capB8ue170006Ev, symObjAddr: 0xC530, symBinAddr: 0x10000FC60, symSize: 0x28 }
  - { offsetInCU: 0x2875A, offset: 0x369A9, size: 0x8, addend: 0x0, symName: __ZNKSt3__117__compressed_pairIPNS_6vectorI5valueNS_9allocatorIS2_EEEENS3_IS5_EEE5firstB8ue170006Ev, symObjAddr: 0xC558, symBinAddr: 0x10000FC88, symSize: 0x24 }
  - { offsetInCU: 0x2877E, offset: 0x369CD, size: 0x8, addend: 0x0, symName: __ZNKSt3__122__compressed_pair_elemIPNS_6vectorI5valueNS_9allocatorIS2_EEEELi0ELb0EE5__getB8ue170006Ev, symObjAddr: 0xC57C, symBinAddr: 0x10000FCAC, symSize: 0x14 }
  - { offsetInCU: 0x287A2, offset: 0x369F1, size: 0x8, addend: 0x0, symName: __ZNSt3__16vectorINS0_I6neuronNS_9allocatorIS1_EEEENS2_IS4_EEE11__make_iterB8ue170006EPS4_, symObjAddr: 0xC590, symBinAddr: 0x10000FCC0, symSize: 0x30 }
  - { offsetInCU: 0x287D5, offset: 0x36A24, size: 0x8, addend: 0x0, symName: __ZNSt3__111__wrap_iterIPNS_6vectorI6neuronNS_9allocatorIS2_EEEEEC1B8ue170006ES6_, symObjAddr: 0xC5C0, symBinAddr: 0x10000FCF0, symSize: 0x34 }
  - { offsetInCU: 0x2880B, offset: 0x36A5A, size: 0x8, addend: 0x0, symName: __ZNSt3__111__wrap_iterIPNS_6vectorI6neuronNS_9allocatorIS2_EEEEEC2B8ue170006ES6_, symObjAddr: 0xC5F4, symBinAddr: 0x10000FD24, symSize: 0x20 }
  - { offsetInCU: 0x28846, offset: 0x36A95, size: 0x8, addend: 0x0, symName: __ZNSt3__117reference_wrapperINS_6vectorI6neuronNS_9allocatorIS2_EEEEEC1B8ue170006IRS5_vEEOT_, symObjAddr: 0xC614, symBinAddr: 0x10000FD44, symSize: 0x34 }
  - { offsetInCU: 0x28886, offset: 0x36AD5, size: 0x8, addend: 0x0, symName: __ZNSt3__117reference_wrapperINS_6vectorI6neuronNS_9allocatorIS2_EEEEEC2B8ue170006IRS5_vEEOT_, symObjAddr: 0xC648, symBinAddr: 0x10000FD78, symSize: 0x28 }
  - { offsetInCU: 0x288E2, offset: 0x36B31, size: 0x8, addend: 0x0, symName: '__ZNSt3__15queueINS_8functionIFvvEEENS_5dequeIS3_NS_9allocatorIS3_EEEEE7emplaceB8ue170006IJZN10ThreadPool7enqueueIRZN5layer13forward_layerER11value_arrayE3$_0JNS_17reference_wrapperINS_6vectorI6neuronNS5_ISJ_EEEEEEEEENS_6futureIDTclfp_spfp0_EEEEOT_DpOT0_EUlvE_EEEDcDpOT_', symObjAddr: 0xC6E8, symBinAddr: 0x10000FE18, symSize: 0x2C }
  - { offsetInCU: 0x28920, offset: 0x36B6F, size: 0x8, addend: 0x0, symName: __ZNSt3__110shared_ptrINS_13packaged_taskIFNS_6vectorI5valueNS_9allocatorIS3_EEEEvEEEEC1B8ue170006ERKS9_, symObjAddr: 0xC714, symBinAddr: 0x10000FE44, symSize: 0x34 }
  - { offsetInCU: 0x2895C, offset: 0x36BAB, size: 0x8, addend: 0x0, symName: '__ZZN10ThreadPool7enqueueIRZN5layer13forward_layerER11value_arrayE3$_0JNSt3__117reference_wrapperINS6_6vectorI6neuronNS6_9allocatorIS9_EEEEEEEEENS6_6futureIDTclfp_spfp0_EEEEOT_DpOT0_ENUlvE_D1Ev', symObjAddr: 0xC748, symBinAddr: 0x10000FE78, symSize: 0x2C }
  - { offsetInCU: 0x28986, offset: 0x36BD5, size: 0x8, addend: 0x0, symName: __ZNKSt3__110shared_ptrINS_13packaged_taskIFNS_6vectorI5valueNS_9allocatorIS3_EEEEvEEEEptB8ue170006Ev, symObjAddr: 0xC774, symBinAddr: 0x10000FEA4, symSize: 0x18 }
  - { offsetInCU: 0x289AA, offset: 0x36BF9, size: 0x8, addend: 0x0, symName: __ZNSt3__113packaged_taskIFNS_6vectorI5valueNS_9allocatorIS2_EEEEvEE10get_futureB8ue170006Ev, symObjAddr: 0xC78C, symBinAddr: 0x10000FEBC, symSize: 0x30 }
  - { offsetInCU: 0x289CE, offset: 0x36C1D, size: 0x8, addend: 0x0, symName: __ZNSt3__110shared_ptrINS_13packaged_taskIFNS_6vectorI5valueNS_9allocatorIS3_EEEEvEEEED1B8ue170006Ev, symObjAddr: 0xC7BC, symBinAddr: 0x10000FEEC, symSize: 0x2C }
  - { offsetInCU: 0x289F6, offset: 0x36C45, size: 0x8, addend: 0x0, symName: __ZNSt3__19allocatorINS_13packaged_taskIFNS_6vectorI5valueNS0_IS3_EEEEvEEEEC1B8ue170006Ev, symObjAddr: 0xC880, symBinAddr: 0x10000FFB0, symSize: 0x2C }
  - { offsetInCU: 0x28A69, offset: 0x36CB8, size: 0x8, addend: 0x0, symName: __ZNSt3__118__allocation_guardINS_9allocatorINS_20__shared_ptr_emplaceINS_13packaged_taskIFNS_6vectorI5valueNS1_IS5_EEEEvEEENS1_IS9_EEEEEEEC1B8ue170006ISA_EET_m, symObjAddr: 0xC8AC, symBinAddr: 0x10000FFDC, symSize: 0x34 }
  - { offsetInCU: 0x28AB6, offset: 0x36D05, size: 0x8, addend: 0x0, symName: __ZNKSt3__118__allocation_guardINS_9allocatorINS_20__shared_ptr_emplaceINS_13packaged_taskIFNS_6vectorI5valueNS1_IS5_EEEEvEEENS1_IS9_EEEEEEE5__getB8ue170006Ev, symObjAddr: 0xC8E0, symBinAddr: 0x100010010, symSize: 0x18 }
  - { offsetInCU: 0x28B3E, offset: 0x36D8D, size: 0x8, addend: 0x0, symName: '__ZNSt3__120__shared_ptr_emplaceINS_13packaged_taskIFNS_6vectorI5valueNS_9allocatorIS3_EEEEvEEENS4_IS8_EEEC1B8ue170006IJNS_6__bindIRZN5layer13forward_layerER11value_arrayE3$_0JNS_17reference_wrapperINS2_I6neuronNS4_ISJ_EEEEEEEEEEEES9_DpOT_', symObjAddr: 0xC8F8, symBinAddr: 0x100010028, symSize: 0x34 }
  - { offsetInCU: 0x28B8F, offset: 0x36DDE, size: 0x8, addend: 0x0, symName: __ZNSt3__118__allocation_guardINS_9allocatorINS_20__shared_ptr_emplaceINS_13packaged_taskIFNS_6vectorI5valueNS1_IS5_EEEEvEEENS1_IS9_EEEEEEE13__release_ptrB8ue170006Ev, symObjAddr: 0xC92C, symBinAddr: 0x10001005C, symSize: 0x24 }
  - { offsetInCU: 0x28BC1, offset: 0x36E10, size: 0x8, addend: 0x0, symName: __ZNSt3__110shared_ptrINS_13packaged_taskIFNS_6vectorI5valueNS_9allocatorIS3_EEEEvEEEE27__create_with_control_blockB8ue170006IS8_NS_20__shared_ptr_emplaceIS8_NS4_IS8_EEEEEES9_PT_PT0_, symObjAddr: 0xC950, symBinAddr: 0x100010080, symSize: 0xA4 }
  - { offsetInCU: 0x28C15, offset: 0x36E64, size: 0x8, addend: 0x0, symName: __ZNSt3__120__shared_ptr_emplaceINS_13packaged_taskIFNS_6vectorI5valueNS_9allocatorIS3_EEEEvEEENS4_IS8_EEE10__get_elemB8ue170006Ev, symObjAddr: 0xC9F4, symBinAddr: 0x100010124, symSize: 0x28 }
  - { offsetInCU: 0x28C39, offset: 0x36E88, size: 0x8, addend: 0x0, symName: __ZNSt3__118__allocation_guardINS_9allocatorINS_20__shared_ptr_emplaceINS_13packaged_taskIFNS_6vectorI5valueNS1_IS5_EEEEvEEENS1_IS9_EEEEEEED1B8ue170006Ev, symObjAddr: 0xCA1C, symBinAddr: 0x10001014C, symSize: 0x2C }
  - { offsetInCU: 0x28C61, offset: 0x36EB0, size: 0x8, addend: 0x0, symName: __ZNSt3__118__allocation_guardINS_9allocatorINS_20__shared_ptr_emplaceINS_13packaged_taskIFNS_6vectorI5valueNS1_IS5_EEEEvEEENS1_IS9_EEEEEEEC2B8ue170006ISA_EET_m, symObjAddr: 0xCA48, symBinAddr: 0x100010178, symSize: 0x50 }
  - { offsetInCU: 0x28CAE, offset: 0x36EFD, size: 0x8, addend: 0x0, symName: __ZNSt3__19allocatorINS_20__shared_ptr_emplaceINS_13packaged_taskIFNS_6vectorI5valueNS0_IS4_EEEEvEEENS0_IS8_EEEEEC1B8ue170006IS8_EERKNS0_IT_EE, symObjAddr: 0xCA98, symBinAddr: 0x1000101C8, symSize: 0x34 }
  - { offsetInCU: 0x28CEA, offset: 0x36F39, size: 0x8, addend: 0x0, symName: __ZNSt3__116allocator_traitsINS_9allocatorINS_20__shared_ptr_emplaceINS_13packaged_taskIFNS_6vectorI5valueNS1_IS5_EEEEvEEENS1_IS9_EEEEEEE8allocateB8ue170006ERSC_m, symObjAddr: 0xCACC, symBinAddr: 0x1000101FC, symSize: 0x2C }
  - { offsetInCU: 0x28D1C, offset: 0x36F6B, size: 0x8, addend: 0x0, symName: __ZNSt3__19allocatorINS_20__shared_ptr_emplaceINS_13packaged_taskIFNS_6vectorI5valueNS0_IS4_EEEEvEEENS0_IS8_EEEEEC2B8ue170006IS8_EERKNS0_IT_EE, symObjAddr: 0xCAF8, symBinAddr: 0x100010228, symSize: 0x30 }
  - { offsetInCU: 0x28D58, offset: 0x36FA7, size: 0x8, addend: 0x0, symName: __ZNSt3__116__non_trivial_ifILb1ENS_9allocatorINS_20__shared_ptr_emplaceINS_13packaged_taskIFNS_6vectorI5valueNS1_IS5_EEEEvEEENS1_IS9_EEEEEEEC2B8ue170006Ev, symObjAddr: 0xCB28, symBinAddr: 0x100010258, symSize: 0x14 }
  - { offsetInCU: 0x28D80, offset: 0x36FCF, size: 0x8, addend: 0x0, symName: __ZNSt3__19allocatorINS_20__shared_ptr_emplaceINS_13packaged_taskIFNS_6vectorI5valueNS0_IS4_EEEEvEEENS0_IS8_EEEEE8allocateB8ue170006Em, symObjAddr: 0xCB3C, symBinAddr: 0x10001026C, symSize: 0x58 }
  - { offsetInCU: 0x28DBC, offset: 0x3700B, size: 0x8, addend: 0x0, symName: __ZNSt3__116allocator_traitsINS_9allocatorINS_20__shared_ptr_emplaceINS_13packaged_taskIFNS_6vectorI5valueNS1_IS5_EEEEvEEENS1_IS9_EEEEEEE8max_sizeB8ue170006ISC_vEEmRKSC_, symObjAddr: 0xCB94, symBinAddr: 0x1000102C4, symSize: 0x24 }
  - { offsetInCU: 0x28DE9, offset: 0x37038, size: 0x8, addend: 0x0, symName: __ZNKSt3__19allocatorINS_20__shared_ptr_emplaceINS_13packaged_taskIFNS_6vectorI5valueNS0_IS4_EEEEvEEENS0_IS8_EEEEE8max_sizeB8ue170006Ev, symObjAddr: 0xCBB8, symBinAddr: 0x1000102E8, symSize: 0x14 }
  - { offsetInCU: 0x28E0D, offset: 0x3705C, size: 0x8, addend: 0x0, symName: '__ZNSt3__120__shared_ptr_emplaceINS_13packaged_taskIFNS_6vectorI5valueNS_9allocatorIS3_EEEEvEEENS4_IS8_EEEC2B8ue170006IJNS_6__bindIRZN5layer13forward_layerER11value_arrayE3$_0JNS_17reference_wrapperINS2_I6neuronNS4_ISJ_EEEEEEEEEEEES9_DpOT_', symObjAddr: 0xCBCC, symBinAddr: 0x1000102FC, symSize: 0xB8 }
  - { offsetInCU: 0x28E5E, offset: 0x370AD, size: 0x8, addend: 0x0, symName: __ZNSt3__119__shared_weak_countC2B8ue170006El, symObjAddr: 0xCC84, symBinAddr: 0x1000103B4, symSize: 0x54 }
  - { offsetInCU: 0x28E94, offset: 0x370E3, size: 0x8, addend: 0x0, symName: __ZNSt3__120__shared_ptr_emplaceINS_13packaged_taskIFNS_6vectorI5valueNS_9allocatorIS3_EEEEvEEENS4_IS8_EEE8_StorageC1B8ue170006EOS9_, symObjAddr: 0xCCD8, symBinAddr: 0x100010408, symSize: 0x34 }
  - { offsetInCU: 0x28ECB, offset: 0x3711A, size: 0x8, addend: 0x0, symName: '__ZNSt3__113packaged_taskIFNS_6vectorI5valueNS_9allocatorIS2_EEEEvEEC1B8ue170006INS_6__bindIRZN5layer13forward_layerER11value_arrayE3$_0JNS_17reference_wrapperINS1_I6neuronNS3_ISG_EEEEEEEEEvEEOT_', symObjAddr: 0xCD0C, symBinAddr: 0x10001043C, symSize: 0x34 }
  - { offsetInCU: 0x28F0C, offset: 0x3715B, size: 0x8, addend: 0x0, symName: __ZNSt3__120__shared_ptr_emplaceINS_13packaged_taskIFNS_6vectorI5valueNS_9allocatorIS3_EEEEvEEENS4_IS8_EEE8_StorageD1B8ue170006Ev, symObjAddr: 0xCD40, symBinAddr: 0x100010470, symSize: 0x2C }
  - { offsetInCU: 0x28F34, offset: 0x37183, size: 0x8, addend: 0x0, symName: __ZNSt3__120__shared_ptr_emplaceINS_13packaged_taskIFNS_6vectorI5valueNS_9allocatorIS3_EEEEvEEENS4_IS8_EEED1Ev, symObjAddr: 0xCD6C, symBinAddr: 0x10001049C, symSize: 0x2C }
  - { offsetInCU: 0x28F60, offset: 0x371AF, size: 0x8, addend: 0x0, symName: __ZNSt3__120__shared_ptr_emplaceINS_13packaged_taskIFNS_6vectorI5valueNS_9allocatorIS3_EEEEvEEENS4_IS8_EEED0Ev, symObjAddr: 0xCD98, symBinAddr: 0x1000104C8, symSize: 0x30 }
  - { offsetInCU: 0x28F8C, offset: 0x371DB, size: 0x8, addend: 0x0, symName: __ZNSt3__120__shared_ptr_emplaceINS_13packaged_taskIFNS_6vectorI5valueNS_9allocatorIS3_EEEEvEEENS4_IS8_EEE16__on_zero_sharedEv, symObjAddr: 0xCDC8, symBinAddr: 0x1000104F8, symSize: 0x28 }
  - { offsetInCU: 0x28FB0, offset: 0x371FF, size: 0x8, addend: 0x0, symName: __ZNSt3__120__shared_ptr_emplaceINS_13packaged_taskIFNS_6vectorI5valueNS_9allocatorIS3_EEEEvEEENS4_IS8_EEE21__on_zero_shared_weakEv, symObjAddr: 0xCDF0, symBinAddr: 0x100010520, symSize: 0x5C }
  - { offsetInCU: 0x28FEF, offset: 0x3723E, size: 0x8, addend: 0x0, symName: __ZNSt3__114__shared_countC2B8ue170006El, symObjAddr: 0xCE4C, symBinAddr: 0x10001057C, symSize: 0x30 }
  - { offsetInCU: 0x29025, offset: 0x37274, size: 0x8, addend: 0x0, symName: __ZNSt3__120__shared_ptr_emplaceINS_13packaged_taskIFNS_6vectorI5valueNS_9allocatorIS3_EEEEvEEENS4_IS8_EEE8_StorageC2B8ue170006EOS9_, symObjAddr: 0xCE7C, symBinAddr: 0x1000105AC, symSize: 0x30 }
  - { offsetInCU: 0x2905C, offset: 0x372AB, size: 0x8, addend: 0x0, symName: __ZNSt3__120__shared_ptr_emplaceINS_13packaged_taskIFNS_6vectorI5valueNS_9allocatorIS3_EEEEvEEENS4_IS8_EEE8_Storage11__get_allocB8ue170006Ev, symObjAddr: 0xCEAC, symBinAddr: 0x1000105DC, symSize: 0x3C }
  - { offsetInCU: 0x290AD, offset: 0x372FC, size: 0x8, addend: 0x0, symName: __ZNSt3__117__compressed_pairINS_9allocatorINS_13packaged_taskIFNS_6vectorI5valueNS1_IS4_EEEEvEEEEES8_E16__get_first_baseB8ue170006EPSA_, symObjAddr: 0xCEE8, symBinAddr: 0x100010618, symSize: 0x14 }
  - { offsetInCU: 0x290D0, offset: 0x3731F, size: 0x8, addend: 0x0, symName: '__ZNSt3__113packaged_taskIFNS_6vectorI5valueNS_9allocatorIS2_EEEEvEEC2B8ue170006INS_6__bindIRZN5layer13forward_layerER11value_arrayE3$_0JNS_17reference_wrapperINS1_I6neuronNS3_ISG_EEEEEEEEEvEEOT_', symObjAddr: 0xCEFC, symBinAddr: 0x10001062C, symSize: 0x68 }
  - { offsetInCU: 0x29111, offset: 0x37360, size: 0x8, addend: 0x0, symName: '__ZNSt3__124__packaged_task_functionIFNS_6vectorI5valueNS_9allocatorIS2_EEEEvEEC1INS_6__bindIRZN5layer13forward_layerER11value_arrayE3$_0JNS_17reference_wrapperINS1_I6neuronNS3_ISG_EEEEEEEEEEEOT_', symObjAddr: 0xCF64, symBinAddr: 0x100010694, symSize: 0x34 }
  - { offsetInCU: 0x29154, offset: 0x373A3, size: 0x8, addend: 0x0, symName: __ZNSt3__17promiseINS_6vectorI5valueNS_9allocatorIS2_EEEEEC1Ev, symObjAddr: 0xCF98, symBinAddr: 0x1000106C8, symSize: 0x2C }
  - { offsetInCU: 0x2917F, offset: 0x373CE, size: 0x8, addend: 0x0, symName: __ZNSt3__124__packaged_task_functionIFNS_6vectorI5valueNS_9allocatorIS2_EEEEvEED1Ev, symObjAddr: 0xCFC4, symBinAddr: 0x1000106F4, symSize: 0x2C }
  - { offsetInCU: 0x291AA, offset: 0x373F9, size: 0x8, addend: 0x0, symName: '__ZNSt3__124__packaged_task_functionIFNS_6vectorI5valueNS_9allocatorIS2_EEEEvEEC2INS_6__bindIRZN5layer13forward_layerER11value_arrayE3$_0JNS_17reference_wrapperINS1_I6neuronNS3_ISG_EEEEEEEEEEEOT_', symObjAddr: 0xCFF0, symBinAddr: 0x100010720, symSize: 0x40 }
  - { offsetInCU: 0x2926A, offset: 0x374B9, size: 0x8, addend: 0x0, symName: '__ZNSt3__120__packaged_task_funcINS_6__bindIRZN5layer13forward_layerER11value_arrayE3$_0JNS_17reference_wrapperINS_6vectorI6neuronNS_9allocatorIS9_EEEEEEEEENSA_ISE_EEFNS8_I5valueNSA_ISG_EEEEvEEC1B8ue170006EOSE_', symObjAddr: 0xD030, symBinAddr: 0x100010760, symSize: 0x34 }
  - { offsetInCU: 0x292A1, offset: 0x374F0, size: 0x8, addend: 0x0, symName: '__ZNSt3__120__packaged_task_funcINS_6__bindIRZN5layer13forward_layerER11value_arrayE3$_0JNS_17reference_wrapperINS_6vectorI6neuronNS_9allocatorIS9_EEEEEEEEENSA_ISE_EEFNS8_I5valueNSA_ISG_EEEEvEEC2B8ue170006EOSE_', symObjAddr: 0xD064, symBinAddr: 0x100010794, symSize: 0x84 }
  - { offsetInCU: 0x292D8, offset: 0x37527, size: 0x8, addend: 0x0, symName: __ZNSt3__120__packaged_task_baseIFNS_6vectorI5valueNS_9allocatorIS2_EEEEvEEC2B8ue170006Ev, symObjAddr: 0xD0E8, symBinAddr: 0x100010818, symSize: 0x24 }
  - { offsetInCU: 0x29300, offset: 0x3754F, size: 0x8, addend: 0x0, symName: '__ZNSt3__117__compressed_pairINS_6__bindIRZN5layer13forward_layerER11value_arrayE3$_0JNS_17reference_wrapperINS_6vectorI6neuronNS_9allocatorIS9_EEEEEEEEENSA_ISE_EEEC1B8ue170006ISE_NS_18__default_init_tagEEEOT_OT0_', symObjAddr: 0xD10C, symBinAddr: 0x10001083C, symSize: 0x3C }
  - { offsetInCU: 0x29356, offset: 0x375A5, size: 0x8, addend: 0x0, symName: __ZNSt3__120__packaged_task_baseIFNS_6vectorI5valueNS_9allocatorIS2_EEEEvEED2Ev, symObjAddr: 0xD148, symBinAddr: 0x100010878, symSize: 0x14 }
  - { offsetInCU: 0x2937E, offset: 0x375CD, size: 0x8, addend: 0x0, symName: '__ZNSt3__120__packaged_task_funcINS_6__bindIRZN5layer13forward_layerER11value_arrayE3$_0JNS_17reference_wrapperINS_6vectorI6neuronNS_9allocatorIS9_EEEEEEEEENSA_ISE_EEFNS8_I5valueNSA_ISG_EEEEvEED1Ev', symObjAddr: 0xD15C, symBinAddr: 0x10001088C, symSize: 0x2C }
  - { offsetInCU: 0x293AA, offset: 0x375F9, size: 0x8, addend: 0x0, symName: '__ZNSt3__120__packaged_task_funcINS_6__bindIRZN5layer13forward_layerER11value_arrayE3$_0JNS_17reference_wrapperINS_6vectorI6neuronNS_9allocatorIS9_EEEEEEEEENSA_ISE_EEFNS8_I5valueNSA_ISG_EEEEvEED0Ev', symObjAddr: 0xD188, symBinAddr: 0x1000108B8, symSize: 0x30 }
  - { offsetInCU: 0x293D6, offset: 0x37625, size: 0x8, addend: 0x0, symName: '__ZNSt3__120__packaged_task_funcINS_6__bindIRZN5layer13forward_layerER11value_arrayE3$_0JNS_17reference_wrapperINS_6vectorI6neuronNS_9allocatorIS9_EEEEEEEEENSA_ISE_EEFNS8_I5valueNSA_ISG_EEEEvEE9__move_toEPNS_20__packaged_task_baseISJ_EE', symObjAddr: 0xD1B8, symBinAddr: 0x1000108E8, symSize: 0x60 }
  - { offsetInCU: 0x2940C, offset: 0x3765B, size: 0x8, addend: 0x0, symName: '__ZNSt3__120__packaged_task_funcINS_6__bindIRZN5layer13forward_layerER11value_arrayE3$_0JNS_17reference_wrapperINS_6vectorI6neuronNS_9allocatorIS9_EEEEEEEEENSA_ISE_EEFNS8_I5valueNSA_ISG_EEEEvEE7destroyEv', symObjAddr: 0xD218, symBinAddr: 0x100010948, symSize: 0x10 }
  - { offsetInCU: 0x29433, offset: 0x37682, size: 0x8, addend: 0x0, symName: '__ZNSt3__120__packaged_task_funcINS_6__bindIRZN5layer13forward_layerER11value_arrayE3$_0JNS_17reference_wrapperINS_6vectorI6neuronNS_9allocatorIS9_EEEEEEEEENSA_ISE_EEFNS8_I5valueNSA_ISG_EEEEvEE18destroy_deallocateEv', symObjAddr: 0xD228, symBinAddr: 0x100010958, symSize: 0x54 }
  - { offsetInCU: 0x29475, offset: 0x376C4, size: 0x8, addend: 0x0, symName: '__ZNSt3__120__packaged_task_funcINS_6__bindIRZN5layer13forward_layerER11value_arrayE3$_0JNS_17reference_wrapperINS_6vectorI6neuronNS_9allocatorIS9_EEEEEEEEENSA_ISE_EEFNS8_I5valueNSA_ISG_EEEEvEEclEv', symObjAddr: 0xD27C, symBinAddr: 0x1000109AC, symSize: 0x38 }
  - { offsetInCU: 0x2949C, offset: 0x376EB, size: 0x8, addend: 0x0, symName: __ZNSt3__120__packaged_task_baseIFNS_6vectorI5valueNS_9allocatorIS2_EEEEvEED1Ev, symObjAddr: 0xD2B4, symBinAddr: 0x1000109E4, symSize: 0x14 }
  - { offsetInCU: 0x294C4, offset: 0x37713, size: 0x8, addend: 0x0, symName: __ZNSt3__120__packaged_task_baseIFNS_6vectorI5valueNS_9allocatorIS2_EEEEvEED0Ev, symObjAddr: 0xD2C8, symBinAddr: 0x1000109F8, symSize: 0xC }
  - { offsetInCU: 0x294EC, offset: 0x3773B, size: 0x8, addend: 0x0, symName: '__ZNSt3__117__compressed_pairINS_6__bindIRZN5layer13forward_layerER11value_arrayE3$_0JNS_17reference_wrapperINS_6vectorI6neuronNS_9allocatorIS9_EEEEEEEEENSA_ISE_EEEC2B8ue170006ISE_NS_18__default_init_tagEEEOT_OT0_', symObjAddr: 0xD2D4, symBinAddr: 0x100010A04, symSize: 0x40 }
  - { offsetInCU: 0x29542, offset: 0x37791, size: 0x8, addend: 0x0, symName: '__ZNSt3__122__compressed_pair_elemINS_6__bindIRZN5layer13forward_layerER11value_arrayE3$_0JNS_17reference_wrapperINS_6vectorI6neuronNS_9allocatorIS9_EEEEEEEEELi0ELb0EEC2B8ue170006ISE_vEEOT_', symObjAddr: 0xD314, symBinAddr: 0x100010A44, symSize: 0x24 }
  - { offsetInCU: 0x29582, offset: 0x377D1, size: 0x8, addend: 0x0, symName: '__ZNSt3__122__compressed_pair_elemINS_9allocatorINS_6__bindIRZN5layer13forward_layerER11value_arrayE3$_0JNS_17reference_wrapperINS_6vectorI6neuronNS1_ISA_EEEEEEEEEEELi1ELb1EEC2B8ue170006ENS_18__default_init_tagE', symObjAddr: 0xD338, symBinAddr: 0x100010A68, symSize: 0x2C }
  - { offsetInCU: 0x295B5, offset: 0x37804, size: 0x8, addend: 0x0, symName: '__ZNSt3__19allocatorINS_6__bindIRZN5layer13forward_layerER11value_arrayE3$_0JNS_17reference_wrapperINS_6vectorI6neuronNS0_IS9_EEEEEEEEEEC2B8ue170006Ev', symObjAddr: 0xD364, symBinAddr: 0x100010A94, symSize: 0x2C }
  - { offsetInCU: 0x295DD, offset: 0x3782C, size: 0x8, addend: 0x0, symName: '__ZNSt3__116__non_trivial_ifILb1ENS_9allocatorINS_6__bindIRZN5layer13forward_layerER11value_arrayE3$_0JNS_17reference_wrapperINS_6vectorI6neuronNS1_ISA_EEEEEEEEEEEEC2B8ue170006Ev', symObjAddr: 0xD390, symBinAddr: 0x100010AC0, symSize: 0x14 }
  - { offsetInCU: 0x29605, offset: 0x37854, size: 0x8, addend: 0x0, symName: '__ZNSt3__120__packaged_task_funcINS_6__bindIRZN5layer13forward_layerER11value_arrayE3$_0JNS_17reference_wrapperINS_6vectorI6neuronNS_9allocatorIS9_EEEEEEEEENSA_ISE_EEFNS8_I5valueNSA_ISG_EEEEvEED2Ev', symObjAddr: 0xD3A4, symBinAddr: 0x100010AD4, symSize: 0x2C }
  - { offsetInCU: 0x29631, offset: 0x37880, size: 0x8, addend: 0x0, symName: '__ZNSt3__117__compressed_pairINS_6__bindIRZN5layer13forward_layerER11value_arrayE3$_0JNS_17reference_wrapperINS_6vectorI6neuronNS_9allocatorIS9_EEEEEEEEENSA_ISE_EEE5firstB8ue170006Ev', symObjAddr: 0xD3D0, symBinAddr: 0x100010B00, symSize: 0x24 }
  - { offsetInCU: 0x29655, offset: 0x378A4, size: 0x8, addend: 0x0, symName: '__ZNSt3__117__compressed_pairINS_6__bindIRZN5layer13forward_layerER11value_arrayE3$_0JNS_17reference_wrapperINS_6vectorI6neuronNS_9allocatorIS9_EEEEEEEEENSA_ISE_EEE6secondB8ue170006Ev', symObjAddr: 0xD3F4, symBinAddr: 0x100010B24, symSize: 0x24 }
  - { offsetInCU: 0x29679, offset: 0x378C8, size: 0x8, addend: 0x0, symName: '__ZNSt3__120__packaged_task_funcINS_6__bindIRZN5layer13forward_layerER11value_arrayE3$_0JNS_17reference_wrapperINS_6vectorI6neuronNS_9allocatorIS9_EEEEEEEEENSA_ISE_EEFNS8_I5valueNSA_ISG_EEEEvEEC1B8ue170006EOSE_RKSF_', symObjAddr: 0xD418, symBinAddr: 0x100010B48, symSize: 0x3C }
  - { offsetInCU: 0x296BF, offset: 0x3790E, size: 0x8, addend: 0x0, symName: '__ZNSt3__122__compressed_pair_elemINS_6__bindIRZN5layer13forward_layerER11value_arrayE3$_0JNS_17reference_wrapperINS_6vectorI6neuronNS_9allocatorIS9_EEEEEEEEELi0ELb0EE5__getB8ue170006Ev', symObjAddr: 0xD454, symBinAddr: 0x100010B84, symSize: 0x14 }
  - { offsetInCU: 0x296E3, offset: 0x37932, size: 0x8, addend: 0x0, symName: '__ZNSt3__122__compressed_pair_elemINS_9allocatorINS_6__bindIRZN5layer13forward_layerER11value_arrayE3$_0JNS_17reference_wrapperINS_6vectorI6neuronNS1_ISA_EEEEEEEEEEELi1ELb1EE5__getB8ue170006Ev', symObjAddr: 0xD468, symBinAddr: 0x100010B98, symSize: 0x14 }
  - { offsetInCU: 0x29707, offset: 0x37956, size: 0x8, addend: 0x0, symName: '__ZNSt3__120__packaged_task_funcINS_6__bindIRZN5layer13forward_layerER11value_arrayE3$_0JNS_17reference_wrapperINS_6vectorI6neuronNS_9allocatorIS9_EEEEEEEEENSA_ISE_EEFNS8_I5valueNSA_ISG_EEEEvEEC2B8ue170006EOSE_RKSF_', symObjAddr: 0xD47C, symBinAddr: 0x100010BAC, symSize: 0x88 }
  - { offsetInCU: 0x2974D, offset: 0x3799C, size: 0x8, addend: 0x0, symName: '__ZNSt3__117__compressed_pairINS_6__bindIRZN5layer13forward_layerER11value_arrayE3$_0JNS_17reference_wrapperINS_6vectorI6neuronNS_9allocatorIS9_EEEEEEEEENSA_ISE_EEEC1B8ue170006ISE_RKSF_EEOT_OT0_', symObjAddr: 0xD504, symBinAddr: 0x100010C34, symSize: 0x3C }
  - { offsetInCU: 0x297A3, offset: 0x379F2, size: 0x8, addend: 0x0, symName: '__ZNSt3__117__compressed_pairINS_6__bindIRZN5layer13forward_layerER11value_arrayE3$_0JNS_17reference_wrapperINS_6vectorI6neuronNS_9allocatorIS9_EEEEEEEEENSA_ISE_EEEC2B8ue170006ISE_RKSF_EEOT_OT0_', symObjAddr: 0xD540, symBinAddr: 0x100010C70, symSize: 0x44 }
  - { offsetInCU: 0x297F9, offset: 0x37A48, size: 0x8, addend: 0x0, symName: '__ZNSt3__122__compressed_pair_elemINS_9allocatorINS_6__bindIRZN5layer13forward_layerER11value_arrayE3$_0JNS_17reference_wrapperINS_6vectorI6neuronNS1_ISA_EEEEEEEEEEELi1ELb1EEC2B8ue170006IRKSF_vEEOT_', symObjAddr: 0xD584, symBinAddr: 0x100010CB4, symSize: 0x18 }
  - { offsetInCU: 0x29866, offset: 0x37AB5, size: 0x8, addend: 0x0, symName: '__ZNSt3__19allocatorINS_20__packaged_task_funcINS_6__bindIRZN5layer13forward_layerER11value_arrayE3$_0JNS_17reference_wrapperINS_6vectorI6neuronNS0_ISA_EEEEEEEEENS0_ISE_EEFNS9_I5valueNS0_ISG_EEEEvEEEEC1B8ue170006ISE_EERKNS0_IT_EE', symObjAddr: 0xD59C, symBinAddr: 0x100010CCC, symSize: 0x34 }
  - { offsetInCU: 0x298A2, offset: 0x37AF1, size: 0x8, addend: 0x0, symName: '__ZNSt3__19allocatorINS_20__packaged_task_funcINS_6__bindIRZN5layer13forward_layerER11value_arrayE3$_0JNS_17reference_wrapperINS_6vectorI6neuronNS0_ISA_EEEEEEEEENS0_ISE_EEFNS9_I5valueNS0_ISG_EEEEvEEEE10deallocateB8ue170006EPSK_m', symObjAddr: 0xD5D0, symBinAddr: 0x100010D00, symSize: 0x44 }
  - { offsetInCU: 0x298E2, offset: 0x37B31, size: 0x8, addend: 0x0, symName: '__ZNSt3__114pointer_traitsIPNS_20__packaged_task_funcINS_6__bindIRZN5layer13forward_layerER11value_arrayE3$_0JNS_17reference_wrapperINS_6vectorI6neuronNS_9allocatorISA_EEEEEEEEENSB_ISF_EEFNS9_I5valueNSB_ISH_EEEEvEEEE10pointer_toB8ue170006ERSL_', symObjAddr: 0xD614, symBinAddr: 0x100010D44, symSize: 0x14 }
  - { offsetInCU: 0x29905, offset: 0x37B54, size: 0x8, addend: 0x0, symName: '__ZNSt3__19allocatorINS_20__packaged_task_funcINS_6__bindIRZN5layer13forward_layerER11value_arrayE3$_0JNS_17reference_wrapperINS_6vectorI6neuronNS0_ISA_EEEEEEEEENS0_ISE_EEFNS9_I5valueNS0_ISG_EEEEvEEEEC2B8ue170006ISE_EERKNS0_IT_EE', symObjAddr: 0xD628, symBinAddr: 0x100010D58, symSize: 0x30 }
  - { offsetInCU: 0x29941, offset: 0x37B90, size: 0x8, addend: 0x0, symName: '__ZNSt3__116__non_trivial_ifILb1ENS_9allocatorINS_20__packaged_task_funcINS_6__bindIRZN5layer13forward_layerER11value_arrayE3$_0JNS_17reference_wrapperINS_6vectorI6neuronNS1_ISB_EEEEEEEEENS1_ISF_EEFNSA_I5valueNS1_ISH_EEEEvEEEEEEC2B8ue170006Ev', symObjAddr: 0xD658, symBinAddr: 0x100010D88, symSize: 0x14 }
  - { offsetInCU: 0x29978, offset: 0x37BC7, size: 0x8, addend: 0x0, symName: '__ZNSt3__16__bindIRZN5layer13forward_layerER11value_arrayE3$_0JNS_17reference_wrapperINS_6vectorI6neuronNS_9allocatorIS8_EEEEEEEEclB8ue170006IJEEENS_13__bind_returnIS4_NS_5tupleIJSC_EEENSG_IJDpOT_EEEXsr22__is_valid_bind_returnIS4_SH_SL_EE5valueEE4typeESK_', symObjAddr: 0xD698, symBinAddr: 0x100010DC8, symSize: 0x38 }
  - { offsetInCU: 0x299AB, offset: 0x37BFA, size: 0x8, addend: 0x0, symName: '__ZZN5layer13forward_layerER11value_arrayENK3$_0clERNSt3__16vectorI6neuronNS3_9allocatorIS5_EEEE', symObjAddr: 0xD7B4, symBinAddr: 0x100010EE4, symSize: 0xD4 }
  - { offsetInCU: 0x29A21, offset: 0x37C70, size: 0x8, addend: 0x0, symName: '__ZZZN5layer13forward_layerER11value_arrayENK3$_0clERNSt3__16vectorI6neuronNS3_9allocatorIS5_EEEEENKUlRS5_E_clESA_', symObjAddr: 0xD8F4, symBinAddr: 0x100011024, symSize: 0x50 }
  - { offsetInCU: 0x29A57, offset: 0x37CA6, size: 0x8, addend: 0x0, symName: __ZNSt3__16vectorI5valueNS_9allocatorIS1_EEE9push_backB8ue170006EOS1_, symObjAddr: 0xD944, symBinAddr: 0x100011074, symSize: 0x6C }
  - { offsetInCU: 0x29A8D, offset: 0x37CDC, size: 0x8, addend: 0x0, symName: __ZNSt3__16vectorI5valueNS_9allocatorIS1_EEE9__end_capB8ue170006Ev, symObjAddr: 0xD9B0, symBinAddr: 0x1000110E0, symSize: 0x28 }
  - { offsetInCU: 0x29AB1, offset: 0x37D00, size: 0x8, addend: 0x0, symName: __ZNSt3__16vectorI5valueNS_9allocatorIS1_EEE22__construct_one_at_endB8ue170006IJS1_EEEvDpOT_, symObjAddr: 0xD9D8, symBinAddr: 0x100011108, symSize: 0x90 }
  - { offsetInCU: 0x29AFE, offset: 0x37D4D, size: 0x8, addend: 0x0, symName: __ZNSt3__16vectorI5valueNS_9allocatorIS1_EEE21__push_back_slow_pathIS1_EEvOT_, symObjAddr: 0xDA68, symBinAddr: 0x100011198, symSize: 0xD8 }
  - { offsetInCU: 0x29B5B, offset: 0x37DAA, size: 0x8, addend: 0x0, symName: __ZNSt3__117__compressed_pairIP5valueNS_9allocatorIS1_EEE5firstB8ue170006Ev, symObjAddr: 0xDB40, symBinAddr: 0x100011270, symSize: 0x24 }
  - { offsetInCU: 0x29B7F, offset: 0x37DCE, size: 0x8, addend: 0x0, symName: __ZNSt3__122__compressed_pair_elemIP5valueLi0ELb0EE5__getB8ue170006Ev, symObjAddr: 0xDB64, symBinAddr: 0x100011294, symSize: 0x14 }
  - { offsetInCU: 0x29BBC, offset: 0x37E0B, size: 0x8, addend: 0x0, symName: __ZNSt3__16vectorI5valueNS_9allocatorIS1_EEE21_ConstructTransactionC1B8ue170006ERS4_m, symObjAddr: 0xDB78, symBinAddr: 0x1000112A8, symSize: 0x3C }
  - { offsetInCU: 0x29C02, offset: 0x37E51, size: 0x8, addend: 0x0, symName: __ZNSt3__116allocator_traitsINS_9allocatorI5valueEEE9constructB8ue170006IS2_JS2_EvEEvRS3_PT_DpOT0_, symObjAddr: 0xDBB4, symBinAddr: 0x1000112E4, symSize: 0x34 }
  - { offsetInCU: 0x29C58, offset: 0x37EA7, size: 0x8, addend: 0x0, symName: __ZNSt3__16vectorI5valueNS_9allocatorIS1_EEE21_ConstructTransactionD1B8ue170006Ev, symObjAddr: 0xDBE8, symBinAddr: 0x100011318, symSize: 0x2C }
  - { offsetInCU: 0x29C80, offset: 0x37ECF, size: 0x8, addend: 0x0, symName: __ZNSt3__16vectorI5valueNS_9allocatorIS1_EEE21_ConstructTransactionC2B8ue170006ERS4_m, symObjAddr: 0xDC14, symBinAddr: 0x100011344, symSize: 0x44 }
  - { offsetInCU: 0x29CC6, offset: 0x37F15, size: 0x8, addend: 0x0, symName: __ZNSt3__19allocatorI5valueE9constructB8ue170006IS1_JS1_EEEvPT_DpOT0_, symObjAddr: 0xDC58, symBinAddr: 0x100011388, symSize: 0x30 }
  - { offsetInCU: 0x29D1A, offset: 0x37F69, size: 0x8, addend: 0x0, symName: __ZNSt3__16vectorI5valueNS_9allocatorIS1_EEE21_ConstructTransactionD2B8ue170006Ev, symObjAddr: 0xDC88, symBinAddr: 0x1000113B8, symSize: 0x20 }
  - { offsetInCU: 0x29D42, offset: 0x37F91, size: 0x8, addend: 0x0, symName: __ZNKSt3__16vectorI5valueNS_9allocatorIS1_EEE11__recommendB8ue170006Em, symObjAddr: 0xDCA8, symBinAddr: 0x1000113D8, symSize: 0xB4 }
  - { offsetInCU: 0x29D96, offset: 0x37FE5, size: 0x8, addend: 0x0, symName: __ZNSt3__114__split_bufferI5valueRNS_9allocatorIS1_EEEC1EmmS4_, symObjAddr: 0xDD5C, symBinAddr: 0x10001148C, symSize: 0x44 }
  - { offsetInCU: 0x29DEB, offset: 0x3803A, size: 0x8, addend: 0x0, symName: __ZNSt3__114__split_bufferI5valueRNS_9allocatorIS1_EEED1Ev, symObjAddr: 0xDEB0, symBinAddr: 0x1000115E0, symSize: 0x2C }
  - { offsetInCU: 0x29E16, offset: 0x38065, size: 0x8, addend: 0x0, symName: __ZNKSt3__16vectorI5valueNS_9allocatorIS1_EEE8max_sizeEv, symObjAddr: 0xDEDC, symBinAddr: 0x10001160C, symSize: 0x60 }
  - { offsetInCU: 0x29E3D, offset: 0x3808C, size: 0x8, addend: 0x0, symName: __ZNKSt3__16vectorI5valueNS_9allocatorIS1_EEE20__throw_length_errorB8ue170006Ev, symObjAddr: 0xDF3C, symBinAddr: 0x10001166C, symSize: 0x1C }
  - { offsetInCU: 0x29E6B, offset: 0x380BA, size: 0x8, addend: 0x0, symName: __ZNSt3__116allocator_traitsINS_9allocatorI5valueEEE8max_sizeB8ue170006IS3_vEEmRKS3_, symObjAddr: 0xDF58, symBinAddr: 0x100011688, symSize: 0x24 }
  - { offsetInCU: 0x29E98, offset: 0x380E7, size: 0x8, addend: 0x0, symName: __ZNKSt3__16vectorI5valueNS_9allocatorIS1_EEE7__allocB8ue170006Ev, symObjAddr: 0xDF7C, symBinAddr: 0x1000116AC, symSize: 0x28 }
  - { offsetInCU: 0x29EBC, offset: 0x3810B, size: 0x8, addend: 0x0, symName: __ZNKSt3__19allocatorI5valueE8max_sizeB8ue170006Ev, symObjAddr: 0xDFA4, symBinAddr: 0x1000116D4, symSize: 0x14 }
  - { offsetInCU: 0x29EE0, offset: 0x3812F, size: 0x8, addend: 0x0, symName: __ZNKSt3__117__compressed_pairIP5valueNS_9allocatorIS1_EEE6secondB8ue170006Ev, symObjAddr: 0xDFB8, symBinAddr: 0x1000116E8, symSize: 0x24 }
  - { offsetInCU: 0x29F04, offset: 0x38153, size: 0x8, addend: 0x0, symName: __ZNKSt3__122__compressed_pair_elemINS_9allocatorI5valueEELi1ELb1EE5__getB8ue170006Ev, symObjAddr: 0xDFDC, symBinAddr: 0x10001170C, symSize: 0x14 }
  - { offsetInCU: 0x29F28, offset: 0x38177, size: 0x8, addend: 0x0, symName: __ZNSt3__114__split_bufferI5valueRNS_9allocatorIS1_EEEC2EmmS4_, symObjAddr: 0xDFF0, symBinAddr: 0x100011720, symSize: 0xD4 }
  - { offsetInCU: 0x29F9A, offset: 0x381E9, size: 0x8, addend: 0x0, symName: __ZNSt3__117__compressed_pairIP5valueRNS_9allocatorIS1_EEEC1B8ue170006IDnS5_EEOT_OT0_, symObjAddr: 0xE0C4, symBinAddr: 0x1000117F4, symSize: 0x3C }
  - { offsetInCU: 0x29FF0, offset: 0x3823F, size: 0x8, addend: 0x0, symName: __ZNSt3__114__split_bufferI5valueRNS_9allocatorIS1_EEE7__allocB8ue170006Ev, symObjAddr: 0xE140, symBinAddr: 0x100011870, symSize: 0x28 }
  - { offsetInCU: 0x2A014, offset: 0x38263, size: 0x8, addend: 0x0, symName: __ZNSt3__114__split_bufferI5valueRNS_9allocatorIS1_EEE9__end_capB8ue170006Ev, symObjAddr: 0xE168, symBinAddr: 0x100011898, symSize: 0x28 }
  - { offsetInCU: 0x2A038, offset: 0x38287, size: 0x8, addend: 0x0, symName: __ZNSt3__117__compressed_pairIP5valueRNS_9allocatorIS1_EEEC2B8ue170006IDnS5_EEOT_OT0_, symObjAddr: 0xE190, symBinAddr: 0x1000118C0, symSize: 0x48 }
  - { offsetInCU: 0x2A08E, offset: 0x382DD, size: 0x8, addend: 0x0, symName: __ZNSt3__122__compressed_pair_elemIRNS_9allocatorI5valueEELi1ELb0EEC2B8ue170006IS4_vEEOT_, symObjAddr: 0xE1D8, symBinAddr: 0x100011908, symSize: 0x20 }
  - { offsetInCU: 0x2A0CE, offset: 0x3831D, size: 0x8, addend: 0x0, symName: __ZNSt3__19allocatorI5valueE8allocateB8ue170006Em, symObjAddr: 0xE1F8, symBinAddr: 0x100011928, symSize: 0x58 }
  - { offsetInCU: 0x2A100, offset: 0x3834F, size: 0x8, addend: 0x0, symName: __ZNSt3__117__compressed_pairIP5valueRNS_9allocatorIS1_EEE6secondB8ue170006Ev, symObjAddr: 0xE250, symBinAddr: 0x100011980, symSize: 0x28 }
  - { offsetInCU: 0x2A124, offset: 0x38373, size: 0x8, addend: 0x0, symName: __ZNSt3__122__compressed_pair_elemIRNS_9allocatorI5valueEELi1ELb0EE5__getB8ue170006Ev, symObjAddr: 0xE278, symBinAddr: 0x1000119A8, symSize: 0x18 }
  - { offsetInCU: 0x2A148, offset: 0x38397, size: 0x8, addend: 0x0, symName: __ZNSt3__117__compressed_pairIP5valueRNS_9allocatorIS1_EEE5firstB8ue170006Ev, symObjAddr: 0xE290, symBinAddr: 0x1000119C0, symSize: 0x24 }
  - { offsetInCU: 0x2A16C, offset: 0x383BB, size: 0x8, addend: 0x0, symName: __ZNSt3__116reverse_iteratorIP5valueEC1B8ue170006ES2_, symObjAddr: 0xE3E0, symBinAddr: 0x100011B10, symSize: 0x34 }
  - { offsetInCU: 0x2A1A2, offset: 0x383F1, size: 0x8, addend: 0x0, symName: __ZNKSt3__116reverse_iteratorIP5valueE4baseB8ue170006Ev, symObjAddr: 0xE414, symBinAddr: 0x100011B44, symSize: 0x18 }
  - { offsetInCU: 0x2A1C6, offset: 0x38415, size: 0x8, addend: 0x0, symName: __ZNKSt3__16vectorI5valueNS_9allocatorIS1_EEE14__annotate_newB8ue170006Em, symObjAddr: 0xE468, symBinAddr: 0x100011B98, symSize: 0xAC }
  - { offsetInCU: 0x2A1F9, offset: 0x38448, size: 0x8, addend: 0x0, symName: __ZNSt3__129_AllocatorDestroyRangeReverseINS_9allocatorI5valueEENS_16reverse_iteratorIPS2_EEEC1B8ue170006ERS3_RS6_S9_, symObjAddr: 0xE560, symBinAddr: 0x100011C90, symSize: 0x44 }
  - { offsetInCU: 0x2A24E, offset: 0x3849D, size: 0x8, addend: 0x0, symName: __ZNKSt3__116reverse_iteratorIP5valueEdeB8ue170006Ev, symObjAddr: 0xE610, symBinAddr: 0x100011D40, symSize: 0x28 }
  - { offsetInCU: 0x2A280, offset: 0x384CF, size: 0x8, addend: 0x0, symName: __ZNSt3__116reverse_iteratorIP5valueEppB8ue170006Ev, symObjAddr: 0xE638, symBinAddr: 0x100011D68, symSize: 0x20 }
  - { offsetInCU: 0x2A2A4, offset: 0x384F3, size: 0x8, addend: 0x0, symName: __ZNSt3__128__exception_guard_exceptionsINS_29_AllocatorDestroyRangeReverseINS_9allocatorI5valueEENS_16reverse_iteratorIPS3_EEEEE10__completeB8ue170006Ev, symObjAddr: 0xE658, symBinAddr: 0x100011D88, symSize: 0x1C }
  - { offsetInCU: 0x2A2C8, offset: 0x38517, size: 0x8, addend: 0x0, symName: __ZNSt3__128__exception_guard_exceptionsINS_29_AllocatorDestroyRangeReverseINS_9allocatorI5valueEENS_16reverse_iteratorIPS3_EEEEED1B8ue170006Ev, symObjAddr: 0xE674, symBinAddr: 0x100011DA4, symSize: 0x2C }
  - { offsetInCU: 0x2A2F0, offset: 0x3853F, size: 0x8, addend: 0x0, symName: __ZNSt3__128__exception_guard_exceptionsINS_29_AllocatorDestroyRangeReverseINS_9allocatorI5valueEENS_16reverse_iteratorIPS3_EEEEEC1B8ue170006ES8_, symObjAddr: 0xE6A0, symBinAddr: 0x100011DD0, symSize: 0x34 }
  - { offsetInCU: 0x2A327, offset: 0x38576, size: 0x8, addend: 0x0, symName: __ZNSt3__128__exception_guard_exceptionsINS_29_AllocatorDestroyRangeReverseINS_9allocatorI5valueEENS_16reverse_iteratorIPS3_EEEEEC2B8ue170006ES8_, symObjAddr: 0xE6D4, symBinAddr: 0x100011E04, symSize: 0x30 }
  - { offsetInCU: 0x2A35E, offset: 0x385AD, size: 0x8, addend: 0x0, symName: __ZNSt3__129_AllocatorDestroyRangeReverseINS_9allocatorI5valueEENS_16reverse_iteratorIPS2_EEEC2B8ue170006ERS3_RS6_S9_, symObjAddr: 0xE704, symBinAddr: 0x100011E34, symSize: 0x38 }
  - { offsetInCU: 0x2A3B8, offset: 0x38607, size: 0x8, addend: 0x0, symName: __ZNSt3__119__to_address_helperINS_16reverse_iteratorIP5valueEEvE6__callB8ue170006ERKS4_, symObjAddr: 0xE73C, symBinAddr: 0x100011E6C, symSize: 0x38 }
  - { offsetInCU: 0x2A3DA, offset: 0x38629, size: 0x8, addend: 0x0, symName: __ZNKSt3__116reverse_iteratorIP5valueEptB8ue170006Ev, symObjAddr: 0xE774, symBinAddr: 0x100011EA4, symSize: 0x24 }
  - { offsetInCU: 0x2A3FE, offset: 0x3864D, size: 0x8, addend: 0x0, symName: __ZNSt3__128__exception_guard_exceptionsINS_29_AllocatorDestroyRangeReverseINS_9allocatorI5valueEENS_16reverse_iteratorIPS3_EEEEED2B8ue170006Ev, symObjAddr: 0xE798, symBinAddr: 0x100011EC8, symSize: 0x50 }
  - { offsetInCU: 0x2A426, offset: 0x38675, size: 0x8, addend: 0x0, symName: __ZNKSt3__129_AllocatorDestroyRangeReverseINS_9allocatorI5valueEENS_16reverse_iteratorIPS2_EEEclB8ue170006Ev, symObjAddr: 0xE7E8, symBinAddr: 0x100011F18, symSize: 0xB4 }
  - { offsetInCU: 0x2A44B, offset: 0x3869A, size: 0x8, addend: 0x0, symName: __ZNSt3__116reverse_iteratorINS0_IP5valueEEEC1B8ue170006ES3_, symObjAddr: 0xE90C, symBinAddr: 0x10001203C, symSize: 0x3C }
  - { offsetInCU: 0x2A481, offset: 0x386D0, size: 0x8, addend: 0x0, symName: __ZNSt3__116reverse_iteratorINS0_IP5valueEEEppB8ue170006Ev, symObjAddr: 0xE9CC, symBinAddr: 0x1000120FC, symSize: 0x30 }
  - { offsetInCU: 0x2A4A5, offset: 0x386F4, size: 0x8, addend: 0x0, symName: __ZNKSt3__116reverse_iteratorINS0_IP5valueEEE4baseB8ue170006Ev, symObjAddr: 0xE9FC, symBinAddr: 0x10001212C, symSize: 0x24 }
  - { offsetInCU: 0x2A4CE, offset: 0x3871D, size: 0x8, addend: 0x0, symName: __ZNSt3__119__to_address_helperINS_16reverse_iteratorINS1_IP5valueEEEEvE6__callB8ue170006ERKS5_, symObjAddr: 0xEA20, symBinAddr: 0x100012150, symSize: 0x38 }
  - { offsetInCU: 0x2A4F0, offset: 0x3873F, size: 0x8, addend: 0x0, symName: __ZNKSt3__116reverse_iteratorINS0_IP5valueEEEptB8ue170006Ev, symObjAddr: 0xEA58, symBinAddr: 0x100012188, symSize: 0x24 }
  - { offsetInCU: 0x2A514, offset: 0x38763, size: 0x8, addend: 0x0, symName: __ZNKSt3__116reverse_iteratorINS0_IP5valueEEEdeB8ue170006Ev, symObjAddr: 0xEA7C, symBinAddr: 0x1000121AC, symSize: 0x34 }
  - { offsetInCU: 0x2A546, offset: 0x38795, size: 0x8, addend: 0x0, symName: __ZNSt3__116reverse_iteratorIP5valueEmmB8ue170006Ev, symObjAddr: 0xEAB0, symBinAddr: 0x1000121E0, symSize: 0x20 }
  - { offsetInCU: 0x2A56A, offset: 0x387B9, size: 0x8, addend: 0x0, symName: __ZNSt3__116reverse_iteratorINS0_IP5valueEEEC2B8ue170006ES3_, symObjAddr: 0xEAD0, symBinAddr: 0x100012200, symSize: 0x2C }
  - { offsetInCU: 0x2A5A0, offset: 0x387EF, size: 0x8, addend: 0x0, symName: __ZNSt3__116reverse_iteratorIP5valueEC2B8ue170006ES2_, symObjAddr: 0xEAFC, symBinAddr: 0x10001222C, symSize: 0x28 }
  - { offsetInCU: 0x2A5D6, offset: 0x38825, size: 0x8, addend: 0x0, symName: __ZNSt3__114__split_bufferI5valueRNS_9allocatorIS1_EEED2Ev, symObjAddr: 0xEB24, symBinAddr: 0x100012254, symSize: 0x8C }
  - { offsetInCU: 0x2A601, offset: 0x38850, size: 0x8, addend: 0x0, symName: __ZNSt3__114__split_bufferI5valueRNS_9allocatorIS1_EEE5clearB8ue170006Ev, symObjAddr: 0xEBB0, symBinAddr: 0x1000122E0, symSize: 0x28 }
  - { offsetInCU: 0x2A625, offset: 0x38874, size: 0x8, addend: 0x0, symName: __ZNKSt3__114__split_bufferI5valueRNS_9allocatorIS1_EEE8capacityB8ue170006Ev, symObjAddr: 0xEBD8, symBinAddr: 0x100012308, symSize: 0x40 }
  - { offsetInCU: 0x2A649, offset: 0x38898, size: 0x8, addend: 0x0, symName: __ZNSt3__114__split_bufferI5valueRNS_9allocatorIS1_EEE17__destruct_at_endB8ue170006EPS1_, symObjAddr: 0xEC18, symBinAddr: 0x100012348, symSize: 0x2C }
  - { offsetInCU: 0x2A67B, offset: 0x388CA, size: 0x8, addend: 0x0, symName: __ZNSt3__114__split_bufferI5valueRNS_9allocatorIS1_EEE17__destruct_at_endB8ue170006EPS1_NS_17integral_constantIbLb0EEE, symObjAddr: 0xEC44, symBinAddr: 0x100012374, symSize: 0x80 }
  - { offsetInCU: 0x2A6BB, offset: 0x3890A, size: 0x8, addend: 0x0, symName: __ZNKSt3__114__split_bufferI5valueRNS_9allocatorIS1_EEE9__end_capB8ue170006Ev, symObjAddr: 0xECC4, symBinAddr: 0x1000123F4, symSize: 0x28 }
  - { offsetInCU: 0x2A6DF, offset: 0x3892E, size: 0x8, addend: 0x0, symName: __ZNKSt3__117__compressed_pairIP5valueRNS_9allocatorIS1_EEE5firstB8ue170006Ev, symObjAddr: 0xECEC, symBinAddr: 0x10001241C, symSize: 0x24 }
  - { offsetInCU: 0x2A703, offset: 0x38952, size: 0x8, addend: 0x0, symName: __ZNKSt3__117reference_wrapperINS_6vectorI6neuronNS_9allocatorIS2_EEEEE3getB8ue170006Ev, symObjAddr: 0xED10, symBinAddr: 0x100012440, symSize: 0x18 }
  - { offsetInCU: 0x2A727, offset: 0x38976, size: 0x8, addend: 0x0, symName: __ZNSt3__112__tuple_leafILm0ENS_17reference_wrapperINS_6vectorI6neuronNS_9allocatorIS3_EEEEEELb0EE3getB8ue170006Ev, symObjAddr: 0xED28, symBinAddr: 0x100012458, symSize: 0x14 }
  - { offsetInCU: 0x2A74B, offset: 0x3899A, size: 0x8, addend: 0x0, symName: __ZNSt3__17promiseINS_6vectorI5valueNS_9allocatorIS2_EEEEEC2Ev, symObjAddr: 0xED3C, symBinAddr: 0x10001246C, symSize: 0x68 }
  - { offsetInCU: 0x2A776, offset: 0x389C5, size: 0x8, addend: 0x0, symName: __ZNSt3__113__assoc_stateINS_6vectorI5valueNS_9allocatorIS2_EEEEEC1Ev, symObjAddr: 0xEDA4, symBinAddr: 0x1000124D4, symSize: 0x2C }
  - { offsetInCU: 0x2A7A2, offset: 0x389F1, size: 0x8, addend: 0x0, symName: __ZNSt3__113__assoc_stateINS_6vectorI5valueNS_9allocatorIS2_EEEEEC2Ev, symObjAddr: 0xEDD0, symBinAddr: 0x100012500, symSize: 0x44 }
  - { offsetInCU: 0x2A7CE, offset: 0x38A1D, size: 0x8, addend: 0x0, symName: __ZNSt3__117__assoc_sub_stateC2B8ue170006Ev, symObjAddr: 0xEE14, symBinAddr: 0x100012544, symSize: 0x70 }
  - { offsetInCU: 0x2A7F6, offset: 0x38A45, size: 0x8, addend: 0x0, symName: __ZNSt3__113__assoc_stateINS_6vectorI5valueNS_9allocatorIS2_EEEEED1Ev, symObjAddr: 0xEE84, symBinAddr: 0x1000125B4, symSize: 0x2C }
  - { offsetInCU: 0x2A822, offset: 0x38A71, size: 0x8, addend: 0x0, symName: __ZNSt3__113__assoc_stateINS_6vectorI5valueNS_9allocatorIS2_EEEEED0Ev, symObjAddr: 0xEEB0, symBinAddr: 0x1000125E0, symSize: 0x30 }
  - { offsetInCU: 0x2A84E, offset: 0x38A9D, size: 0x8, addend: 0x0, symName: __ZNSt3__113__assoc_stateINS_6vectorI5valueNS_9allocatorIS2_EEEEE16__on_zero_sharedEv, symObjAddr: 0xEEE0, symBinAddr: 0x100012610, symSize: 0x70 }
  - { offsetInCU: 0x2A875, offset: 0x38AC4, size: 0x8, addend: 0x0, symName: __ZNSt13exception_ptrC1B8ue170006Ev, symObjAddr: 0xEF50, symBinAddr: 0x100012680, symSize: 0x2C }
  - { offsetInCU: 0x2A89D, offset: 0x38AEC, size: 0x8, addend: 0x0, symName: __ZNSt13exception_ptrC2B8ue170006Ev, symObjAddr: 0xEF7C, symBinAddr: 0x1000126AC, symSize: 0x18 }
  - { offsetInCU: 0x2A8C5, offset: 0x38B14, size: 0x8, addend: 0x0, symName: __ZNSt3__113__assoc_stateINS_6vectorI5valueNS_9allocatorIS2_EEEEED2Ev, symObjAddr: 0xEF94, symBinAddr: 0x1000126C4, symSize: 0x2C }
  - { offsetInCU: 0x2A8F1, offset: 0x38B40, size: 0x8, addend: 0x0, symName: __ZNSt3__117__assoc_sub_stateD2Ev, symObjAddr: 0xEFC0, symBinAddr: 0x1000126F0, symSize: 0x60 }
  - { offsetInCU: 0x2A91D, offset: 0x38B6C, size: 0x8, addend: 0x0, symName: __ZNSt3__124__packaged_task_functionIFNS_6vectorI5valueNS_9allocatorIS2_EEEEvEED2Ev, symObjAddr: 0xF020, symBinAddr: 0x100012750, symSize: 0xB4 }
  - { offsetInCU: 0x2A948, offset: 0x38B97, size: 0x8, addend: 0x0, symName: __ZNSt3__124__packaged_task_functionIFNS_6vectorI5valueNS_9allocatorIS2_EEEEvEE9__get_bufB8ue170006Ev, symObjAddr: 0xF0D4, symBinAddr: 0x100012804, symSize: 0x14 }
  - { offsetInCU: 0x2A96C, offset: 0x38BBB, size: 0x8, addend: 0x0, symName: __ZNSt3__120__shared_ptr_emplaceINS_13packaged_taskIFNS_6vectorI5valueNS_9allocatorIS3_EEEEvEEENS4_IS8_EEE8_StorageD2B8ue170006Ev, symObjAddr: 0xF0E8, symBinAddr: 0x100012818, symSize: 0x2C }
  - { offsetInCU: 0x2A994, offset: 0x38BE3, size: 0x8, addend: 0x0, symName: __ZNSt3__120__shared_ptr_emplaceINS_13packaged_taskIFNS_6vectorI5valueNS_9allocatorIS3_EEEEvEEENS4_IS8_EEED2Ev, symObjAddr: 0xF114, symBinAddr: 0x100012844, symSize: 0x48 }
  - { offsetInCU: 0x2A9C0, offset: 0x38C0F, size: 0x8, addend: 0x0, symName: __ZNSt3__113packaged_taskIFNS_6vectorI5valueNS_9allocatorIS2_EEEEvEED1Ev, symObjAddr: 0xF15C, symBinAddr: 0x10001288C, symSize: 0x2C }
  - { offsetInCU: 0x2A9EC, offset: 0x38C3B, size: 0x8, addend: 0x0, symName: __ZNSt3__113packaged_taskIFNS_6vectorI5valueNS_9allocatorIS2_EEEEvEED2Ev, symObjAddr: 0xF188, symBinAddr: 0x1000128B8, symSize: 0x38 }
  - { offsetInCU: 0x2AA18, offset: 0x38C67, size: 0x8, addend: 0x0, symName: __ZNSt3__17promiseINS_6vectorI5valueNS_9allocatorIS2_EEEEED1Ev, symObjAddr: 0xF1C0, symBinAddr: 0x1000128F0, symSize: 0x2C }
  - { offsetInCU: 0x2AA43, offset: 0x38C92, size: 0x8, addend: 0x0, symName: __ZNSt3__17promiseINS_6vectorI5valueNS_9allocatorIS2_EEEEED2Ev, symObjAddr: 0xF1EC, symBinAddr: 0x10001291C, symSize: 0xF8 }
  - { offsetInCU: 0x2AA6E, offset: 0x38CBD, size: 0x8, addend: 0x0, symName: __ZNKSt3__117__assoc_sub_state11__has_valueB8ue170006Ev, symObjAddr: 0xF2E4, symBinAddr: 0x100012A14, symSize: 0xC4 }
  - { offsetInCU: 0x2AA92, offset: 0x38CE1, size: 0x8, addend: 0x0, symName: __ZNKSt3__114__shared_count9use_countB8ue170006Ev, symObjAddr: 0xF3A8, symBinAddr: 0x100012AD8, symSize: 0x3C }
  - { offsetInCU: 0x2AAB6, offset: 0x38D05, size: 0x8, addend: 0x0, symName: __ZNSt3__114__shared_count16__release_sharedB8ue170006Ev, symObjAddr: 0xF4AC, symBinAddr: 0x100012BDC, symSize: 0x7C }
  - { offsetInCU: 0x2AADA, offset: 0x38D29, size: 0x8, addend: 0x0, symName: __ZNSt13exception_ptrC1B8ue170006EDn, symObjAddr: 0xF55C, symBinAddr: 0x100012C8C, symSize: 0x34 }
  - { offsetInCU: 0x2AB0D, offset: 0x38D5C, size: 0x8, addend: 0x0, symName: __ZNSt13exception_ptrC2B8ue170006EDn, symObjAddr: 0xF5C0, symBinAddr: 0x100012CF0, symSize: 0x1C }
  - { offsetInCU: 0x2AB40, offset: 0x38D8F, size: 0x8, addend: 0x0, symName: __ZNSt3__112future_errorC1B8ue170006ERKS0_, symObjAddr: 0xF5FC, symBinAddr: 0x100012D2C, symSize: 0x34 }
  - { offsetInCU: 0x2AB73, offset: 0x38DC2, size: 0x8, addend: 0x0, symName: __ZNSt3__112future_errorC2B8ue170006ERKS0_, symObjAddr: 0xF630, symBinAddr: 0x100012D60, symSize: 0x58 }
  - { offsetInCU: 0x2ABA6, offset: 0x38DF5, size: 0x8, addend: 0x0, symName: __ZNSt3__110error_codeC1B8ue170006EiRKNS_14error_categoryE, symObjAddr: 0xF688, symBinAddr: 0x100012DB8, symSize: 0x3C }
  - { offsetInCU: 0x2ABEA, offset: 0x38E39, size: 0x8, addend: 0x0, symName: __ZNSt3__110error_codeC2B8ue170006EiRKNS_14error_categoryE, symObjAddr: 0xF6C4, symBinAddr: 0x100012DF4, symSize: 0x2C }
  - { offsetInCU: 0x2AC2E, offset: 0x38E7D, size: 0x8, addend: 0x0, symName: __ZNSt3__120__shared_ptr_emplaceINS_13packaged_taskIFNS_6vectorI5valueNS_9allocatorIS3_EEEEvEEENS4_IS8_EEE11__get_allocB8ue170006Ev, symObjAddr: 0xF720, symBinAddr: 0x100012E50, symSize: 0x28 }
  - { offsetInCU: 0x2AC52, offset: 0x38EA1, size: 0x8, addend: 0x0, symName: __ZNSt3__116allocator_traitsINS_9allocatorINS_20__shared_ptr_emplaceINS_13packaged_taskIFNS_6vectorI5valueNS1_IS5_EEEEvEEENS1_IS9_EEEEEEE10deallocateB8ue170006ERSC_PSB_m, symObjAddr: 0xF748, symBinAddr: 0x100012E78, symSize: 0x34 }
  - { offsetInCU: 0x2AC93, offset: 0x38EE2, size: 0x8, addend: 0x0, symName: __ZNSt3__114pointer_traitsIPNS_20__shared_ptr_emplaceINS_13packaged_taskIFNS_6vectorI5valueNS_9allocatorIS4_EEEEvEEENS5_IS9_EEEEE10pointer_toB8ue170006ERSB_, symObjAddr: 0xF77C, symBinAddr: 0x100012EAC, symSize: 0x14 }
  - { offsetInCU: 0x2ACB6, offset: 0x38F05, size: 0x8, addend: 0x0, symName: __ZNSt3__19allocatorINS_20__shared_ptr_emplaceINS_13packaged_taskIFNS_6vectorI5valueNS0_IS4_EEEEvEEENS0_IS8_EEEEE10deallocateB8ue170006EPSA_m, symObjAddr: 0xF790, symBinAddr: 0x100012EC0, symSize: 0x40 }
  - { offsetInCU: 0x2ACF6, offset: 0x38F45, size: 0x8, addend: 0x0, symName: __ZNSt3__110shared_ptrINS_13packaged_taskIFNS_6vectorI5valueNS_9allocatorIS3_EEEEvEEEEC1B8ue170006Ev, symObjAddr: 0xF7D0, symBinAddr: 0x100012F00, symSize: 0x2C }
  - { offsetInCU: 0x2AD1E, offset: 0x38F6D, size: 0x8, addend: 0x0, symName: __ZNSt3__110shared_ptrINS_13packaged_taskIFNS_6vectorI5valueNS_9allocatorIS3_EEEEvEEEE18__enable_weak_thisB8ue170006Ez, symObjAddr: 0xF7FC, symBinAddr: 0x100012F2C, symSize: 0x10 }
  - { offsetInCU: 0x2AD43, offset: 0x38F92, size: 0x8, addend: 0x0, symName: __ZNSt3__110shared_ptrINS_13packaged_taskIFNS_6vectorI5valueNS_9allocatorIS3_EEEEvEEEEC2B8ue170006Ev, symObjAddr: 0xF80C, symBinAddr: 0x100012F3C, symSize: 0x1C }
  - { offsetInCU: 0x2AD6B, offset: 0x38FBA, size: 0x8, addend: 0x0, symName: __ZNSt3__120__shared_ptr_emplaceINS_13packaged_taskIFNS_6vectorI5valueNS_9allocatorIS3_EEEEvEEENS4_IS8_EEE8_Storage10__get_elemB8ue170006Ev, symObjAddr: 0xF828, symBinAddr: 0x100012F58, symSize: 0x3C }
  - { offsetInCU: 0x2ADBC, offset: 0x3900B, size: 0x8, addend: 0x0, symName: __ZNSt3__117__compressed_pairINS_9allocatorINS_13packaged_taskIFNS_6vectorI5valueNS1_IS4_EEEEvEEEEES8_E17__get_second_baseB8ue170006EPSA_, symObjAddr: 0xF864, symBinAddr: 0x100012F94, symSize: 0x14 }
  - { offsetInCU: 0x2ADDF, offset: 0x3902E, size: 0x8, addend: 0x0, symName: __ZNSt3__118__allocation_guardINS_9allocatorINS_20__shared_ptr_emplaceINS_13packaged_taskIFNS_6vectorI5valueNS1_IS5_EEEEvEEENS1_IS9_EEEEEEED2B8ue170006Ev, symObjAddr: 0xF878, symBinAddr: 0x100012FA8, symSize: 0x2C }
  - { offsetInCU: 0x2AE07, offset: 0x39056, size: 0x8, addend: 0x0, symName: __ZNSt3__118__allocation_guardINS_9allocatorINS_20__shared_ptr_emplaceINS_13packaged_taskIFNS_6vectorI5valueNS1_IS5_EEEEvEEENS1_IS9_EEEEEEE9__destroyB8ue170006Ev, symObjAddr: 0xF8A4, symBinAddr: 0x100012FD4, symSize: 0x4C }
  - { offsetInCU: 0x2AE2B, offset: 0x3907A, size: 0x8, addend: 0x0, symName: __ZNSt3__19allocatorINS_13packaged_taskIFNS_6vectorI5valueNS0_IS3_EEEEvEEEEC2B8ue170006Ev, symObjAddr: 0xF8F0, symBinAddr: 0x100013020, symSize: 0x2C }
  - { offsetInCU: 0x2AE53, offset: 0x390A2, size: 0x8, addend: 0x0, symName: __ZNSt3__116__non_trivial_ifILb1ENS_9allocatorINS_13packaged_taskIFNS_6vectorI5valueNS1_IS4_EEEEvEEEEEEC2B8ue170006Ev, symObjAddr: 0xF91C, symBinAddr: 0x10001304C, symSize: 0x14 }
  - { offsetInCU: 0x2AE7B, offset: 0x390CA, size: 0x8, addend: 0x0, symName: '__ZNSt3__16__bindIRZN5layer13forward_layerER11value_arrayE3$_0JNS_17reference_wrapperINS_6vectorI6neuronNS_9allocatorIS8_EEEEEEEEC1B8ue170006IS5_JSC_EvEEOT_DpOT0_', symObjAddr: 0xF930, symBinAddr: 0x100013060, symSize: 0x3C }
  - { offsetInCU: 0x2AED6, offset: 0x39125, size: 0x8, addend: 0x0, symName: '__ZNSt3__16__bindIRZN5layer13forward_layerER11value_arrayE3$_0JNS_17reference_wrapperINS_6vectorI6neuronNS_9allocatorIS8_EEEEEEEEC2B8ue170006IS5_JSC_EvEEOT_DpOT0_', symObjAddr: 0xF96C, symBinAddr: 0x10001309C, symSize: 0x3C }
  - { offsetInCU: 0x2AF31, offset: 0x39180, size: 0x8, addend: 0x0, symName: __ZNSt3__15tupleIJNS_17reference_wrapperINS_6vectorI6neuronNS_9allocatorIS3_EEEEEEEEC1B8ue170006IJS7_ELi0EEEDpOT_, symObjAddr: 0xF9A8, symBinAddr: 0x1000130D8, symSize: 0x34 }
  - { offsetInCU: 0x2AF7A, offset: 0x391C9, size: 0x8, addend: 0x0, symName: __ZNSt3__15tupleIJNS_17reference_wrapperINS_6vectorI6neuronNS_9allocatorIS3_EEEEEEEEC2B8ue170006IJS7_ELi0EEEDpOT_, symObjAddr: 0xF9DC, symBinAddr: 0x10001310C, symSize: 0x34 }
  - { offsetInCU: 0x2AFC3, offset: 0x39212, size: 0x8, addend: 0x0, symName: __ZNSt3__112__tuple_implINS_15__tuple_indicesIJLm0EEEEJNS_17reference_wrapperINS_6vectorI6neuronNS_9allocatorIS5_EEEEEEEEC1B8ue170006IJLm0EEJS9_EJEJEJS9_EEENS1_IJXspT_EEEENS_13__tuple_typesIJDpT0_EEENS1_IJXspT1_EEEENSD_IJDpT2_EEEDpOT3_, symObjAddr: 0xFA10, symBinAddr: 0x100013140, symSize: 0x34 }
  - { offsetInCU: 0x2B053, offset: 0x392A2, size: 0x8, addend: 0x0, symName: __ZNSt3__112__tuple_implINS_15__tuple_indicesIJLm0EEEEJNS_17reference_wrapperINS_6vectorI6neuronNS_9allocatorIS5_EEEEEEEEC2B8ue170006IJLm0EEJS9_EJEJEJS9_EEENS1_IJXspT_EEEENS_13__tuple_typesIJDpT0_EEENS1_IJXspT1_EEEENSD_IJDpT2_EEEDpOT3_, symObjAddr: 0xFA44, symBinAddr: 0x100013174, symSize: 0x34 }
  - { offsetInCU: 0x2B0E3, offset: 0x39332, size: 0x8, addend: 0x0, symName: __ZNSt3__112__tuple_leafILm0ENS_17reference_wrapperINS_6vectorI6neuronNS_9allocatorIS3_EEEEEELb0EEC2B8ue170006IS7_vEEOT_, symObjAddr: 0xFA78, symBinAddr: 0x1000131A8, symSize: 0x24 }
  - { offsetInCU: 0x2B124, offset: 0x39373, size: 0x8, addend: 0x0, symName: '__ZNSt3__15dequeINS_8functionIFvvEEENS_9allocatorIS3_EEE12emplace_backIJZN10ThreadPool7enqueueIRZN5layer13forward_layerER11value_arrayE3$_0JNS_17reference_wrapperINS_6vectorI6neuronNS4_ISH_EEEEEEEEENS_6futureIDTclfp_spfp0_EEEEOT_DpOT0_EUlvE_EEERS3_DpOT_', symObjAddr: 0xFA9C, symBinAddr: 0x1000131CC, symSize: 0xD0 }
  - { offsetInCU: 0x2B174, offset: 0x393C3, size: 0x8, addend: 0x0, symName: __ZNKSt3__15dequeINS_8functionIFvvEEENS_9allocatorIS3_EEE12__back_spareB8ue170006Ev, symObjAddr: 0xFB6C, symBinAddr: 0x10001329C, symSize: 0x54 }
  - { offsetInCU: 0x2B198, offset: 0x393E7, size: 0x8, addend: 0x0, symName: __ZNSt3__15dequeINS_8functionIFvvEEENS_9allocatorIS3_EEE19__add_back_capacityEv, symObjAddr: 0xFBC0, symBinAddr: 0x1000132F0, symSize: 0x34C }
  - { offsetInCU: 0x2B24D, offset: 0x3949C, size: 0x8, addend: 0x0, symName: __ZNKSt3__15dequeINS_8functionIFvvEEENS_9allocatorIS3_EEE24__annotate_increase_backB8ue170006Em, symObjAddr: 0xFF0C, symBinAddr: 0x10001363C, symSize: 0x7C }
  - { offsetInCU: 0x2B280, offset: 0x394CF, size: 0x8, addend: 0x0, symName: '__ZNSt3__116allocator_traitsINS_9allocatorINS_8functionIFvvEEEEEE9constructB8ue170006IS4_JZN10ThreadPool7enqueueIRZN5layer13forward_layerER11value_arrayE3$_0JNS_17reference_wrapperINS_6vectorI6neuronNS1_ISH_EEEEEEEEENS_6futureIDTclfp_spfp0_EEEEOT_DpOT0_EUlvE_EvEEvRS5_PSO_SS_', symObjAddr: 0xFF88, symBinAddr: 0x1000136B8, symSize: 0x34 }
  - { offsetInCU: 0x2B2D6, offset: 0x39525, size: 0x8, addend: 0x0, symName: __ZNSt3__116__deque_iteratorINS_8functionIFvvEEEPS3_RS3_PS4_lLl128EEmmB8ue170006Ev, symObjAddr: 0xFFBC, symBinAddr: 0x1000136EC, symSize: 0x68 }
  - { offsetInCU: 0x2B2FA, offset: 0x39549, size: 0x8, addend: 0x0, symName: __ZNKSt3__15dequeINS_8functionIFvvEEENS_9allocatorIS3_EEE10__capacityB8ue170006Ev, symObjAddr: 0x10024, symBinAddr: 0x100013754, symSize: 0x60 }
  - { offsetInCU: 0x2B31E, offset: 0x3956D, size: 0x8, addend: 0x0, symName: __ZNSt3__114__split_bufferIPNS_8functionIFvvEEENS_9allocatorIS4_EEE9push_backB8ue170006ERKS4_, symObjAddr: 0x10084, symBinAddr: 0x1000137B4, symSize: 0x260 }
  - { offsetInCU: 0x2B396, offset: 0x395E5, size: 0x8, addend: 0x0, symName: __ZNKSt3__114__split_bufferIPNS_8functionIFvvEEENS_9allocatorIS4_EEE12__back_spareB8ue170006Ev, symObjAddr: 0x102E4, symBinAddr: 0x100013A14, symSize: 0x40 }
  - { offsetInCU: 0x2B3BA, offset: 0x39609, size: 0x8, addend: 0x0, symName: __ZNSt3__114__split_bufferIPNS_8functionIFvvEEENS_9allocatorIS4_EEE9push_backEOS4_, symObjAddr: 0x10324, symBinAddr: 0x100013A54, symSize: 0x260 }
  - { offsetInCU: 0x2B432, offset: 0x39681, size: 0x8, addend: 0x0, symName: __ZNSt3__116allocator_traitsINS_9allocatorINS_8functionIFvvEEEEEE8allocateB8ue170006ERS5_m, symObjAddr: 0x10584, symBinAddr: 0x100013CB4, symSize: 0x2C }
  - { offsetInCU: 0x2B464, offset: 0x396B3, size: 0x8, addend: 0x0, symName: __ZNSt3__114__split_bufferIPNS_8functionIFvvEEENS_9allocatorIS4_EEE10push_frontEOS4_, symObjAddr: 0x105B0, symBinAddr: 0x100013CE0, symSize: 0x25C }
  - { offsetInCU: 0x2B4DC, offset: 0x3972B, size: 0x8, addend: 0x0, symName: __ZNSt3__114__split_bufferIPNS_8functionIFvvEEERNS_9allocatorIS4_EEEC1EmmS7_, symObjAddr: 0x1080C, symBinAddr: 0x100013F3C, symSize: 0x44 }
  - { offsetInCU: 0x2B536, offset: 0x39785, size: 0x8, addend: 0x0, symName: __ZNSt3__122__allocator_destructorINS_9allocatorINS_8functionIFvvEEEEEEC1B8ue170006ERS5_m, symObjAddr: 0x10850, symBinAddr: 0x100013F80, symSize: 0x3C }
  - { offsetInCU: 0x2B5F7, offset: 0x39846, size: 0x8, addend: 0x0, symName: __ZNSt3__110unique_ptrIPNS_8functionIFvvEEENS_22__allocator_destructorINS_9allocatorIS3_EEEEEC1B8ue170006ILb1EvEES4_NS_16__dependent_typeINS_27__unique_ptr_deleter_sfinaeIS8_EEXT_EE20__good_rval_ref_typeE, symObjAddr: 0x1088C, symBinAddr: 0x100013FBC, symSize: 0x3C }
  - { offsetInCU: 0x2B646, offset: 0x39895, size: 0x8, addend: 0x0, symName: __ZNSt3__114__split_bufferIPNS_8functionIFvvEEERNS_9allocatorIS4_EEE9push_backEOS4_, symObjAddr: 0x108C8, symBinAddr: 0x100013FF8, symSize: 0x260 }
  - { offsetInCU: 0x2B6BE, offset: 0x3990D, size: 0x8, addend: 0x0, symName: __ZNKSt3__110unique_ptrIPNS_8functionIFvvEEENS_22__allocator_destructorINS_9allocatorIS3_EEEEE3getB8ue170006Ev, symObjAddr: 0x10B28, symBinAddr: 0x100014258, symSize: 0x28 }
  - { offsetInCU: 0x2B6E2, offset: 0x39931, size: 0x8, addend: 0x0, symName: __ZNSt3__110unique_ptrIPNS_8functionIFvvEEENS_22__allocator_destructorINS_9allocatorIS3_EEEEE7releaseB8ue170006Ev, symObjAddr: 0x10B50, symBinAddr: 0x100014280, symSize: 0x44 }
  - { offsetInCU: 0x2B715, offset: 0x39964, size: 0x8, addend: 0x0, symName: __ZNSt3__114__split_bufferIPNS_8functionIFvvEEERNS_9allocatorIS4_EEE10push_frontERKS4_, symObjAddr: 0x10B94, symBinAddr: 0x1000142C4, symSize: 0x25C }
  - { offsetInCU: 0x2B78D, offset: 0x399DC, size: 0x8, addend: 0x0, symName: __ZNSt3__114__split_bufferIPNS_8functionIFvvEEENS_9allocatorIS4_EEE9__end_capB8ue170006Ev, symObjAddr: 0x10E2C, symBinAddr: 0x10001455C, symSize: 0x28 }
  - { offsetInCU: 0x2B7B1, offset: 0x39A00, size: 0x8, addend: 0x0, symName: __ZNSt3__114__split_bufferIPNS_8functionIFvvEEERNS_9allocatorIS4_EEE9__end_capB8ue170006Ev, symObjAddr: 0x10E54, symBinAddr: 0x100014584, symSize: 0x28 }
  - { offsetInCU: 0x2B7D5, offset: 0x39A24, size: 0x8, addend: 0x0, symName: __ZNSt3__110unique_ptrIPNS_8functionIFvvEEENS_22__allocator_destructorINS_9allocatorIS3_EEEEED1B8ue170006Ev, symObjAddr: 0x10E7C, symBinAddr: 0x1000145AC, symSize: 0x2C }
  - { offsetInCU: 0x2B7FD, offset: 0x39A4C, size: 0x8, addend: 0x0, symName: __ZNSt3__114__split_bufferIPNS_8functionIFvvEEERNS_9allocatorIS4_EEED1Ev, symObjAddr: 0x10EA8, symBinAddr: 0x1000145D8, symSize: 0x2C }
  - { offsetInCU: 0x2B828, offset: 0x39A77, size: 0x8, addend: 0x0, symName: __ZNSt3__114__split_bufferIPNS_8functionIFvvEEERNS_9allocatorIS4_EEE18__construct_at_endINS_13move_iteratorIPS4_EEEENS_9enable_ifIXsr31__has_forward_iterator_categoryIT_EE5valueEvE4typeESE_SE_, symObjAddr: 0x10F14, symBinAddr: 0x100014644, symSize: 0x60 }
  - { offsetInCU: 0x2B874, offset: 0x39AC3, size: 0x8, addend: 0x0, symName: __ZNSt3__113move_iteratorIPPNS_8functionIFvvEEEEC1B8ue170006ES5_, symObjAddr: 0x10F74, symBinAddr: 0x1000146A4, symSize: 0x34 }
  - { offsetInCU: 0x2B8AA, offset: 0x39AF9, size: 0x8, addend: 0x0, symName: __ZNSt3__116allocator_traitsINS_9allocatorIPNS_8functionIFvvEEEEEE9constructB8ue170006IS5_JRKS5_EvEEvRS6_PT_DpOT0_, symObjAddr: 0x10FA8, symBinAddr: 0x1000146D8, symSize: 0x34 }
  - { offsetInCU: 0x2B923, offset: 0x39B72, size: 0x8, addend: 0x0, symName: __ZNKSt3__114__move_trivialclB8ue170006IPNS_8functionIFvvEEES5_Li0EEENS_4pairIPT_PT0_EES8_S8_SA_, symObjAddr: 0x11178, symBinAddr: 0x1000148A8, symSize: 0x48 }
  - { offsetInCU: 0x2B98F, offset: 0x39BDE, size: 0x8, addend: 0x0, symName: __ZNSt3__14pairIPPNS_8functionIFvvEEES5_EC1B8ue170006IRS5_S5_LPv0EEEOT_OT0_, symObjAddr: 0x113A0, symBinAddr: 0x100014AD0, symSize: 0x3C }
  - { offsetInCU: 0x2B9EC, offset: 0x39C3B, size: 0x8, addend: 0x0, symName: __ZNSt3__14pairIPPNS_8functionIFvvEEES5_EC2B8ue170006IRS5_S5_LPv0EEEOT_OT0_, symObjAddr: 0x113DC, symBinAddr: 0x100014B0C, symSize: 0x34 }
  - { offsetInCU: 0x2BA49, offset: 0x39C98, size: 0x8, addend: 0x0, symName: __ZNSt3__118__unwrap_iter_implIPPNS_8functionIFvvEEELb1EE8__unwrapB8ue170006ES5_, symObjAddr: 0x11410, symBinAddr: 0x100014B40, symSize: 0x24 }
  - { offsetInCU: 0x2BA6B, offset: 0x39CBA, size: 0x8, addend: 0x0, symName: __ZNSt3__14pairIPPNS_8functionIFvvEEES5_EC1B8ue170006IS5_S5_LPv0EEEOT_OT0_, symObjAddr: 0x11434, symBinAddr: 0x100014B64, symSize: 0x3C }
  - { offsetInCU: 0x2BAC8, offset: 0x39D17, size: 0x8, addend: 0x0, symName: __ZNSt3__14pairIPPNS_8functionIFvvEEES5_EC2B8ue170006IS5_S5_LPv0EEEOT_OT0_, symObjAddr: 0x11470, symBinAddr: 0x100014BA0, symSize: 0x34 }
  - { offsetInCU: 0x2BB25, offset: 0x39D74, size: 0x8, addend: 0x0, symName: __ZNSt3__118__unwrap_iter_implIPPNS_8functionIFvvEEELb1EE8__rewrapB8ue170006ES5_S5_, symObjAddr: 0x114A4, symBinAddr: 0x100014BD4, symSize: 0x50 }
  - { offsetInCU: 0x2BB55, offset: 0x39DA4, size: 0x8, addend: 0x0, symName: __ZNSt3__114__split_bufferIPNS_8functionIFvvEEERNS_9allocatorIS4_EEE28__construct_at_end_with_sizeINS_13move_iteratorIPS4_EEEEvT_m, symObjAddr: 0x114F4, symBinAddr: 0x100014C24, symSize: 0xDC }
  - { offsetInCU: 0x2BBBA, offset: 0x39E09, size: 0x8, addend: 0x0, symName: __ZNSt3__114__split_bufferIPNS_8functionIFvvEEERNS_9allocatorIS4_EEE21_ConstructTransactionC1B8ue170006EPPS4_m, symObjAddr: 0x1160C, symBinAddr: 0x100014D3C, symSize: 0x3C }
  - { offsetInCU: 0x2BBFE, offset: 0x39E4D, size: 0x8, addend: 0x0, symName: __ZNSt3__116allocator_traitsINS_9allocatorIPNS_8functionIFvvEEEEEE9constructB8ue170006IS5_JS5_EvEEvRS6_PT_DpOT0_, symObjAddr: 0x11648, symBinAddr: 0x100014D78, symSize: 0x34 }
  - { offsetInCU: 0x2BC54, offset: 0x39EA3, size: 0x8, addend: 0x0, symName: __ZNSt3__114__split_bufferIPNS_8functionIFvvEEERNS_9allocatorIS4_EEE7__allocB8ue170006Ev, symObjAddr: 0x1167C, symBinAddr: 0x100014DAC, symSize: 0x28 }
  - { offsetInCU: 0x2BC78, offset: 0x39EC7, size: 0x8, addend: 0x0, symName: __ZNKSt3__113move_iteratorIPPNS_8functionIFvvEEEEdeB8ue170006Ev, symObjAddr: 0x116A4, symBinAddr: 0x100014DD4, symSize: 0x18 }
  - { offsetInCU: 0x2BC9C, offset: 0x39EEB, size: 0x8, addend: 0x0, symName: __ZNSt3__113move_iteratorIPPNS_8functionIFvvEEEEppB8ue170006Ev, symObjAddr: 0x116BC, symBinAddr: 0x100014DEC, symSize: 0x20 }
  - { offsetInCU: 0x2BCC0, offset: 0x39F0F, size: 0x8, addend: 0x0, symName: __ZNSt3__114__split_bufferIPNS_8functionIFvvEEERNS_9allocatorIS4_EEE21_ConstructTransactionD1B8ue170006Ev, symObjAddr: 0x116DC, symBinAddr: 0x100014E0C, symSize: 0x2C }
  - { offsetInCU: 0x2BCE8, offset: 0x39F37, size: 0x8, addend: 0x0, symName: __ZNSt3__114__split_bufferIPNS_8functionIFvvEEERNS_9allocatorIS4_EEE21_ConstructTransactionC2B8ue170006EPPS4_m, symObjAddr: 0x11708, symBinAddr: 0x100014E38, symSize: 0x44 }
  - { offsetInCU: 0x2BD2C, offset: 0x39F7B, size: 0x8, addend: 0x0, symName: __ZNSt3__19allocatorIPNS_8functionIFvvEEEE9constructB8ue170006IS4_JS4_EEEvPT_DpOT0_, symObjAddr: 0x1174C, symBinAddr: 0x100014E7C, symSize: 0x28 }
  - { offsetInCU: 0x2BD80, offset: 0x39FCF, size: 0x8, addend: 0x0, symName: __ZNSt3__117__compressed_pairIPPNS_8functionIFvvEEERNS_9allocatorIS4_EEE6secondB8ue170006Ev, symObjAddr: 0x11774, symBinAddr: 0x100014EA4, symSize: 0x28 }
  - { offsetInCU: 0x2BDA4, offset: 0x39FF3, size: 0x8, addend: 0x0, symName: __ZNSt3__122__compressed_pair_elemIRNS_9allocatorIPNS_8functionIFvvEEEEELi1ELb0EE5__getB8ue170006Ev, symObjAddr: 0x1179C, symBinAddr: 0x100014ECC, symSize: 0x18 }
  - { offsetInCU: 0x2BDC8, offset: 0x3A017, size: 0x8, addend: 0x0, symName: __ZNSt3__114__split_bufferIPNS_8functionIFvvEEERNS_9allocatorIS4_EEE21_ConstructTransactionD2B8ue170006Ev, symObjAddr: 0x117B4, symBinAddr: 0x100014EE4, symSize: 0x20 }
  - { offsetInCU: 0x2BDF0, offset: 0x3A03F, size: 0x8, addend: 0x0, symName: __ZNKSt3__113move_iteratorIPPNS_8functionIFvvEEEE4baseB8ue170006Ev, symObjAddr: 0x1184C, symBinAddr: 0x100014F7C, symSize: 0x18 }
  - { offsetInCU: 0x2BE14, offset: 0x3A063, size: 0x8, addend: 0x0, symName: __ZNSt3__113move_iteratorIPPNS_8functionIFvvEEEEC2B8ue170006ES5_, symObjAddr: 0x11864, symBinAddr: 0x100014F94, symSize: 0x20 }
  - { offsetInCU: 0x2BE4A, offset: 0x3A099, size: 0x8, addend: 0x0, symName: __ZNSt3__19allocatorIPNS_8functionIFvvEEEE9constructB8ue170006IS4_JRKS4_EEEvPT_DpOT0_, symObjAddr: 0x11884, symBinAddr: 0x100014FB4, symSize: 0x28 }
  - { offsetInCU: 0x2BE9E, offset: 0x3A0ED, size: 0x8, addend: 0x0, symName: __ZNSt3__19allocatorINS_8functionIFvvEEEE8allocateB8ue170006Em, symObjAddr: 0x118AC, symBinAddr: 0x100014FDC, symSize: 0x58 }
  - { offsetInCU: 0x2BEDA, offset: 0x3A129, size: 0x8, addend: 0x0, symName: __ZNSt3__116allocator_traitsINS_9allocatorINS_8functionIFvvEEEEEE8max_sizeB8ue170006IS5_vEEmRKS5_, symObjAddr: 0x11904, symBinAddr: 0x100015034, symSize: 0x24 }
  - { offsetInCU: 0x2BF07, offset: 0x3A156, size: 0x8, addend: 0x0, symName: __ZNKSt3__19allocatorINS_8functionIFvvEEEE8max_sizeB8ue170006Ev, symObjAddr: 0x11928, symBinAddr: 0x100015058, symSize: 0x14 }
  - { offsetInCU: 0x2BF35, offset: 0x3A184, size: 0x8, addend: 0x0, symName: __ZNKSt3__123__move_backward_trivialclB8ue170006IPNS_8functionIFvvEEES5_Li0EEENS_4pairIPT_PT0_EES8_S8_SA_, symObjAddr: 0x11AB8, symBinAddr: 0x1000151E8, symSize: 0x48 }
  - { offsetInCU: 0x2BF9C, offset: 0x3A1EB, size: 0x8, addend: 0x0, symName: __ZNSt3__14pairIPPNS_8functionIFvvEEES5_EC1B8ue170006IRS5_S8_LPv0EEEOT_OT0_, symObjAddr: 0x11BC8, symBinAddr: 0x1000152F8, symSize: 0x3C }
  - { offsetInCU: 0x2BFF9, offset: 0x3A248, size: 0x8, addend: 0x0, symName: __ZNSt3__14pairIPPNS_8functionIFvvEEES5_EC2B8ue170006IRS5_S8_LPv0EEEOT_OT0_, symObjAddr: 0x11C04, symBinAddr: 0x100015334, symSize: 0x34 }
  - { offsetInCU: 0x2C056, offset: 0x3A2A5, size: 0x8, addend: 0x0, symName: __ZNSt3__114__split_bufferIPNS_8functionIFvvEEERNS_9allocatorIS4_EEEC2EmmS7_, symObjAddr: 0x11C38, symBinAddr: 0x100015368, symSize: 0xD4 }
  - { offsetInCU: 0x2C0C8, offset: 0x3A317, size: 0x8, addend: 0x0, symName: __ZNSt3__117__compressed_pairIPPNS_8functionIFvvEEERNS_9allocatorIS4_EEEC1B8ue170006IDnS8_EEOT_OT0_, symObjAddr: 0x11D0C, symBinAddr: 0x10001543C, symSize: 0x3C }
  - { offsetInCU: 0x2C11E, offset: 0x3A36D, size: 0x8, addend: 0x0, symName: __ZNSt3__117__compressed_pairIPPNS_8functionIFvvEEERNS_9allocatorIS4_EEEC2B8ue170006IDnS8_EEOT_OT0_, symObjAddr: 0x11D88, symBinAddr: 0x1000154B8, symSize: 0x48 }
  - { offsetInCU: 0x2C174, offset: 0x3A3C3, size: 0x8, addend: 0x0, symName: __ZNSt3__122__compressed_pair_elemIRNS_9allocatorIPNS_8functionIFvvEEEEELi1ELb0EEC2B8ue170006IS7_vEEOT_, symObjAddr: 0x11DD0, symBinAddr: 0x100015500, symSize: 0x20 }
  - { offsetInCU: 0x2C1B4, offset: 0x3A403, size: 0x8, addend: 0x0, symName: __ZNSt3__19allocatorIPNS_8functionIFvvEEEE8allocateB8ue170006Em, symObjAddr: 0x11DF0, symBinAddr: 0x100015520, symSize: 0x58 }
  - { offsetInCU: 0x2C1F0, offset: 0x3A43F, size: 0x8, addend: 0x0, symName: __ZNSt3__116allocator_traitsINS_9allocatorIPNS_8functionIFvvEEEEEE8max_sizeB8ue170006IS6_vEEmRKS6_, symObjAddr: 0x11E48, symBinAddr: 0x100015578, symSize: 0x24 }
  - { offsetInCU: 0x2C21D, offset: 0x3A46C, size: 0x8, addend: 0x0, symName: __ZNKSt3__19allocatorIPNS_8functionIFvvEEEE8max_sizeB8ue170006Ev, symObjAddr: 0x11E6C, symBinAddr: 0x10001559C, symSize: 0x14 }
  - { offsetInCU: 0x2C241, offset: 0x3A490, size: 0x8, addend: 0x0, symName: __ZNSt3__122__allocator_destructorINS_9allocatorINS_8functionIFvvEEEEEEC2B8ue170006ERS5_m, symObjAddr: 0x11E80, symBinAddr: 0x1000155B0, symSize: 0x2C }
  - { offsetInCU: 0x2C285, offset: 0x3A4D4, size: 0x8, addend: 0x0, symName: __ZNSt3__110unique_ptrIPNS_8functionIFvvEEENS_22__allocator_destructorINS_9allocatorIS3_EEEEEC2B8ue170006ILb1EvEES4_NS_16__dependent_typeINS_27__unique_ptr_deleter_sfinaeIS8_EEXT_EE20__good_rval_ref_typeE, symObjAddr: 0x11EAC, symBinAddr: 0x1000155DC, symSize: 0x48 }
  - { offsetInCU: 0x2C2D4, offset: 0x3A523, size: 0x8, addend: 0x0, symName: __ZNSt3__117__compressed_pairIPNS_8functionIFvvEEENS_22__allocator_destructorINS_9allocatorIS3_EEEEEC1B8ue170006IRS4_S8_EEOT_OT0_, symObjAddr: 0x11EF4, symBinAddr: 0x100015624, symSize: 0x3C }
  - { offsetInCU: 0x2C32A, offset: 0x3A579, size: 0x8, addend: 0x0, symName: __ZNSt3__117__compressed_pairIPNS_8functionIFvvEEENS_22__allocator_destructorINS_9allocatorIS3_EEEEEC2B8ue170006IRS4_S8_EEOT_OT0_, symObjAddr: 0x11F30, symBinAddr: 0x100015660, symSize: 0x48 }
  - { offsetInCU: 0x2C380, offset: 0x3A5CF, size: 0x8, addend: 0x0, symName: __ZNSt3__122__compressed_pair_elemIPNS_8functionIFvvEEELi0ELb0EEC2B8ue170006IRS4_vEEOT_, symObjAddr: 0x11F78, symBinAddr: 0x1000156A8, symSize: 0x24 }
  - { offsetInCU: 0x2C3C0, offset: 0x3A60F, size: 0x8, addend: 0x0, symName: __ZNSt3__122__compressed_pair_elemINS_22__allocator_destructorINS_9allocatorINS_8functionIFvvEEEEEEELi1ELb0EEC2B8ue170006IS7_vEEOT_, symObjAddr: 0x11F9C, symBinAddr: 0x1000156CC, symSize: 0x24 }
  - { offsetInCU: 0x2C400, offset: 0x3A64F, size: 0x8, addend: 0x0, symName: __ZNKSt3__117__compressed_pairIPNS_8functionIFvvEEENS_22__allocator_destructorINS_9allocatorIS3_EEEEE5firstB8ue170006Ev, symObjAddr: 0x11FC0, symBinAddr: 0x1000156F0, symSize: 0x24 }
  - { offsetInCU: 0x2C424, offset: 0x3A673, size: 0x8, addend: 0x0, symName: __ZNKSt3__122__compressed_pair_elemIPNS_8functionIFvvEEELi0ELb0EE5__getB8ue170006Ev, symObjAddr: 0x11FE4, symBinAddr: 0x100015714, symSize: 0x14 }
  - { offsetInCU: 0x2C448, offset: 0x3A697, size: 0x8, addend: 0x0, symName: __ZNSt3__117__compressed_pairIPNS_8functionIFvvEEENS_22__allocator_destructorINS_9allocatorIS3_EEEEE5firstB8ue170006Ev, symObjAddr: 0x11FF8, symBinAddr: 0x100015728, symSize: 0x24 }
  - { offsetInCU: 0x2C46C, offset: 0x3A6BB, size: 0x8, addend: 0x0, symName: __ZNSt3__122__compressed_pair_elemIPNS_8functionIFvvEEELi0ELb0EE5__getB8ue170006Ev, symObjAddr: 0x1201C, symBinAddr: 0x10001574C, symSize: 0x14 }
  - { offsetInCU: 0x2C490, offset: 0x3A6DF, size: 0x8, addend: 0x0, symName: __ZNSt3__117__compressed_pairIPPNS_8functionIFvvEEENS_9allocatorIS4_EEE5firstB8ue170006Ev, symObjAddr: 0x12030, symBinAddr: 0x100015760, symSize: 0x24 }
  - { offsetInCU: 0x2C4B4, offset: 0x3A703, size: 0x8, addend: 0x0, symName: __ZNSt3__122__compressed_pair_elemIPPNS_8functionIFvvEEELi0ELb0EE5__getB8ue170006Ev, symObjAddr: 0x12054, symBinAddr: 0x100015784, symSize: 0x14 }
  - { offsetInCU: 0x2C4D8, offset: 0x3A727, size: 0x8, addend: 0x0, symName: __ZNSt3__117__compressed_pairIPPNS_8functionIFvvEEERNS_9allocatorIS4_EEE5firstB8ue170006Ev, symObjAddr: 0x12068, symBinAddr: 0x100015798, symSize: 0x24 }
  - { offsetInCU: 0x2C4FC, offset: 0x3A74B, size: 0x8, addend: 0x0, symName: __ZNSt3__110unique_ptrIPNS_8functionIFvvEEENS_22__allocator_destructorINS_9allocatorIS3_EEEEED2B8ue170006Ev, symObjAddr: 0x1208C, symBinAddr: 0x1000157BC, symSize: 0x30 }
  - { offsetInCU: 0x2C524, offset: 0x3A773, size: 0x8, addend: 0x0, symName: __ZNSt3__110unique_ptrIPNS_8functionIFvvEEENS_22__allocator_destructorINS_9allocatorIS3_EEEEE5resetB8ue170006ES4_, symObjAddr: 0x120BC, symBinAddr: 0x1000157EC, symSize: 0x78 }
  - { offsetInCU: 0x2C566, offset: 0x3A7B5, size: 0x8, addend: 0x0, symName: __ZNSt3__117__compressed_pairIPNS_8functionIFvvEEENS_22__allocator_destructorINS_9allocatorIS3_EEEEE6secondB8ue170006Ev, symObjAddr: 0x12134, symBinAddr: 0x100015864, symSize: 0x28 }
  - { offsetInCU: 0x2C58A, offset: 0x3A7D9, size: 0x8, addend: 0x0, symName: __ZNSt3__122__allocator_destructorINS_9allocatorINS_8functionIFvvEEEEEEclB8ue170006EPS4_, symObjAddr: 0x1215C, symBinAddr: 0x10001588C, symSize: 0x34 }
  - { offsetInCU: 0x2C5BC, offset: 0x3A80B, size: 0x8, addend: 0x0, symName: __ZNSt3__122__compressed_pair_elemINS_22__allocator_destructorINS_9allocatorINS_8functionIFvvEEEEEEELi1ELb0EE5__getB8ue170006Ev, symObjAddr: 0x12190, symBinAddr: 0x1000158C0, symSize: 0x14 }
  - { offsetInCU: 0x2C5E0, offset: 0x3A82F, size: 0x8, addend: 0x0, symName: __ZNSt3__114__split_bufferIPNS_8functionIFvvEEERNS_9allocatorIS4_EEED2Ev, symObjAddr: 0x121A4, symBinAddr: 0x1000158D4, symSize: 0x8C }
  - { offsetInCU: 0x2C60B, offset: 0x3A85A, size: 0x8, addend: 0x0, symName: __ZNSt3__114__split_bufferIPNS_8functionIFvvEEERNS_9allocatorIS4_EEE5clearB8ue170006Ev, symObjAddr: 0x12230, symBinAddr: 0x100015960, symSize: 0x28 }
  - { offsetInCU: 0x2C62F, offset: 0x3A87E, size: 0x8, addend: 0x0, symName: __ZNKSt3__114__split_bufferIPNS_8functionIFvvEEERNS_9allocatorIS4_EEE8capacityB8ue170006Ev, symObjAddr: 0x12258, symBinAddr: 0x100015988, symSize: 0x40 }
  - { offsetInCU: 0x2C653, offset: 0x3A8A2, size: 0x8, addend: 0x0, symName: __ZNSt3__114__split_bufferIPNS_8functionIFvvEEERNS_9allocatorIS4_EEE17__destruct_at_endB8ue170006EPS4_, symObjAddr: 0x12298, symBinAddr: 0x1000159C8, symSize: 0x2C }
  - { offsetInCU: 0x2C685, offset: 0x3A8D4, size: 0x8, addend: 0x0, symName: __ZNSt3__114__split_bufferIPNS_8functionIFvvEEERNS_9allocatorIS4_EEE17__destruct_at_endB8ue170006EPS4_NS_17integral_constantIbLb0EEE, symObjAddr: 0x122C4, symBinAddr: 0x1000159F4, symSize: 0x80 }
  - { offsetInCU: 0x2C6C5, offset: 0x3A914, size: 0x8, addend: 0x0, symName: __ZNKSt3__114__split_bufferIPNS_8functionIFvvEEERNS_9allocatorIS4_EEE9__end_capB8ue170006Ev, symObjAddr: 0x12344, symBinAddr: 0x100015A74, symSize: 0x28 }
  - { offsetInCU: 0x2C6E9, offset: 0x3A938, size: 0x8, addend: 0x0, symName: __ZNKSt3__117__compressed_pairIPPNS_8functionIFvvEEERNS_9allocatorIS4_EEE5firstB8ue170006Ev, symObjAddr: 0x1236C, symBinAddr: 0x100015A9C, symSize: 0x24 }
  - { offsetInCU: 0x2C70D, offset: 0x3A95C, size: 0x8, addend: 0x0, symName: '__ZNSt3__19allocatorINS_8functionIFvvEEEE9constructB8ue170006IS3_JZN10ThreadPool7enqueueIRZN5layer13forward_layerER11value_arrayE3$_0JNS_17reference_wrapperINS_6vectorI6neuronNS0_ISF_EEEEEEEEENS_6futureIDTclfp_spfp0_EEEEOT_DpOT0_EUlvE_EEEvPSM_SQ_', symObjAddr: 0x12390, symBinAddr: 0x100015AC0, symSize: 0x74 }
  - { offsetInCU: 0x2C761, offset: 0x3A9B0, size: 0x8, addend: 0x0, symName: '__ZZN10ThreadPool7enqueueIRZN5layer13forward_layerER11value_arrayE3$_0JNSt3__117reference_wrapperINS6_6vectorI6neuronNS6_9allocatorIS9_EEEEEEEEENS6_6futureIDTclfp_spfp0_EEEEOT_DpOT0_ENUlvE_C1EOSM_', symObjAddr: 0x12404, symBinAddr: 0x100015B34, symSize: 0x34 }
  - { offsetInCU: 0x2C794, offset: 0x3A9E3, size: 0x8, addend: 0x0, symName: '__ZNSt3__18functionIFvvEEC1IZN10ThreadPool7enqueueIRZN5layer13forward_layerER11value_arrayE3$_0JNS_17reference_wrapperINS_6vectorI6neuronNS_9allocatorISD_EEEEEEEEENS_6futureIDTclfp_spfp0_EEEEOT_DpOT0_EUlvE_vEESL_', symObjAddr: 0x12438, symBinAddr: 0x100015B68, symSize: 0x34 }
  - { offsetInCU: 0x2C7D9, offset: 0x3AA28, size: 0x8, addend: 0x0, symName: '__ZZN10ThreadPool7enqueueIRZN5layer13forward_layerER11value_arrayE3$_0JNSt3__117reference_wrapperINS6_6vectorI6neuronNS6_9allocatorIS9_EEEEEEEEENS6_6futureIDTclfp_spfp0_EEEEOT_DpOT0_ENUlvE_C2EOSM_', symObjAddr: 0x1246C, symBinAddr: 0x100015B9C, symSize: 0x34 }
  - { offsetInCU: 0x2C80C, offset: 0x3AA5B, size: 0x8, addend: 0x0, symName: __ZNSt3__110shared_ptrINS_13packaged_taskIFNS_6vectorI5valueNS_9allocatorIS3_EEEEvEEEEC1B8ue170006EOS9_, symObjAddr: 0x124A0, symBinAddr: 0x100015BD0, symSize: 0x34 }
  - { offsetInCU: 0x2C843, offset: 0x3AA92, size: 0x8, addend: 0x0, symName: __ZNSt3__110shared_ptrINS_13packaged_taskIFNS_6vectorI5valueNS_9allocatorIS3_EEEEvEEEEC2B8ue170006EOS9_, symObjAddr: 0x124D4, symBinAddr: 0x100015C04, symSize: 0x40 }
  - { offsetInCU: 0x2C87A, offset: 0x3AAC9, size: 0x8, addend: 0x0, symName: '__ZNSt3__18functionIFvvEEC2IZN10ThreadPool7enqueueIRZN5layer13forward_layerER11value_arrayE3$_0JNS_17reference_wrapperINS_6vectorI6neuronNS_9allocatorISD_EEEEEEEEENS_6futureIDTclfp_spfp0_EEEEOT_DpOT0_EUlvE_vEESL_', symObjAddr: 0x12514, symBinAddr: 0x100015C44, symSize: 0x34 }
  - { offsetInCU: 0x2C8BF, offset: 0x3AB0E, size: 0x8, addend: 0x0, symName: '__ZNSt3__110__function12__value_funcIFvvEEC1B8ue170006IZN10ThreadPool7enqueueIRZN5layer13forward_layerER11value_arrayE3$_0JNS_17reference_wrapperINS_6vectorI6neuronNS_9allocatorISE_EEEEEEEEENS_6futureIDTclfp_spfp0_EEEEOT_DpOT0_EUlvE_vEESN_', symObjAddr: 0x12548, symBinAddr: 0x100015C78, symSize: 0x50 }
  - { offsetInCU: 0x2C900, offset: 0x3AB4F, size: 0x8, addend: 0x0, symName: '__ZNSt3__19allocatorIZN10ThreadPool7enqueueIRZN5layer13forward_layerER11value_arrayE3$_0JNS_17reference_wrapperINS_6vectorI6neuronNS0_ISA_EEEEEEEEENS_6futureIDTclfp_spfp0_EEEEOT_DpOT0_EUlvE_EC1B8ue170006Ev', symObjAddr: 0x12598, symBinAddr: 0x100015CC8, symSize: 0x2C }
  - { offsetInCU: 0x2C928, offset: 0x3AB77, size: 0x8, addend: 0x0, symName: '__ZNSt3__110__function12__value_funcIFvvEEC1B8ue170006IZN10ThreadPool7enqueueIRZN5layer13forward_layerER11value_arrayE3$_0JNS_17reference_wrapperINS_6vectorI6neuronNS_9allocatorISE_EEEEEEEEENS_6futureIDTclfp_spfp0_EEEEOT_DpOT0_EUlvE_NSF_ISR_EEEESN_RKT0_', symObjAddr: 0x125C4, symBinAddr: 0x100015CF4, symSize: 0x3C }
  - { offsetInCU: 0x2C980, offset: 0x3ABCF, size: 0x8, addend: 0x0, symName: '__ZNSt3__19allocatorIZN10ThreadPool7enqueueIRZN5layer13forward_layerER11value_arrayE3$_0JNS_17reference_wrapperINS_6vectorI6neuronNS0_ISA_EEEEEEEEENS_6futureIDTclfp_spfp0_EEEEOT_DpOT0_EUlvE_EC2B8ue170006Ev', symObjAddr: 0x12600, symBinAddr: 0x100015D30, symSize: 0x2C }
  - { offsetInCU: 0x2C9A8, offset: 0x3ABF7, size: 0x8, addend: 0x0, symName: '__ZNSt3__116__non_trivial_ifILb1ENS_9allocatorIZN10ThreadPool7enqueueIRZN5layer13forward_layerER11value_arrayE3$_0JNS_17reference_wrapperINS_6vectorI6neuronNS1_ISB_EEEEEEEEENS_6futureIDTclfp_spfp0_EEEEOT_DpOT0_EUlvE_EEEC2B8ue170006Ev', symObjAddr: 0x1262C, symBinAddr: 0x100015D5C, symSize: 0x14 }
  - { offsetInCU: 0x2C9D0, offset: 0x3AC1F, size: 0x8, addend: 0x0, symName: '__ZNSt3__110__function12__value_funcIFvvEEC2B8ue170006IZN10ThreadPool7enqueueIRZN5layer13forward_layerER11value_arrayE3$_0JNS_17reference_wrapperINS_6vectorI6neuronNS_9allocatorISE_EEEEEEEEENS_6futureIDTclfp_spfp0_EEEEOT_DpOT0_EUlvE_NSF_ISR_EEEESN_RKT0_', symObjAddr: 0x12640, symBinAddr: 0x100015D70, symSize: 0x94 }
  - { offsetInCU: 0x2CA74, offset: 0x3ACC3, size: 0x8, addend: 0x0, symName: '__ZNSt3__19allocatorINS_10__function6__funcIZN10ThreadPool7enqueueIRZN5layer13forward_layerER11value_arrayE3$_0JNS_17reference_wrapperINS_6vectorI6neuronNS0_ISC_EEEEEEEEENS_6futureIDTclfp_spfp0_EEEEOT_DpOT0_EUlvE_NS0_ISO_EEFvvEEEEC1B8ue170006ISO_EERKNS0_ISJ_EE', symObjAddr: 0x126EC, symBinAddr: 0x100015E1C, symSize: 0x34 }
  - { offsetInCU: 0x2CAB5, offset: 0x3AD04, size: 0x8, addend: 0x0, symName: '__ZNSt3__19allocatorIZN10ThreadPool7enqueueIRZN5layer13forward_layerER11value_arrayE3$_0JNS_17reference_wrapperINS_6vectorI6neuronNS0_ISA_EEEEEEEEENS_6futureIDTclfp_spfp0_EEEEOT_DpOT0_EUlvE_EC1B8ue170006INS_10__function6__funcISM_SN_FvvEEEEERKNS0_ISH_EE', symObjAddr: 0x12720, symBinAddr: 0x100015E50, symSize: 0x34 }
  - { offsetInCU: 0x2CAF1, offset: 0x3AD40, size: 0x8, addend: 0x0, symName: '__ZNSt3__110__function6__funcIZN10ThreadPool7enqueueIRZN5layer13forward_layerER11value_arrayE3$_0JNS_17reference_wrapperINS_6vectorI6neuronNS_9allocatorISB_EEEEEEEEENS_6futureIDTclfp_spfp0_EEEEOT_DpOT0_EUlvE_NSC_ISO_EEFvvEEC1B8ue170006EOSO_OSP_', symObjAddr: 0x12754, symBinAddr: 0x100015E84, symSize: 0x3C }
  - { offsetInCU: 0x2CB37, offset: 0x3AD86, size: 0x8, addend: 0x0, symName: '__ZNSt3__19allocatorINS_10__function6__funcIZN10ThreadPool7enqueueIRZN5layer13forward_layerER11value_arrayE3$_0JNS_17reference_wrapperINS_6vectorI6neuronNS0_ISC_EEEEEEEEENS_6futureIDTclfp_spfp0_EEEEOT_DpOT0_EUlvE_NS0_ISO_EEFvvEEEEC2B8ue170006ISO_EERKNS0_ISJ_EE', symObjAddr: 0x12790, symBinAddr: 0x100015EC0, symSize: 0x30 }
  - { offsetInCU: 0x2CB73, offset: 0x3ADC2, size: 0x8, addend: 0x0, symName: '__ZNSt3__116__non_trivial_ifILb1ENS_9allocatorINS_10__function6__funcIZN10ThreadPool7enqueueIRZN5layer13forward_layerER11value_arrayE3$_0JNS_17reference_wrapperINS_6vectorI6neuronNS1_ISD_EEEEEEEEENS_6futureIDTclfp_spfp0_EEEEOT_DpOT0_EUlvE_NS1_ISP_EEFvvEEEEEEC2B8ue170006Ev', symObjAddr: 0x127C0, symBinAddr: 0x100015EF0, symSize: 0x14 }
  - { offsetInCU: 0x2CB9B, offset: 0x3ADEA, size: 0x8, addend: 0x0, symName: '__ZNSt3__19allocatorIZN10ThreadPool7enqueueIRZN5layer13forward_layerER11value_arrayE3$_0JNS_17reference_wrapperINS_6vectorI6neuronNS0_ISA_EEEEEEEEENS_6futureIDTclfp_spfp0_EEEEOT_DpOT0_EUlvE_EC2B8ue170006INS_10__function6__funcISM_SN_FvvEEEEERKNS0_ISH_EE', symObjAddr: 0x127D4, symBinAddr: 0x100015F04, symSize: 0x30 }
  - { offsetInCU: 0x2CBD7, offset: 0x3AE26, size: 0x8, addend: 0x0, symName: '__ZNSt3__110__function6__funcIZN10ThreadPool7enqueueIRZN5layer13forward_layerER11value_arrayE3$_0JNS_17reference_wrapperINS_6vectorI6neuronNS_9allocatorISB_EEEEEEEEENS_6futureIDTclfp_spfp0_EEEEOT_DpOT0_EUlvE_NSC_ISO_EEFvvEEC2B8ue170006EOSO_OSP_', symObjAddr: 0x12804, symBinAddr: 0x100015F34, symSize: 0x88 }
  - { offsetInCU: 0x2CC1D, offset: 0x3AE6C, size: 0x8, addend: 0x0, symName: __ZNSt3__110__function6__baseIFvvEEC2B8ue170006Ev, symObjAddr: 0x1288C, symBinAddr: 0x100015FBC, symSize: 0x24 }
  - { offsetInCU: 0x2CC45, offset: 0x3AE94, size: 0x8, addend: 0x0, symName: '__ZNSt3__110__function12__alloc_funcIZN10ThreadPool7enqueueIRZN5layer13forward_layerER11value_arrayE3$_0JNS_17reference_wrapperINS_6vectorI6neuronNS_9allocatorISB_EEEEEEEEENS_6futureIDTclfp_spfp0_EEEEOT_DpOT0_EUlvE_NSC_ISO_EEFvvEEC1B8ue170006EOSO_OSP_', symObjAddr: 0x128B0, symBinAddr: 0x100015FE0, symSize: 0x3C }
  - { offsetInCU: 0x2CC89, offset: 0x3AED8, size: 0x8, addend: 0x0, symName: __ZNSt3__110__function6__baseIFvvEED2Ev, symObjAddr: 0x128EC, symBinAddr: 0x10001601C, symSize: 0x14 }
  - { offsetInCU: 0x2CCB1, offset: 0x3AF00, size: 0x8, addend: 0x0, symName: '__ZNSt3__110__function6__funcIZN10ThreadPool7enqueueIRZN5layer13forward_layerER11value_arrayE3$_0JNS_17reference_wrapperINS_6vectorI6neuronNS_9allocatorISB_EEEEEEEEENS_6futureIDTclfp_spfp0_EEEEOT_DpOT0_EUlvE_NSC_ISO_EEFvvEED1Ev', symObjAddr: 0x12900, symBinAddr: 0x100016030, symSize: 0x2C }
  - { offsetInCU: 0x2CCDD, offset: 0x3AF2C, size: 0x8, addend: 0x0, symName: '__ZNSt3__110__function6__funcIZN10ThreadPool7enqueueIRZN5layer13forward_layerER11value_arrayE3$_0JNS_17reference_wrapperINS_6vectorI6neuronNS_9allocatorISB_EEEEEEEEENS_6futureIDTclfp_spfp0_EEEEOT_DpOT0_EUlvE_NSC_ISO_EEFvvEED0Ev', symObjAddr: 0x1292C, symBinAddr: 0x10001605C, symSize: 0x30 }
  - { offsetInCU: 0x2CD09, offset: 0x3AF58, size: 0x8, addend: 0x0, symName: '__ZNKSt3__110__function6__funcIZN10ThreadPool7enqueueIRZN5layer13forward_layerER11value_arrayE3$_0JNS_17reference_wrapperINS_6vectorI6neuronNS_9allocatorISB_EEEEEEEEENS_6futureIDTclfp_spfp0_EEEEOT_DpOT0_EUlvE_NSC_ISO_EEFvvEE7__cloneEv', symObjAddr: 0x1295C, symBinAddr: 0x10001608C, symSize: 0xFC }
  - { offsetInCU: 0x2CD5A, offset: 0x3AFA9, size: 0x8, addend: 0x0, symName: '__ZNKSt3__110__function6__funcIZN10ThreadPool7enqueueIRZN5layer13forward_layerER11value_arrayE3$_0JNS_17reference_wrapperINS_6vectorI6neuronNS_9allocatorISB_EEEEEEEEENS_6futureIDTclfp_spfp0_EEEEOT_DpOT0_EUlvE_NSC_ISO_EEFvvEE7__cloneEPNS0_6__baseISQ_EE', symObjAddr: 0x12A58, symBinAddr: 0x100016188, symSize: 0x58 }
  - { offsetInCU: 0x2CD90, offset: 0x3AFDF, size: 0x8, addend: 0x0, symName: '__ZNSt3__110__function6__funcIZN10ThreadPool7enqueueIRZN5layer13forward_layerER11value_arrayE3$_0JNS_17reference_wrapperINS_6vectorI6neuronNS_9allocatorISB_EEEEEEEEENS_6futureIDTclfp_spfp0_EEEEOT_DpOT0_EUlvE_NSC_ISO_EEFvvEE7destroyEv', symObjAddr: 0x12AB0, symBinAddr: 0x1000161E0, symSize: 0x28 }
  - { offsetInCU: 0x2CDB7, offset: 0x3B006, size: 0x8, addend: 0x0, symName: '__ZNSt3__110__function6__funcIZN10ThreadPool7enqueueIRZN5layer13forward_layerER11value_arrayE3$_0JNS_17reference_wrapperINS_6vectorI6neuronNS_9allocatorISB_EEEEEEEEENS_6futureIDTclfp_spfp0_EEEEOT_DpOT0_EUlvE_NSC_ISO_EEFvvEE18destroy_deallocateEv', symObjAddr: 0x12AD8, symBinAddr: 0x100016208, symSize: 0x58 }
  - { offsetInCU: 0x2CDF9, offset: 0x3B048, size: 0x8, addend: 0x0, symName: '__ZNSt3__110__function6__funcIZN10ThreadPool7enqueueIRZN5layer13forward_layerER11value_arrayE3$_0JNS_17reference_wrapperINS_6vectorI6neuronNS_9allocatorISB_EEEEEEEEENS_6futureIDTclfp_spfp0_EEEEOT_DpOT0_EUlvE_NSC_ISO_EEFvvEEclEv', symObjAddr: 0x12B30, symBinAddr: 0x100016260, symSize: 0x28 }
  - { offsetInCU: 0x2CE20, offset: 0x3B06F, size: 0x8, addend: 0x0, symName: '__ZNKSt3__110__function6__funcIZN10ThreadPool7enqueueIRZN5layer13forward_layerER11value_arrayE3$_0JNS_17reference_wrapperINS_6vectorI6neuronNS_9allocatorISB_EEEEEEEEENS_6futureIDTclfp_spfp0_EEEEOT_DpOT0_EUlvE_NSC_ISO_EEFvvEE6targetERKSt9type_info', symObjAddr: 0x12B58, symBinAddr: 0x100016288, symSize: 0x60 }
  - { offsetInCU: 0x2CE56, offset: 0x3B0A5, size: 0x8, addend: 0x0, symName: '__ZNKSt3__110__function6__funcIZN10ThreadPool7enqueueIRZN5layer13forward_layerER11value_arrayE3$_0JNS_17reference_wrapperINS_6vectorI6neuronNS_9allocatorISB_EEEEEEEEENS_6futureIDTclfp_spfp0_EEEEOT_DpOT0_EUlvE_NSC_ISO_EEFvvEE11target_typeEv', symObjAddr: 0x12BB8, symBinAddr: 0x1000162E8, symSize: 0x18 }
  - { offsetInCU: 0x2CE7D, offset: 0x3B0CC, size: 0x8, addend: 0x0, symName: __ZNSt3__110__function6__baseIFvvEED1Ev, symObjAddr: 0x12BD0, symBinAddr: 0x100016300, symSize: 0x14 }
  - { offsetInCU: 0x2CEA5, offset: 0x3B0F4, size: 0x8, addend: 0x0, symName: __ZNSt3__110__function6__baseIFvvEED0Ev, symObjAddr: 0x12BE4, symBinAddr: 0x100016314, symSize: 0xC }
  - { offsetInCU: 0x2CECD, offset: 0x3B11C, size: 0x8, addend: 0x0, symName: '__ZNSt3__110__function12__alloc_funcIZN10ThreadPool7enqueueIRZN5layer13forward_layerER11value_arrayE3$_0JNS_17reference_wrapperINS_6vectorI6neuronNS_9allocatorISB_EEEEEEEEENS_6futureIDTclfp_spfp0_EEEEOT_DpOT0_EUlvE_NSC_ISO_EEFvvEEC2B8ue170006EOSO_OSP_', symObjAddr: 0x12BF0, symBinAddr: 0x100016320, symSize: 0x5C }
  - { offsetInCU: 0x2CF11, offset: 0x3B160, size: 0x8, addend: 0x0, symName: '__ZNSt3__117__compressed_pairIZN10ThreadPool7enqueueIRZN5layer13forward_layerER11value_arrayE3$_0JNS_17reference_wrapperINS_6vectorI6neuronNS_9allocatorISA_EEEEEEEEENS_6futureIDTclfp_spfp0_EEEEOT_DpOT0_EUlvE_NSB_ISN_EEEC1B8ue170006IJOSN_EJOSO_EEENS_21piecewise_construct_tENS_5tupleIJDpT_EEENSU_IJDpSK_EEE', symObjAddr: 0x12CA4, symBinAddr: 0x1000163D4, symSize: 0x3C }
  - { offsetInCU: 0x2CF79, offset: 0x3B1C8, size: 0x8, addend: 0x0, symName: '__ZNSt3__15tupleIJOZN10ThreadPool7enqueueIRZN5layer13forward_layerER11value_arrayE3$_0JNS_17reference_wrapperINS_6vectorI6neuronNS_9allocatorISA_EEEEEEEEENS_6futureIDTclfp_spfp0_EEEEOT_DpOT0_EUlvE_EEC1B8ue170006IJSN_ELi0EEEDpOT_', symObjAddr: 0x12CE0, symBinAddr: 0x100016410, symSize: 0x34 }
  - { offsetInCU: 0x2CFC2, offset: 0x3B211, size: 0x8, addend: 0x0, symName: '__ZNSt3__15tupleIJOZN10ThreadPool7enqueueIRZN5layer13forward_layerER11value_arrayE3$_0JNS_17reference_wrapperINS_6vectorI6neuronNS_9allocatorISA_EEEEEEEEENS_6futureIDTclfp_spfp0_EEEEOT_DpOT0_EUlvE_EEC2B8ue170006IJSN_ELi0EEEDpOT_', symObjAddr: 0x12D14, symBinAddr: 0x100016444, symSize: 0x34 }
  - { offsetInCU: 0x2D00B, offset: 0x3B25A, size: 0x8, addend: 0x0, symName: '__ZNSt3__112__tuple_implINS_15__tuple_indicesIJLm0EEEEJOZN10ThreadPool7enqueueIRZN5layer13forward_layerER11value_arrayE3$_0JNS_17reference_wrapperINS_6vectorI6neuronNS_9allocatorISC_EEEEEEEEENS_6futureIDTclfp_spfp0_EEEEOT_DpOT0_EUlvE_EEC1B8ue170006IJLm0EEJSQ_EJEJEJSP_EEENS1_IJXspT_EEEENS_13__tuple_typesIJDpSM_EEENS1_IJXspT1_EEEENSU_IJDpT2_EEEDpOT3_', symObjAddr: 0x12D48, symBinAddr: 0x100016478, symSize: 0x34 }
  - { offsetInCU: 0x2D09B, offset: 0x3B2EA, size: 0x8, addend: 0x0, symName: '__ZNSt3__112__tuple_implINS_15__tuple_indicesIJLm0EEEEJOZN10ThreadPool7enqueueIRZN5layer13forward_layerER11value_arrayE3$_0JNS_17reference_wrapperINS_6vectorI6neuronNS_9allocatorISC_EEEEEEEEENS_6futureIDTclfp_spfp0_EEEEOT_DpOT0_EUlvE_EEC2B8ue170006IJLm0EEJSQ_EJEJEJSP_EEENS1_IJXspT_EEEENS_13__tuple_typesIJDpSM_EEENS1_IJXspT1_EEEENSU_IJDpT2_EEEDpOT3_', symObjAddr: 0x12D7C, symBinAddr: 0x1000164AC, symSize: 0x34 }
  - { offsetInCU: 0x2D12B, offset: 0x3B37A, size: 0x8, addend: 0x0, symName: '__ZNSt3__112__tuple_leafILm0EOZN10ThreadPool7enqueueIRZN5layer13forward_layerER11value_arrayE3$_0JNS_17reference_wrapperINS_6vectorI6neuronNS_9allocatorISA_EEEEEEEEENS_6futureIDTclfp_spfp0_EEEEOT_DpOT0_EUlvE_Lb0EEC2B8ue170006ISN_vEESJ_', symObjAddr: 0x12DB0, symBinAddr: 0x1000164E0, symSize: 0x20 }
  - { offsetInCU: 0x2D16C, offset: 0x3B3BB, size: 0x8, addend: 0x0, symName: '__ZNSt3__15tupleIJONS_9allocatorIZN10ThreadPool7enqueueIRZN5layer13forward_layerER11value_arrayE3$_0JNS_17reference_wrapperINS_6vectorI6neuronNS1_ISB_EEEEEEEEENS_6futureIDTclfp_spfp0_EEEEOT_DpOT0_EUlvE_EEEEC1B8ue170006IJSO_ELi0EEEDpOT_', symObjAddr: 0x12DD0, symBinAddr: 0x100016500, symSize: 0x34 }
  - { offsetInCU: 0x2D1B5, offset: 0x3B404, size: 0x8, addend: 0x0, symName: '__ZNSt3__15tupleIJONS_9allocatorIZN10ThreadPool7enqueueIRZN5layer13forward_layerER11value_arrayE3$_0JNS_17reference_wrapperINS_6vectorI6neuronNS1_ISB_EEEEEEEEENS_6futureIDTclfp_spfp0_EEEEOT_DpOT0_EUlvE_EEEEC2B8ue170006IJSO_ELi0EEEDpOT_', symObjAddr: 0x12E04, symBinAddr: 0x100016534, symSize: 0x34 }
  - { offsetInCU: 0x2D1FE, offset: 0x3B44D, size: 0x8, addend: 0x0, symName: '__ZNSt3__112__tuple_implINS_15__tuple_indicesIJLm0EEEEJONS_9allocatorIZN10ThreadPool7enqueueIRZN5layer13forward_layerER11value_arrayE3$_0JNS_17reference_wrapperINS_6vectorI6neuronNS3_ISD_EEEEEEEEENS_6futureIDTclfp_spfp0_EEEEOT_DpOT0_EUlvE_EEEEC1B8ue170006IJLm0EEJSR_EJEJEJSQ_EEENS1_IJXspT_EEEENS_13__tuple_typesIJDpSM_EEENS1_IJXspT1_EEEENSV_IJDpT2_EEEDpOT3_', symObjAddr: 0x12E38, symBinAddr: 0x100016568, symSize: 0x34 }
  - { offsetInCU: 0x2D28E, offset: 0x3B4DD, size: 0x8, addend: 0x0, symName: '__ZNSt3__112__tuple_implINS_15__tuple_indicesIJLm0EEEEJONS_9allocatorIZN10ThreadPool7enqueueIRZN5layer13forward_layerER11value_arrayE3$_0JNS_17reference_wrapperINS_6vectorI6neuronNS3_ISD_EEEEEEEEENS_6futureIDTclfp_spfp0_EEEEOT_DpOT0_EUlvE_EEEEC2B8ue170006IJLm0EEJSR_EJEJEJSQ_EEENS1_IJXspT_EEEENS_13__tuple_typesIJDpSM_EEENS1_IJXspT1_EEEENSV_IJDpT2_EEEDpOT3_', symObjAddr: 0x12E6C, symBinAddr: 0x10001659C, symSize: 0x34 }
  - { offsetInCU: 0x2D31E, offset: 0x3B56D, size: 0x8, addend: 0x0, symName: '__ZNSt3__112__tuple_leafILm0EONS_9allocatorIZN10ThreadPool7enqueueIRZN5layer13forward_layerER11value_arrayE3$_0JNS_17reference_wrapperINS_6vectorI6neuronNS1_ISB_EEEEEEEEENS_6futureIDTclfp_spfp0_EEEEOT_DpOT0_EUlvE_EELb0EEC2B8ue170006ISO_vEESJ_', symObjAddr: 0x12EA0, symBinAddr: 0x1000165D0, symSize: 0x20 }
  - { offsetInCU: 0x2D35F, offset: 0x3B5AE, size: 0x8, addend: 0x0, symName: '__ZNSt3__117__compressed_pairIZN10ThreadPool7enqueueIRZN5layer13forward_layerER11value_arrayE3$_0JNS_17reference_wrapperINS_6vectorI6neuronNS_9allocatorISA_EEEEEEEEENS_6futureIDTclfp_spfp0_EEEEOT_DpOT0_EUlvE_NSB_ISN_EEEC2B8ue170006IJOSN_EJOSO_EEENS_21piecewise_construct_tENS_5tupleIJDpT_EEENSU_IJDpSK_EEE', symObjAddr: 0x12EC0, symBinAddr: 0x1000165F0, symSize: 0x7C }
  - { offsetInCU: 0x2D3C7, offset: 0x3B616, size: 0x8, addend: 0x0, symName: '__ZNSt3__122__compressed_pair_elemIZN10ThreadPool7enqueueIRZN5layer13forward_layerER11value_arrayE3$_0JNS_17reference_wrapperINS_6vectorI6neuronNS_9allocatorISA_EEEEEEEEENS_6futureIDTclfp_spfp0_EEEEOT_DpOT0_EUlvE_Li0ELb0EEC2B8ue170006IJOSN_EJLm0EEEENS_21piecewise_construct_tENS_5tupleIJDpT_EEENS_15__tuple_indicesIJXspT0_EEEE', symObjAddr: 0x12F3C, symBinAddr: 0x10001666C, symSize: 0x44 }
  - { offsetInCU: 0x2D42B, offset: 0x3B67A, size: 0x8, addend: 0x0, symName: '__ZNSt3__122__compressed_pair_elemINS_9allocatorIZN10ThreadPool7enqueueIRZN5layer13forward_layerER11value_arrayE3$_0JNS_17reference_wrapperINS_6vectorI6neuronNS1_ISB_EEEEEEEEENS_6futureIDTclfp_spfp0_EEEEOT_DpOT0_EUlvE_EELi1ELb1EEC2B8ue170006IJOSO_EJLm0EEEENS_21piecewise_construct_tENS_5tupleIJDpT_EEENS_15__tuple_indicesIJXspT0_EEEE', symObjAddr: 0x12F80, symBinAddr: 0x1000166B0, symSize: 0x38 }
  - { offsetInCU: 0x2D48F, offset: 0x3B6DE, size: 0x8, addend: 0x0, symName: '__ZNSt3__122__compressed_pair_elemIZN10ThreadPool7enqueueIRZN5layer13forward_layerER11value_arrayE3$_0JNS_17reference_wrapperINS_6vectorI6neuronNS_9allocatorISA_EEEEEEEEENS_6futureIDTclfp_spfp0_EEEEOT_DpOT0_EUlvE_Li0ELb0EED2Ev', symObjAddr: 0x12FB8, symBinAddr: 0x1000166E8, symSize: 0x2C }
  - { offsetInCU: 0x2D4B9, offset: 0x3B708, size: 0x8, addend: 0x0, symName: '__ZNSt3__112__tuple_leafILm0EOZN10ThreadPool7enqueueIRZN5layer13forward_layerER11value_arrayE3$_0JNS_17reference_wrapperINS_6vectorI6neuronNS_9allocatorISA_EEEEEEEEENS_6futureIDTclfp_spfp0_EEEEOT_DpOT0_EUlvE_Lb0EE3getB8ue170006Ev', symObjAddr: 0x13008, symBinAddr: 0x100016738, symSize: 0x18 }
  - { offsetInCU: 0x2D4DD, offset: 0x3B72C, size: 0x8, addend: 0x0, symName: '__ZNSt3__112__tuple_leafILm0EONS_9allocatorIZN10ThreadPool7enqueueIRZN5layer13forward_layerER11value_arrayE3$_0JNS_17reference_wrapperINS_6vectorI6neuronNS1_ISB_EEEEEEEEENS_6futureIDTclfp_spfp0_EEEEOT_DpOT0_EUlvE_EELb0EE3getB8ue170006Ev', symObjAddr: 0x13044, symBinAddr: 0x100016774, symSize: 0x18 }
  - { offsetInCU: 0x2D501, offset: 0x3B750, size: 0x8, addend: 0x0, symName: '__ZNSt3__110__function6__funcIZN10ThreadPool7enqueueIRZN5layer13forward_layerER11value_arrayE3$_0JNS_17reference_wrapperINS_6vectorI6neuronNS_9allocatorISB_EEEEEEEEENS_6futureIDTclfp_spfp0_EEEEOT_DpOT0_EUlvE_NSC_ISO_EEFvvEED2Ev', symObjAddr: 0x1305C, symBinAddr: 0x10001678C, symSize: 0x48 }
  - { offsetInCU: 0x2D52D, offset: 0x3B77C, size: 0x8, addend: 0x0, symName: '__ZNSt3__110__function12__alloc_funcIZN10ThreadPool7enqueueIRZN5layer13forward_layerER11value_arrayE3$_0JNS_17reference_wrapperINS_6vectorI6neuronNS_9allocatorISB_EEEEEEEEENS_6futureIDTclfp_spfp0_EEEEOT_DpOT0_EUlvE_NSC_ISO_EEFvvEED1Ev', symObjAddr: 0x130A4, symBinAddr: 0x1000167D4, symSize: 0x2C }
  - { offsetInCU: 0x2D557, offset: 0x3B7A6, size: 0x8, addend: 0x0, symName: '__ZNSt3__110__function12__alloc_funcIZN10ThreadPool7enqueueIRZN5layer13forward_layerER11value_arrayE3$_0JNS_17reference_wrapperINS_6vectorI6neuronNS_9allocatorISB_EEEEEEEEENS_6futureIDTclfp_spfp0_EEEEOT_DpOT0_EUlvE_NSC_ISO_EEFvvEED2Ev', symObjAddr: 0x130D0, symBinAddr: 0x100016800, symSize: 0x2C }
  - { offsetInCU: 0x2D581, offset: 0x3B7D0, size: 0x8, addend: 0x0, symName: '__ZNSt3__117__compressed_pairIZN10ThreadPool7enqueueIRZN5layer13forward_layerER11value_arrayE3$_0JNS_17reference_wrapperINS_6vectorI6neuronNS_9allocatorISA_EEEEEEEEENS_6futureIDTclfp_spfp0_EEEEOT_DpOT0_EUlvE_NSB_ISN_EEED1Ev', symObjAddr: 0x130FC, symBinAddr: 0x10001682C, symSize: 0x2C }
  - { offsetInCU: 0x2D5AB, offset: 0x3B7FA, size: 0x8, addend: 0x0, symName: '__ZNSt3__117__compressed_pairIZN10ThreadPool7enqueueIRZN5layer13forward_layerER11value_arrayE3$_0JNS_17reference_wrapperINS_6vectorI6neuronNS_9allocatorISA_EEEEEEEEENS_6futureIDTclfp_spfp0_EEEEOT_DpOT0_EUlvE_NSB_ISN_EEED2Ev', symObjAddr: 0x13128, symBinAddr: 0x100016858, symSize: 0x2C }
  - { offsetInCU: 0x2D5D5, offset: 0x3B824, size: 0x8, addend: 0x0, symName: '__ZNKSt3__110__function12__alloc_funcIZN10ThreadPool7enqueueIRZN5layer13forward_layerER11value_arrayE3$_0JNS_17reference_wrapperINS_6vectorI6neuronNS_9allocatorISB_EEEEEEEEENS_6futureIDTclfp_spfp0_EEEEOT_DpOT0_EUlvE_NSC_ISO_EEFvvEE15__get_allocatorB8ue170006Ev', symObjAddr: 0x13154, symBinAddr: 0x100016884, symSize: 0x24 }
  - { offsetInCU: 0x2D5F9, offset: 0x3B848, size: 0x8, addend: 0x0, symName: '__ZNSt3__19allocatorINS_10__function6__funcIZN10ThreadPool7enqueueIRZN5layer13forward_layerER11value_arrayE3$_0JNS_17reference_wrapperINS_6vectorI6neuronNS0_ISC_EEEEEEEEENS_6futureIDTclfp_spfp0_EEEEOT_DpOT0_EUlvE_NS0_ISO_EEFvvEEEE8allocateB8ue170006Em', symObjAddr: 0x13178, symBinAddr: 0x1000168A8, symSize: 0x5C }
  - { offsetInCU: 0x2D63A, offset: 0x3B889, size: 0x8, addend: 0x0, symName: '__ZNSt3__122__allocator_destructorINS_9allocatorINS_10__function6__funcIZN10ThreadPool7enqueueIRZN5layer13forward_layerER11value_arrayE3$_0JNS_17reference_wrapperINS_6vectorI6neuronNS1_ISD_EEEEEEEEENS_6futureIDTclfp_spfp0_EEEEOT_DpOT0_EUlvE_NS1_ISP_EEFvvEEEEEEC1B8ue170006ERST_m', symObjAddr: 0x131D4, symBinAddr: 0x100016904, symSize: 0x3C }
  - { offsetInCU: 0x2D70A, offset: 0x3B959, size: 0x8, addend: 0x0, symName: '__ZNSt3__110unique_ptrINS_10__function6__funcIZN10ThreadPool7enqueueIRZN5layer13forward_layerER11value_arrayE3$_0JNS_17reference_wrapperINS_6vectorI6neuronNS_9allocatorISC_EEEEEEEEENS_6futureIDTclfp_spfp0_EEEEOT_DpOT0_EUlvE_NSD_ISP_EEFvvEEENS_22__allocator_destructorINSD_ISS_EEEEEC1B8ue170006ILb1EvEEPSS_NS_16__dependent_typeINS_27__unique_ptr_deleter_sfinaeISV_EEXT_EE20__good_rval_ref_typeE', symObjAddr: 0x13210, symBinAddr: 0x100016940, symSize: 0x3C }
  - { offsetInCU: 0x2D759, offset: 0x3B9A8, size: 0x8, addend: 0x0, symName: '__ZNKSt3__110unique_ptrINS_10__function6__funcIZN10ThreadPool7enqueueIRZN5layer13forward_layerER11value_arrayE3$_0JNS_17reference_wrapperINS_6vectorI6neuronNS_9allocatorISC_EEEEEEEEENS_6futureIDTclfp_spfp0_EEEEOT_DpOT0_EUlvE_NSD_ISP_EEFvvEEENS_22__allocator_destructorINSD_ISS_EEEEE3getB8ue170006Ev', symObjAddr: 0x1324C, symBinAddr: 0x10001697C, symSize: 0x28 }
  - { offsetInCU: 0x2D77D, offset: 0x3B9CC, size: 0x8, addend: 0x0, symName: '__ZNKSt3__110__function12__alloc_funcIZN10ThreadPool7enqueueIRZN5layer13forward_layerER11value_arrayE3$_0JNS_17reference_wrapperINS_6vectorI6neuronNS_9allocatorISB_EEEEEEEEENS_6futureIDTclfp_spfp0_EEEEOT_DpOT0_EUlvE_NSC_ISO_EEFvvEE8__targetB8ue170006Ev', symObjAddr: 0x13274, symBinAddr: 0x1000169A4, symSize: 0x24 }
  - { offsetInCU: 0x2D7A1, offset: 0x3B9F0, size: 0x8, addend: 0x0, symName: '__ZNSt3__110__function6__funcIZN10ThreadPool7enqueueIRZN5layer13forward_layerER11value_arrayE3$_0JNS_17reference_wrapperINS_6vectorI6neuronNS_9allocatorISB_EEEEEEEEENS_6futureIDTclfp_spfp0_EEEEOT_DpOT0_EUlvE_NSC_ISO_EEFvvEEC1B8ue170006ERKSO_OSP_', symObjAddr: 0x13298, symBinAddr: 0x1000169C8, symSize: 0x3C }
  - { offsetInCU: 0x2D7E7, offset: 0x3BA36, size: 0x8, addend: 0x0, symName: '__ZNSt3__110unique_ptrINS_10__function6__funcIZN10ThreadPool7enqueueIRZN5layer13forward_layerER11value_arrayE3$_0JNS_17reference_wrapperINS_6vectorI6neuronNS_9allocatorISC_EEEEEEEEENS_6futureIDTclfp_spfp0_EEEEOT_DpOT0_EUlvE_NSD_ISP_EEFvvEEENS_22__allocator_destructorINSD_ISS_EEEEE7releaseB8ue170006Ev', symObjAddr: 0x132D4, symBinAddr: 0x100016A04, symSize: 0x44 }
  - { offsetInCU: 0x2D81A, offset: 0x3BA69, size: 0x8, addend: 0x0, symName: '__ZNSt3__110unique_ptrINS_10__function6__funcIZN10ThreadPool7enqueueIRZN5layer13forward_layerER11value_arrayE3$_0JNS_17reference_wrapperINS_6vectorI6neuronNS_9allocatorISC_EEEEEEEEENS_6futureIDTclfp_spfp0_EEEEOT_DpOT0_EUlvE_NSD_ISP_EEFvvEEENS_22__allocator_destructorINSD_ISS_EEEEED1B8ue170006Ev', symObjAddr: 0x13318, symBinAddr: 0x100016A48, symSize: 0x2C }
  - { offsetInCU: 0x2D842, offset: 0x3BA91, size: 0x8, addend: 0x0, symName: '__ZNKSt3__117__compressed_pairIZN10ThreadPool7enqueueIRZN5layer13forward_layerER11value_arrayE3$_0JNS_17reference_wrapperINS_6vectorI6neuronNS_9allocatorISA_EEEEEEEEENS_6futureIDTclfp_spfp0_EEEEOT_DpOT0_EUlvE_NSB_ISN_EEE6secondB8ue170006Ev', symObjAddr: 0x13344, symBinAddr: 0x100016A74, symSize: 0x24 }
  - { offsetInCU: 0x2D866, offset: 0x3BAB5, size: 0x8, addend: 0x0, symName: '__ZNKSt3__122__compressed_pair_elemINS_9allocatorIZN10ThreadPool7enqueueIRZN5layer13forward_layerER11value_arrayE3$_0JNS_17reference_wrapperINS_6vectorI6neuronNS1_ISB_EEEEEEEEENS_6futureIDTclfp_spfp0_EEEEOT_DpOT0_EUlvE_EELi1ELb1EE5__getB8ue170006Ev', symObjAddr: 0x13368, symBinAddr: 0x100016A98, symSize: 0x14 }
  - { offsetInCU: 0x2D894, offset: 0x3BAE3, size: 0x8, addend: 0x0, symName: '__ZNSt3__116allocator_traitsINS_9allocatorINS_10__function6__funcIZN10ThreadPool7enqueueIRZN5layer13forward_layerER11value_arrayE3$_0JNS_17reference_wrapperINS_6vectorI6neuronNS1_ISD_EEEEEEEEENS_6futureIDTclfp_spfp0_EEEEOT_DpOT0_EUlvE_NS1_ISP_EEFvvEEEEEE8max_sizeB8ue170006IST_vEEmRKST_', symObjAddr: 0x1337C, symBinAddr: 0x100016AAC, symSize: 0x24 }
  - { offsetInCU: 0x2D8C1, offset: 0x3BB10, size: 0x8, addend: 0x0, symName: '__ZNKSt3__19allocatorINS_10__function6__funcIZN10ThreadPool7enqueueIRZN5layer13forward_layerER11value_arrayE3$_0JNS_17reference_wrapperINS_6vectorI6neuronNS0_ISC_EEEEEEEEENS_6futureIDTclfp_spfp0_EEEEOT_DpOT0_EUlvE_NS0_ISO_EEFvvEEEE8max_sizeB8ue170006Ev', symObjAddr: 0x133A0, symBinAddr: 0x100016AD0, symSize: 0x18 }
  - { offsetInCU: 0x2D8E5, offset: 0x3BB34, size: 0x8, addend: 0x0, symName: '__ZNSt3__122__allocator_destructorINS_9allocatorINS_10__function6__funcIZN10ThreadPool7enqueueIRZN5layer13forward_layerER11value_arrayE3$_0JNS_17reference_wrapperINS_6vectorI6neuronNS1_ISD_EEEEEEEEENS_6futureIDTclfp_spfp0_EEEEOT_DpOT0_EUlvE_NS1_ISP_EEFvvEEEEEEC2B8ue170006ERST_m', symObjAddr: 0x133B8, symBinAddr: 0x100016AE8, symSize: 0x2C }
  - { offsetInCU: 0x2D929, offset: 0x3BB78, size: 0x8, addend: 0x0, symName: '__ZNSt3__110unique_ptrINS_10__function6__funcIZN10ThreadPool7enqueueIRZN5layer13forward_layerER11value_arrayE3$_0JNS_17reference_wrapperINS_6vectorI6neuronNS_9allocatorISC_EEEEEEEEENS_6futureIDTclfp_spfp0_EEEEOT_DpOT0_EUlvE_NSD_ISP_EEFvvEEENS_22__allocator_destructorINSD_ISS_EEEEEC2B8ue170006ILb1EvEEPSS_NS_16__dependent_typeINS_27__unique_ptr_deleter_sfinaeISV_EEXT_EE20__good_rval_ref_typeE', symObjAddr: 0x133E4, symBinAddr: 0x100016B14, symSize: 0x48 }
  - { offsetInCU: 0x2D978, offset: 0x3BBC7, size: 0x8, addend: 0x0, symName: '__ZNSt3__117__compressed_pairIPNS_10__function6__funcIZN10ThreadPool7enqueueIRZN5layer13forward_layerER11value_arrayE3$_0JNS_17reference_wrapperINS_6vectorI6neuronNS_9allocatorISC_EEEEEEEEENS_6futureIDTclfp_spfp0_EEEEOT_DpOT0_EUlvE_NSD_ISP_EEFvvEEENS_22__allocator_destructorINSD_ISS_EEEEEC1B8ue170006IRST_SW_EESL_OT0_', symObjAddr: 0x1342C, symBinAddr: 0x100016B5C, symSize: 0x3C }
  - { offsetInCU: 0x2D9CE, offset: 0x3BC1D, size: 0x8, addend: 0x0, symName: '__ZNSt3__117__compressed_pairIPNS_10__function6__funcIZN10ThreadPool7enqueueIRZN5layer13forward_layerER11value_arrayE3$_0JNS_17reference_wrapperINS_6vectorI6neuronNS_9allocatorISC_EEEEEEEEENS_6futureIDTclfp_spfp0_EEEEOT_DpOT0_EUlvE_NSD_ISP_EEFvvEEENS_22__allocator_destructorINSD_ISS_EEEEEC2B8ue170006IRST_SW_EESL_OT0_', symObjAddr: 0x13468, symBinAddr: 0x100016B98, symSize: 0x48 }
  - { offsetInCU: 0x2DA24, offset: 0x3BC73, size: 0x8, addend: 0x0, symName: '__ZNSt3__122__compressed_pair_elemIPNS_10__function6__funcIZN10ThreadPool7enqueueIRZN5layer13forward_layerER11value_arrayE3$_0JNS_17reference_wrapperINS_6vectorI6neuronNS_9allocatorISC_EEEEEEEEENS_6futureIDTclfp_spfp0_EEEEOT_DpOT0_EUlvE_NSD_ISP_EEFvvEEELi0ELb0EEC2B8ue170006IRST_vEESL_', symObjAddr: 0x134B0, symBinAddr: 0x100016BE0, symSize: 0x24 }
  - { offsetInCU: 0x2DA64, offset: 0x3BCB3, size: 0x8, addend: 0x0, symName: '__ZNSt3__122__compressed_pair_elemINS_22__allocator_destructorINS_9allocatorINS_10__function6__funcIZN10ThreadPool7enqueueIRZN5layer13forward_layerER11value_arrayE3$_0JNS_17reference_wrapperINS_6vectorI6neuronNS2_ISE_EEEEEEEEENS_6futureIDTclfp_spfp0_EEEEOT_DpOT0_EUlvE_NS2_ISQ_EEFvvEEEEEEELi1ELb0EEC2B8ue170006ISV_vEESM_', symObjAddr: 0x134D4, symBinAddr: 0x100016C04, symSize: 0x24 }
  - { offsetInCU: 0x2DAA4, offset: 0x3BCF3, size: 0x8, addend: 0x0, symName: '__ZNKSt3__117__compressed_pairIPNS_10__function6__funcIZN10ThreadPool7enqueueIRZN5layer13forward_layerER11value_arrayE3$_0JNS_17reference_wrapperINS_6vectorI6neuronNS_9allocatorISC_EEEEEEEEENS_6futureIDTclfp_spfp0_EEEEOT_DpOT0_EUlvE_NSD_ISP_EEFvvEEENS_22__allocator_destructorINSD_ISS_EEEEE5firstB8ue170006Ev', symObjAddr: 0x134F8, symBinAddr: 0x100016C28, symSize: 0x24 }
  - { offsetInCU: 0x2DAC8, offset: 0x3BD17, size: 0x8, addend: 0x0, symName: '__ZNKSt3__122__compressed_pair_elemIPNS_10__function6__funcIZN10ThreadPool7enqueueIRZN5layer13forward_layerER11value_arrayE3$_0JNS_17reference_wrapperINS_6vectorI6neuronNS_9allocatorISC_EEEEEEEEENS_6futureIDTclfp_spfp0_EEEEOT_DpOT0_EUlvE_NSD_ISP_EEFvvEEELi0ELb0EE5__getB8ue170006Ev', symObjAddr: 0x1351C, symBinAddr: 0x100016C4C, symSize: 0x14 }
  - { offsetInCU: 0x2DAEC, offset: 0x3BD3B, size: 0x8, addend: 0x0, symName: '__ZNKSt3__117__compressed_pairIZN10ThreadPool7enqueueIRZN5layer13forward_layerER11value_arrayE3$_0JNS_17reference_wrapperINS_6vectorI6neuronNS_9allocatorISA_EEEEEEEEENS_6futureIDTclfp_spfp0_EEEEOT_DpOT0_EUlvE_NSB_ISN_EEE5firstB8ue170006Ev', symObjAddr: 0x13530, symBinAddr: 0x100016C60, symSize: 0x24 }
  - { offsetInCU: 0x2DB10, offset: 0x3BD5F, size: 0x8, addend: 0x0, symName: '__ZNKSt3__122__compressed_pair_elemIZN10ThreadPool7enqueueIRZN5layer13forward_layerER11value_arrayE3$_0JNS_17reference_wrapperINS_6vectorI6neuronNS_9allocatorISA_EEEEEEEEENS_6futureIDTclfp_spfp0_EEEEOT_DpOT0_EUlvE_Li0ELb0EE5__getB8ue170006Ev', symObjAddr: 0x13554, symBinAddr: 0x100016C84, symSize: 0x14 }
  - { offsetInCU: 0x2DB34, offset: 0x3BD83, size: 0x8, addend: 0x0, symName: '__ZNSt3__110__function6__funcIZN10ThreadPool7enqueueIRZN5layer13forward_layerER11value_arrayE3$_0JNS_17reference_wrapperINS_6vectorI6neuronNS_9allocatorISB_EEEEEEEEENS_6futureIDTclfp_spfp0_EEEEOT_DpOT0_EUlvE_NSC_ISO_EEFvvEEC2B8ue170006ERKSO_OSP_', symObjAddr: 0x13568, symBinAddr: 0x100016C98, symSize: 0x88 }
  - { offsetInCU: 0x2DB7A, offset: 0x3BDC9, size: 0x8, addend: 0x0, symName: '__ZNSt3__110__function12__alloc_funcIZN10ThreadPool7enqueueIRZN5layer13forward_layerER11value_arrayE3$_0JNS_17reference_wrapperINS_6vectorI6neuronNS_9allocatorISB_EEEEEEEEENS_6futureIDTclfp_spfp0_EEEEOT_DpOT0_EUlvE_NSC_ISO_EEFvvEEC1B8ue170006ERKSO_OSP_', symObjAddr: 0x135F0, symBinAddr: 0x100016D20, symSize: 0x3C }
  - { offsetInCU: 0x2DBBE, offset: 0x3BE0D, size: 0x8, addend: 0x0, symName: '__ZNSt3__110__function12__alloc_funcIZN10ThreadPool7enqueueIRZN5layer13forward_layerER11value_arrayE3$_0JNS_17reference_wrapperINS_6vectorI6neuronNS_9allocatorISB_EEEEEEEEENS_6futureIDTclfp_spfp0_EEEEOT_DpOT0_EUlvE_NSC_ISO_EEFvvEEC2B8ue170006ERKSO_OSP_', symObjAddr: 0x1362C, symBinAddr: 0x100016D5C, symSize: 0x5C }
  - { offsetInCU: 0x2DC02, offset: 0x3BE51, size: 0x8, addend: 0x0, symName: '__ZNSt3__117__compressed_pairIZN10ThreadPool7enqueueIRZN5layer13forward_layerER11value_arrayE3$_0JNS_17reference_wrapperINS_6vectorI6neuronNS_9allocatorISA_EEEEEEEEENS_6futureIDTclfp_spfp0_EEEEOT_DpOT0_EUlvE_NSB_ISN_EEEC1B8ue170006IJRKSN_EJOSO_EEENS_21piecewise_construct_tENS_5tupleIJDpT_EEENSV_IJDpSK_EEE', symObjAddr: 0x136B4, symBinAddr: 0x100016DE4, symSize: 0x3C }
  - { offsetInCU: 0x2DC6A, offset: 0x3BEB9, size: 0x8, addend: 0x0, symName: '__ZNSt3__15tupleIJRKZN10ThreadPool7enqueueIRZN5layer13forward_layerER11value_arrayE3$_0JNS_17reference_wrapperINS_6vectorI6neuronNS_9allocatorISA_EEEEEEEEENS_6futureIDTclfp_spfp0_EEEEOT_DpOT0_EUlvE_EEC1B8ue170006INS_4_AndELi0EEESP_', symObjAddr: 0x136F0, symBinAddr: 0x100016E20, symSize: 0x34 }
  - { offsetInCU: 0x2DCB2, offset: 0x3BF01, size: 0x8, addend: 0x0, symName: '__ZNSt3__15tupleIJRKZN10ThreadPool7enqueueIRZN5layer13forward_layerER11value_arrayE3$_0JNS_17reference_wrapperINS_6vectorI6neuronNS_9allocatorISA_EEEEEEEEENS_6futureIDTclfp_spfp0_EEEEOT_DpOT0_EUlvE_EEC2B8ue170006INS_4_AndELi0EEESP_', symObjAddr: 0x13724, symBinAddr: 0x100016E54, symSize: 0x34 }
  - { offsetInCU: 0x2DCFA, offset: 0x3BF49, size: 0x8, addend: 0x0, symName: '__ZNSt3__112__tuple_implINS_15__tuple_indicesIJLm0EEEEJRKZN10ThreadPool7enqueueIRZN5layer13forward_layerER11value_arrayE3$_0JNS_17reference_wrapperINS_6vectorI6neuronNS_9allocatorISC_EEEEEEEEENS_6futureIDTclfp_spfp0_EEEEOT_DpOT0_EUlvE_EEC1B8ue170006IJLm0EEJSR_EJEJEJSR_EEENS1_IJXspT_EEEENS_13__tuple_typesIJDpSM_EEENS1_IJXspT1_EEEENSV_IJDpT2_EEEDpOT3_', symObjAddr: 0x13758, symBinAddr: 0x100016E88, symSize: 0x34 }
  - { offsetInCU: 0x2DD8A, offset: 0x3BFD9, size: 0x8, addend: 0x0, symName: '__ZNSt3__112__tuple_implINS_15__tuple_indicesIJLm0EEEEJRKZN10ThreadPool7enqueueIRZN5layer13forward_layerER11value_arrayE3$_0JNS_17reference_wrapperINS_6vectorI6neuronNS_9allocatorISC_EEEEEEEEENS_6futureIDTclfp_spfp0_EEEEOT_DpOT0_EUlvE_EEC2B8ue170006IJLm0EEJSR_EJEJEJSR_EEENS1_IJXspT_EEEENS_13__tuple_typesIJDpSM_EEENS1_IJXspT1_EEEENSV_IJDpT2_EEEDpOT3_', symObjAddr: 0x1378C, symBinAddr: 0x100016EBC, symSize: 0x34 }
  - { offsetInCU: 0x2DE1A, offset: 0x3C069, size: 0x8, addend: 0x0, symName: '__ZNSt3__112__tuple_leafILm0ERKZN10ThreadPool7enqueueIRZN5layer13forward_layerER11value_arrayE3$_0JNS_17reference_wrapperINS_6vectorI6neuronNS_9allocatorISA_EEEEEEEEENS_6futureIDTclfp_spfp0_EEEEOT_DpOT0_EUlvE_Lb0EEC2B8ue170006ISP_vEESJ_', symObjAddr: 0x137C0, symBinAddr: 0x100016EF0, symSize: 0x20 }
  - { offsetInCU: 0x2DE5B, offset: 0x3C0AA, size: 0x8, addend: 0x0, symName: '__ZNSt3__117__compressed_pairIZN10ThreadPool7enqueueIRZN5layer13forward_layerER11value_arrayE3$_0JNS_17reference_wrapperINS_6vectorI6neuronNS_9allocatorISA_EEEEEEEEENS_6futureIDTclfp_spfp0_EEEEOT_DpOT0_EUlvE_NSB_ISN_EEEC2B8ue170006IJRKSN_EJOSO_EEENS_21piecewise_construct_tENS_5tupleIJDpT_EEENSV_IJDpSK_EEE', symObjAddr: 0x137E0, symBinAddr: 0x100016F10, symSize: 0x54 }
  - { offsetInCU: 0x2DEC3, offset: 0x3C112, size: 0x8, addend: 0x0, symName: '__ZNSt3__122__compressed_pair_elemIZN10ThreadPool7enqueueIRZN5layer13forward_layerER11value_arrayE3$_0JNS_17reference_wrapperINS_6vectorI6neuronNS_9allocatorISA_EEEEEEEEENS_6futureIDTclfp_spfp0_EEEEOT_DpOT0_EUlvE_Li0ELb0EEC2B8ue170006IJRKSN_EJLm0EEEENS_21piecewise_construct_tENS_5tupleIJDpT_EEENS_15__tuple_indicesIJXspT0_EEEE', symObjAddr: 0x13834, symBinAddr: 0x100016F64, symSize: 0x44 }
  - { offsetInCU: 0x2DF27, offset: 0x3C176, size: 0x8, addend: 0x0, symName: '__ZZN10ThreadPool7enqueueIRZN5layer13forward_layerER11value_arrayE3$_0JNSt3__117reference_wrapperINS6_6vectorI6neuronNS6_9allocatorIS9_EEEEEEEEENS6_6futureIDTclfp_spfp0_EEEEOT_DpOT0_ENUlvE_C1ERKSM_', symObjAddr: 0x1389C, symBinAddr: 0x100016FCC, symSize: 0x34 }
  - { offsetInCU: 0x2DF5A, offset: 0x3C1A9, size: 0x8, addend: 0x0, symName: '__ZNSt3__112__tuple_leafILm0ERKZN10ThreadPool7enqueueIRZN5layer13forward_layerER11value_arrayE3$_0JNS_17reference_wrapperINS_6vectorI6neuronNS_9allocatorISA_EEEEEEEEENS_6futureIDTclfp_spfp0_EEEEOT_DpOT0_EUlvE_Lb0EE3getB8ue170006Ev', symObjAddr: 0x138D0, symBinAddr: 0x100017000, symSize: 0x18 }
  - { offsetInCU: 0x2DF7E, offset: 0x3C1CD, size: 0x8, addend: 0x0, symName: '__ZZN10ThreadPool7enqueueIRZN5layer13forward_layerER11value_arrayE3$_0JNSt3__117reference_wrapperINS6_6vectorI6neuronNS6_9allocatorIS9_EEEEEEEEENS6_6futureIDTclfp_spfp0_EEEEOT_DpOT0_ENUlvE_C2ERKSM_', symObjAddr: 0x138E8, symBinAddr: 0x100017018, symSize: 0x34 }
  - { offsetInCU: 0x2DFB1, offset: 0x3C200, size: 0x8, addend: 0x0, symName: '__ZNSt3__117__compressed_pairIPNS_10__function6__funcIZN10ThreadPool7enqueueIRZN5layer13forward_layerER11value_arrayE3$_0JNS_17reference_wrapperINS_6vectorI6neuronNS_9allocatorISC_EEEEEEEEENS_6futureIDTclfp_spfp0_EEEEOT_DpOT0_EUlvE_NSD_ISP_EEFvvEEENS_22__allocator_destructorINSD_ISS_EEEEE5firstB8ue170006Ev', symObjAddr: 0x1391C, symBinAddr: 0x10001704C, symSize: 0x24 }
  - { offsetInCU: 0x2DFD5, offset: 0x3C224, size: 0x8, addend: 0x0, symName: '__ZNSt3__122__compressed_pair_elemIPNS_10__function6__funcIZN10ThreadPool7enqueueIRZN5layer13forward_layerER11value_arrayE3$_0JNS_17reference_wrapperINS_6vectorI6neuronNS_9allocatorISC_EEEEEEEEENS_6futureIDTclfp_spfp0_EEEEOT_DpOT0_EUlvE_NSD_ISP_EEFvvEEELi0ELb0EE5__getB8ue170006Ev', symObjAddr: 0x13940, symBinAddr: 0x100017070, symSize: 0x14 }
  - { offsetInCU: 0x2DFF9, offset: 0x3C248, size: 0x8, addend: 0x0, symName: '__ZNSt3__110unique_ptrINS_10__function6__funcIZN10ThreadPool7enqueueIRZN5layer13forward_layerER11value_arrayE3$_0JNS_17reference_wrapperINS_6vectorI6neuronNS_9allocatorISC_EEEEEEEEENS_6futureIDTclfp_spfp0_EEEEOT_DpOT0_EUlvE_NSD_ISP_EEFvvEEENS_22__allocator_destructorINSD_ISS_EEEEED2B8ue170006Ev', symObjAddr: 0x13954, symBinAddr: 0x100017084, symSize: 0x30 }
  - { offsetInCU: 0x2E021, offset: 0x3C270, size: 0x8, addend: 0x0, symName: '__ZNSt3__110unique_ptrINS_10__function6__funcIZN10ThreadPool7enqueueIRZN5layer13forward_layerER11value_arrayE3$_0JNS_17reference_wrapperINS_6vectorI6neuronNS_9allocatorISC_EEEEEEEEENS_6futureIDTclfp_spfp0_EEEEOT_DpOT0_EUlvE_NSD_ISP_EEFvvEEENS_22__allocator_destructorINSD_ISS_EEEEE5resetB8ue170006EPSS_', symObjAddr: 0x13984, symBinAddr: 0x1000170B4, symSize: 0x78 }
  - { offsetInCU: 0x2E063, offset: 0x3C2B2, size: 0x8, addend: 0x0, symName: '__ZNSt3__117__compressed_pairIPNS_10__function6__funcIZN10ThreadPool7enqueueIRZN5layer13forward_layerER11value_arrayE3$_0JNS_17reference_wrapperINS_6vectorI6neuronNS_9allocatorISC_EEEEEEEEENS_6futureIDTclfp_spfp0_EEEEOT_DpOT0_EUlvE_NSD_ISP_EEFvvEEENS_22__allocator_destructorINSD_ISS_EEEEE6secondB8ue170006Ev', symObjAddr: 0x139FC, symBinAddr: 0x10001712C, symSize: 0x28 }
  - { offsetInCU: 0x2E087, offset: 0x3C2D6, size: 0x8, addend: 0x0, symName: '__ZNSt3__122__allocator_destructorINS_9allocatorINS_10__function6__funcIZN10ThreadPool7enqueueIRZN5layer13forward_layerER11value_arrayE3$_0JNS_17reference_wrapperINS_6vectorI6neuronNS1_ISD_EEEEEEEEENS_6futureIDTclfp_spfp0_EEEEOT_DpOT0_EUlvE_NS1_ISP_EEFvvEEEEEEclB8ue170006EPSS_', symObjAddr: 0x13A24, symBinAddr: 0x100017154, symSize: 0x34 }
  - { offsetInCU: 0x2E0B9, offset: 0x3C308, size: 0x8, addend: 0x0, symName: '__ZNSt3__122__compressed_pair_elemINS_22__allocator_destructorINS_9allocatorINS_10__function6__funcIZN10ThreadPool7enqueueIRZN5layer13forward_layerER11value_arrayE3$_0JNS_17reference_wrapperINS_6vectorI6neuronNS2_ISE_EEEEEEEEENS_6futureIDTclfp_spfp0_EEEEOT_DpOT0_EUlvE_NS2_ISQ_EEFvvEEEEEEELi1ELb0EE5__getB8ue170006Ev', symObjAddr: 0x13A58, symBinAddr: 0x100017188, symSize: 0x14 }
  - { offsetInCU: 0x2E0DD, offset: 0x3C32C, size: 0x8, addend: 0x0, symName: '__ZNSt3__116allocator_traitsINS_9allocatorINS_10__function6__funcIZN10ThreadPool7enqueueIRZN5layer13forward_layerER11value_arrayE3$_0JNS_17reference_wrapperINS_6vectorI6neuronNS1_ISD_EEEEEEEEENS_6futureIDTclfp_spfp0_EEEEOT_DpOT0_EUlvE_NS1_ISP_EEFvvEEEEEE10deallocateB8ue170006ERST_PSS_m', symObjAddr: 0x13A6C, symBinAddr: 0x10001719C, symSize: 0x34 }
  - { offsetInCU: 0x2E11E, offset: 0x3C36D, size: 0x8, addend: 0x0, symName: '__ZNSt3__19allocatorINS_10__function6__funcIZN10ThreadPool7enqueueIRZN5layer13forward_layerER11value_arrayE3$_0JNS_17reference_wrapperINS_6vectorI6neuronNS0_ISC_EEEEEEEEENS_6futureIDTclfp_spfp0_EEEEOT_DpOT0_EUlvE_NS0_ISO_EEFvvEEEE10deallocateB8ue170006EPSR_m', symObjAddr: 0x13AA0, symBinAddr: 0x1000171D0, symSize: 0x44 }
  - { offsetInCU: 0x2E15E, offset: 0x3C3AD, size: 0x8, addend: 0x0, symName: '__ZNSt3__110__function6__funcIZN10ThreadPool7enqueueIRZN5layer13forward_layerER11value_arrayE3$_0JNS_17reference_wrapperINS_6vectorI6neuronNS_9allocatorISB_EEEEEEEEENS_6futureIDTclfp_spfp0_EEEEOT_DpOT0_EUlvE_NSC_ISO_EEFvvEEC1B8ue170006ERKSO_RKSP_', symObjAddr: 0x13AE4, symBinAddr: 0x100017214, symSize: 0x3C }
  - { offsetInCU: 0x2E1A4, offset: 0x3C3F3, size: 0x8, addend: 0x0, symName: '__ZNSt3__110__function6__funcIZN10ThreadPool7enqueueIRZN5layer13forward_layerER11value_arrayE3$_0JNS_17reference_wrapperINS_6vectorI6neuronNS_9allocatorISB_EEEEEEEEENS_6futureIDTclfp_spfp0_EEEEOT_DpOT0_EUlvE_NSC_ISO_EEFvvEEC2B8ue170006ERKSO_RKSP_', symObjAddr: 0x13B20, symBinAddr: 0x100017250, symSize: 0x88 }
  - { offsetInCU: 0x2E1EA, offset: 0x3C439, size: 0x8, addend: 0x0, symName: '__ZNSt3__110__function12__alloc_funcIZN10ThreadPool7enqueueIRZN5layer13forward_layerER11value_arrayE3$_0JNS_17reference_wrapperINS_6vectorI6neuronNS_9allocatorISB_EEEEEEEEENS_6futureIDTclfp_spfp0_EEEEOT_DpOT0_EUlvE_NSC_ISO_EEFvvEEC1B8ue170006ERKSO_RKSP_', symObjAddr: 0x13BA8, symBinAddr: 0x1000172D8, symSize: 0x3C }
  - { offsetInCU: 0x2E22E, offset: 0x3C47D, size: 0x8, addend: 0x0, symName: '__ZNSt3__110__function12__alloc_funcIZN10ThreadPool7enqueueIRZN5layer13forward_layerER11value_arrayE3$_0JNS_17reference_wrapperINS_6vectorI6neuronNS_9allocatorISB_EEEEEEEEENS_6futureIDTclfp_spfp0_EEEEOT_DpOT0_EUlvE_NSC_ISO_EEFvvEEC2B8ue170006ERKSO_RKSP_', symObjAddr: 0x13BE4, symBinAddr: 0x100017314, symSize: 0x5C }
  - { offsetInCU: 0x2E272, offset: 0x3C4C1, size: 0x8, addend: 0x0, symName: '__ZNSt3__117__compressed_pairIZN10ThreadPool7enqueueIRZN5layer13forward_layerER11value_arrayE3$_0JNS_17reference_wrapperINS_6vectorI6neuronNS_9allocatorISA_EEEEEEEEENS_6futureIDTclfp_spfp0_EEEEOT_DpOT0_EUlvE_NSB_ISN_EEEC1B8ue170006IJRKSN_EJRKSO_EEENS_21piecewise_construct_tENS_5tupleIJDpT_EEENSW_IJDpSK_EEE', symObjAddr: 0x13C6C, symBinAddr: 0x10001739C, symSize: 0x3C }
  - { offsetInCU: 0x2E2DA, offset: 0x3C529, size: 0x8, addend: 0x0, symName: '__ZNSt3__15tupleIJRKNS_9allocatorIZN10ThreadPool7enqueueIRZN5layer13forward_layerER11value_arrayE3$_0JNS_17reference_wrapperINS_6vectorI6neuronNS1_ISB_EEEEEEEEENS_6futureIDTclfp_spfp0_EEEEOT_DpOT0_EUlvE_EEEEC1B8ue170006INS_4_AndELi0EEESQ_', symObjAddr: 0x13CA8, symBinAddr: 0x1000173D8, symSize: 0x34 }
  - { offsetInCU: 0x2E322, offset: 0x3C571, size: 0x8, addend: 0x0, symName: '__ZNSt3__15tupleIJRKNS_9allocatorIZN10ThreadPool7enqueueIRZN5layer13forward_layerER11value_arrayE3$_0JNS_17reference_wrapperINS_6vectorI6neuronNS1_ISB_EEEEEEEEENS_6futureIDTclfp_spfp0_EEEEOT_DpOT0_EUlvE_EEEEC2B8ue170006INS_4_AndELi0EEESQ_', symObjAddr: 0x13CDC, symBinAddr: 0x10001740C, symSize: 0x34 }
  - { offsetInCU: 0x2E36A, offset: 0x3C5B9, size: 0x8, addend: 0x0, symName: '__ZNSt3__112__tuple_implINS_15__tuple_indicesIJLm0EEEEJRKNS_9allocatorIZN10ThreadPool7enqueueIRZN5layer13forward_layerER11value_arrayE3$_0JNS_17reference_wrapperINS_6vectorI6neuronNS3_ISD_EEEEEEEEENS_6futureIDTclfp_spfp0_EEEEOT_DpOT0_EUlvE_EEEEC1B8ue170006IJLm0EEJSS_EJEJEJSS_EEENS1_IJXspT_EEEENS_13__tuple_typesIJDpSM_EEENS1_IJXspT1_EEEENSW_IJDpT2_EEEDpOT3_', symObjAddr: 0x13D10, symBinAddr: 0x100017440, symSize: 0x34 }
  - { offsetInCU: 0x2E3FA, offset: 0x3C649, size: 0x8, addend: 0x0, symName: '__ZNSt3__112__tuple_implINS_15__tuple_indicesIJLm0EEEEJRKNS_9allocatorIZN10ThreadPool7enqueueIRZN5layer13forward_layerER11value_arrayE3$_0JNS_17reference_wrapperINS_6vectorI6neuronNS3_ISD_EEEEEEEEENS_6futureIDTclfp_spfp0_EEEEOT_DpOT0_EUlvE_EEEEC2B8ue170006IJLm0EEJSS_EJEJEJSS_EEENS1_IJXspT_EEEENS_13__tuple_typesIJDpSM_EEENS1_IJXspT1_EEEENSW_IJDpT2_EEEDpOT3_', symObjAddr: 0x13D44, symBinAddr: 0x100017474, symSize: 0x34 }
  - { offsetInCU: 0x2E48A, offset: 0x3C6D9, size: 0x8, addend: 0x0, symName: '__ZNSt3__112__tuple_leafILm0ERKNS_9allocatorIZN10ThreadPool7enqueueIRZN5layer13forward_layerER11value_arrayE3$_0JNS_17reference_wrapperINS_6vectorI6neuronNS1_ISB_EEEEEEEEENS_6futureIDTclfp_spfp0_EEEEOT_DpOT0_EUlvE_EELb0EEC2B8ue170006ISQ_vEESJ_', symObjAddr: 0x13D78, symBinAddr: 0x1000174A8, symSize: 0x20 }
  - { offsetInCU: 0x2E4CB, offset: 0x3C71A, size: 0x8, addend: 0x0, symName: '__ZNSt3__117__compressed_pairIZN10ThreadPool7enqueueIRZN5layer13forward_layerER11value_arrayE3$_0JNS_17reference_wrapperINS_6vectorI6neuronNS_9allocatorISA_EEEEEEEEENS_6futureIDTclfp_spfp0_EEEEOT_DpOT0_EUlvE_NSB_ISN_EEEC2B8ue170006IJRKSN_EJRKSO_EEENS_21piecewise_construct_tENS_5tupleIJDpT_EEENSW_IJDpSK_EEE', symObjAddr: 0x13D98, symBinAddr: 0x1000174C8, symSize: 0x7C }
  - { offsetInCU: 0x2E533, offset: 0x3C782, size: 0x8, addend: 0x0, symName: '__ZNSt3__122__compressed_pair_elemINS_9allocatorIZN10ThreadPool7enqueueIRZN5layer13forward_layerER11value_arrayE3$_0JNS_17reference_wrapperINS_6vectorI6neuronNS1_ISB_EEEEEEEEENS_6futureIDTclfp_spfp0_EEEEOT_DpOT0_EUlvE_EELi1ELb1EEC2B8ue170006IJRKSO_EJLm0EEEENS_21piecewise_construct_tENS_5tupleIJDpT_EEENS_15__tuple_indicesIJXspT0_EEEE', symObjAddr: 0x13E14, symBinAddr: 0x100017544, symSize: 0x38 }
  - { offsetInCU: 0x2E597, offset: 0x3C7E6, size: 0x8, addend: 0x0, symName: '__ZNSt3__112__tuple_leafILm0ERKNS_9allocatorIZN10ThreadPool7enqueueIRZN5layer13forward_layerER11value_arrayE3$_0JNS_17reference_wrapperINS_6vectorI6neuronNS1_ISB_EEEEEEEEENS_6futureIDTclfp_spfp0_EEEEOT_DpOT0_EUlvE_EELb0EE3getB8ue170006Ev', symObjAddr: 0x13E70, symBinAddr: 0x1000175A0, symSize: 0x18 }
  - { offsetInCU: 0x2E5BB, offset: 0x3C80A, size: 0x8, addend: 0x0, symName: '__ZNSt3__110__function12__alloc_funcIZN10ThreadPool7enqueueIRZN5layer13forward_layerER11value_arrayE3$_0JNS_17reference_wrapperINS_6vectorI6neuronNS_9allocatorISB_EEEEEEEEENS_6futureIDTclfp_spfp0_EEEEOT_DpOT0_EUlvE_NSC_ISO_EEFvvEE7destroyB8ue170006Ev', symObjAddr: 0x13E88, symBinAddr: 0x1000175B8, symSize: 0x24 }
  - { offsetInCU: 0x2E5DF, offset: 0x3C82E, size: 0x8, addend: 0x0, symName: '__ZNSt3__110__function12__alloc_funcIZN10ThreadPool7enqueueIRZN5layer13forward_layerER11value_arrayE3$_0JNS_17reference_wrapperINS_6vectorI6neuronNS_9allocatorISB_EEEEEEEEENS_6futureIDTclfp_spfp0_EEEEOT_DpOT0_EUlvE_NSC_ISO_EEFvvEEclB8ue170006Ev', symObjAddr: 0x13EAC, symBinAddr: 0x1000175DC, symSize: 0x28 }
  - { offsetInCU: 0x2E603, offset: 0x3C852, size: 0x8, addend: 0x0, symName: '__ZNSt3__128__invoke_void_return_wrapperIvLb1EE6__callB8ue170006IJRZN10ThreadPool7enqueueIRZN5layer13forward_layerER11value_arrayE3$_0JNS_17reference_wrapperINS_6vectorI6neuronNS_9allocatorISC_EEEEEEEEENS_6futureIDTclfp_spfp0_EEEEOT_DpOT0_EUlvE_EEEvDpOT_', symObjAddr: 0x13ED4, symBinAddr: 0x100017604, symSize: 0x24 }
  - { offsetInCU: 0x2E631, offset: 0x3C880, size: 0x8, addend: 0x0, symName: '__ZNSt3__117__compressed_pairIZN10ThreadPool7enqueueIRZN5layer13forward_layerER11value_arrayE3$_0JNS_17reference_wrapperINS_6vectorI6neuronNS_9allocatorISA_EEEEEEEEENS_6futureIDTclfp_spfp0_EEEEOT_DpOT0_EUlvE_NSB_ISN_EEE5firstB8ue170006Ev', symObjAddr: 0x13EF8, symBinAddr: 0x100017628, symSize: 0x24 }
  - { offsetInCU: 0x2E65A, offset: 0x3C8A9, size: 0x8, addend: 0x0, symName: '__ZZN10ThreadPool7enqueueIRZN5layer13forward_layerER11value_arrayE3$_0JNSt3__117reference_wrapperINS6_6vectorI6neuronNS6_9allocatorIS9_EEEEEEEEENS6_6futureIDTclfp_spfp0_EEEEOT_DpOT0_ENKUlvE_clEv', symObjAddr: 0x13F40, symBinAddr: 0x100017670, symSize: 0x28 }
  - { offsetInCU: 0x2E682, offset: 0x3C8D1, size: 0x8, addend: 0x0, symName: __ZNKSt3__110shared_ptrINS_13packaged_taskIFNS_6vectorI5valueNS_9allocatorIS3_EEEEvEEEEdeB8ue170006Ev, symObjAddr: 0x13F68, symBinAddr: 0x100017698, symSize: 0x18 }
  - { offsetInCU: 0x2E6A6, offset: 0x3C8F5, size: 0x8, addend: 0x0, symName: __ZNSt3__113packaged_taskIFNS_6vectorI5valueNS_9allocatorIS2_EEEEvEEclEv, symObjAddr: 0x13F80, symBinAddr: 0x1000176B0, symSize: 0x124 }
  - { offsetInCU: 0x2E6CD, offset: 0x3C91C, size: 0x8, addend: 0x0, symName: __ZNSt3__17promiseINS_6vectorI5valueNS_9allocatorIS2_EEEEE9set_valueEOS5_, symObjAddr: 0x14124, symBinAddr: 0x100017854, symSize: 0x54 }
  - { offsetInCU: 0x2E703, offset: 0x3C952, size: 0x8, addend: 0x0, symName: __ZNKSt3__124__packaged_task_functionIFNS_6vectorI5valueNS_9allocatorIS2_EEEEvEEclEv, symObjAddr: 0x14178, symBinAddr: 0x1000178A8, symSize: 0x38 }
  - { offsetInCU: 0x2E72A, offset: 0x3C979, size: 0x8, addend: 0x0, symName: __ZNSt3__17promiseINS_6vectorI5valueNS_9allocatorIS2_EEEEE13set_exceptionESt13exception_ptr, symObjAddr: 0x141B0, symBinAddr: 0x1000178E0, symSize: 0x9C }
  - { offsetInCU: 0x2E761, offset: 0x3C9B0, size: 0x8, addend: 0x0, symName: __ZNSt3__113__assoc_stateINS_6vectorI5valueNS_9allocatorIS2_EEEEE9set_valueIS5_EEvOT_, symObjAddr: 0x1424C, symBinAddr: 0x10001797C, symSize: 0xA8 }
  - { offsetInCU: 0x2E7AF, offset: 0x3C9FE, size: 0x8, addend: 0x0, symName: __ZNSt3__16vectorI5valueNS_9allocatorIS1_EEEC1B8ue170006EOS4_, symObjAddr: 0x142F4, symBinAddr: 0x100017A24, symSize: 0x34 }
  - { offsetInCU: 0x2E7E9, offset: 0x3CA38, size: 0x8, addend: 0x0, symName: __ZNSt3__16vectorI5valueNS_9allocatorIS1_EEEC2B8ue170006EOS4_, symObjAddr: 0x14328, symBinAddr: 0x100017A58, symSize: 0xC4 }
  - { offsetInCU: 0x2E828, offset: 0x3CA77, size: 0x8, addend: 0x0, symName: __ZNSt3__117__compressed_pairIP5valueNS_9allocatorIS1_EEEC1B8ue170006IDnS4_EEOT_OT0_, symObjAddr: 0x143EC, symBinAddr: 0x100017B1C, symSize: 0x3C }
  - { offsetInCU: 0x2E87E, offset: 0x3CACD, size: 0x8, addend: 0x0, symName: __ZNSt3__117__compressed_pairIP5valueNS_9allocatorIS1_EEEC2B8ue170006IDnS4_EEOT_OT0_, symObjAddr: 0x14428, symBinAddr: 0x100017B58, symSize: 0x44 }
  - { offsetInCU: 0x2E8D4, offset: 0x3CB23, size: 0x8, addend: 0x0, symName: __ZNSt3__122__compressed_pair_elemINS_9allocatorI5valueEELi1ELb1EEC2B8ue170006IS3_vEEOT_, symObjAddr: 0x1446C, symBinAddr: 0x100017B9C, symSize: 0x18 }
  - { offsetInCU: 0x2E914, offset: 0x3CB63, size: 0x8, addend: 0x0, symName: '__ZNSt3__122__compressed_pair_elemIZN10ThreadPool7enqueueIRZN5layer13forward_layerER11value_arrayE3$_0JNS_17reference_wrapperINS_6vectorI6neuronNS_9allocatorISA_EEEEEEEEENS_6futureIDTclfp_spfp0_EEEEOT_DpOT0_EUlvE_Li0ELb0EE5__getB8ue170006Ev', symObjAddr: 0x14484, symBinAddr: 0x100017BB4, symSize: 0x14 }
  - { offsetInCU: 0x2E96E, offset: 0x3CBBD, size: 0x8, addend: 0x0, symName: __ZNKSt9type_infoeqB8ue170006ERKS_, symObjAddr: 0x14498, symBinAddr: 0x100017BC8, symSize: 0xDC }
  - { offsetInCU: 0x2EA0A, offset: 0x3CC59, size: 0x8, addend: 0x0, symName: __ZNSt27__type_info_implementations30__non_unique_arm_rtti_bit_impl21__is_type_name_uniqueB8ue170006Em, symObjAddr: 0x14574, symBinAddr: 0x100017CA4, symSize: 0x20 }
  - { offsetInCU: 0x2EA2E, offset: 0x3CC7D, size: 0x8, addend: 0x0, symName: __ZNSt3__110shared_ptrINS_13packaged_taskIFNS_6vectorI5valueNS_9allocatorIS3_EEEEvEEEEC2B8ue170006ERKS9_, symObjAddr: 0x14594, symBinAddr: 0x100017CC4, symSize: 0x70 }
  - { offsetInCU: 0x2EA65, offset: 0x3CCB4, size: 0x8, addend: 0x0, symName: __ZNSt3__119__shared_weak_count12__add_sharedB8ue170006Ev, symObjAddr: 0x14604, symBinAddr: 0x100017D34, symSize: 0x24 }
  - { offsetInCU: 0x2EA89, offset: 0x3CCD8, size: 0x8, addend: 0x0, symName: __ZNSt3__114__shared_count12__add_sharedB8ue170006Ev, symObjAddr: 0x14628, symBinAddr: 0x100017D58, symSize: 0x28 }
  - { offsetInCU: 0x2EAAD, offset: 0x3CCFC, size: 0x8, addend: 0x0, symName: '__ZZN10ThreadPool7enqueueIRZN5layer13forward_layerER11value_arrayE3$_0JNSt3__117reference_wrapperINS6_6vectorI6neuronNS6_9allocatorIS9_EEEEEEEEENS6_6futureIDTclfp_spfp0_EEEEOT_DpOT0_ENUlvE_D2Ev', symObjAddr: 0x14680, symBinAddr: 0x100017DB0, symSize: 0x2C }
  - { offsetInCU: 0x2EAD7, offset: 0x3CD26, size: 0x8, addend: 0x0, symName: __ZNSt3__17promiseINS_6vectorI5valueNS_9allocatorIS2_EEEEE10get_futureEv, symObjAddr: 0x146AC, symBinAddr: 0x100017DDC, symSize: 0x58 }
  - { offsetInCU: 0x2EAFE, offset: 0x3CD4D, size: 0x8, addend: 0x0, symName: __ZNSt3__16futureINS_6vectorI5valueNS_9allocatorIS2_EEEEEC1EPNS_13__assoc_stateIS5_EE, symObjAddr: 0x14704, symBinAddr: 0x100017E34, symSize: 0x34 }
  - { offsetInCU: 0x2EB38, offset: 0x3CD87, size: 0x8, addend: 0x0, symName: __ZNSt3__16futureINS_6vectorI5valueNS_9allocatorIS2_EEEEEC2EPNS_13__assoc_stateIS5_EE, symObjAddr: 0x14738, symBinAddr: 0x100017E68, symSize: 0x3C }
  - { offsetInCU: 0x2EB72, offset: 0x3CDC1, size: 0x8, addend: 0x0, symName: __ZNSt3__117__assoc_sub_state15__attach_futureB8ue170006Ev, symObjAddr: 0x14774, symBinAddr: 0x100017EA4, symSize: 0xA8 }
  - { offsetInCU: 0x2EBCD, offset: 0x3CE1C, size: 0x8, addend: 0x0, symName: __ZNSt3__110lock_guardINS_5mutexEEC1B8ue170006ERS1_, symObjAddr: 0x1481C, symBinAddr: 0x100017F4C, symSize: 0x34 }
  - { offsetInCU: 0x2EC03, offset: 0x3CE52, size: 0x8, addend: 0x0, symName: __ZNSt3__110lock_guardINS_5mutexEED1B8ue170006Ev, symObjAddr: 0x14850, symBinAddr: 0x100017F80, symSize: 0x2C }
  - { offsetInCU: 0x2EC2B, offset: 0x3CE7A, size: 0x8, addend: 0x0, symName: __ZNSt3__110lock_guardINS_5mutexEEC2B8ue170006ERS1_, symObjAddr: 0x1487C, symBinAddr: 0x100017FAC, symSize: 0x3C }
  - { offsetInCU: 0x2EC61, offset: 0x3CEB0, size: 0x8, addend: 0x0, symName: __ZNSt3__110lock_guardINS_5mutexEED2B8ue170006Ev, symObjAddr: 0x148B8, symBinAddr: 0x100017FE8, symSize: 0x30 }
  - { offsetInCU: 0x2EC89, offset: 0x3CED8, size: 0x8, addend: 0x0, symName: __ZNSt3__110shared_ptrINS_13packaged_taskIFNS_6vectorI5valueNS_9allocatorIS3_EEEEvEEEED2B8ue170006Ev, symObjAddr: 0x148E8, symBinAddr: 0x100018018, symSize: 0x54 }
  - { offsetInCU: 0x2ECB1, offset: 0x3CF00, size: 0x8, addend: 0x0, symName: __ZNSt3__119__shared_weak_count16__release_sharedB8ue170006Ev, symObjAddr: 0x1493C, symBinAddr: 0x10001806C, symSize: 0x3C }
  - { offsetInCU: 0x2ECD5, offset: 0x3CF24, size: 0x8, addend: 0x0, symName: __ZNSt3__16futureINS_6vectorI5valueNS_9allocatorIS2_EEEEED2Ev, symObjAddr: 0x14978, symBinAddr: 0x1000180A8, symSize: 0x54 }
  - { offsetInCU: 0x2ED00, offset: 0x3CF4F, size: 0x8, addend: 0x0, symName: __ZNSt3__16vectorINS_6futureINS0_I5valueNS_9allocatorIS2_EEEEEENS3_IS6_EEE9__end_capB8ue170006Ev, symObjAddr: 0x149CC, symBinAddr: 0x1000180FC, symSize: 0x28 }
  - { offsetInCU: 0x2ED24, offset: 0x3CF73, size: 0x8, addend: 0x0, symName: __ZNSt3__16vectorINS_6futureINS0_I5valueNS_9allocatorIS2_EEEEEENS3_IS6_EEE22__construct_one_at_endB8ue170006IJS6_EEEvDpOT_, symObjAddr: 0x149F4, symBinAddr: 0x100018124, symSize: 0x90 }
  - { offsetInCU: 0x2ED71, offset: 0x3CFC0, size: 0x8, addend: 0x0, symName: __ZNSt3__16vectorINS_6futureINS0_I5valueNS_9allocatorIS2_EEEEEENS3_IS6_EEE21__push_back_slow_pathIS6_EEvOT_, symObjAddr: 0x14A84, symBinAddr: 0x1000181B4, symSize: 0xD8 }
  - { offsetInCU: 0x2EDCE, offset: 0x3D01D, size: 0x8, addend: 0x0, symName: __ZNSt3__117__compressed_pairIPNS_6futureINS_6vectorI5valueNS_9allocatorIS3_EEEEEENS4_IS7_EEE5firstB8ue170006Ev, symObjAddr: 0x14B5C, symBinAddr: 0x10001828C, symSize: 0x24 }
  - { offsetInCU: 0x2EDF2, offset: 0x3D041, size: 0x8, addend: 0x0, symName: __ZNSt3__122__compressed_pair_elemIPNS_6futureINS_6vectorI5valueNS_9allocatorIS3_EEEEEELi0ELb0EE5__getB8ue170006Ev, symObjAddr: 0x14B80, symBinAddr: 0x1000182B0, symSize: 0x14 }
  - { offsetInCU: 0x2EE2F, offset: 0x3D07E, size: 0x8, addend: 0x0, symName: __ZNSt3__16vectorINS_6futureINS0_I5valueNS_9allocatorIS2_EEEEEENS3_IS6_EEE21_ConstructTransactionC1B8ue170006ERS8_m, symObjAddr: 0x14B94, symBinAddr: 0x1000182C4, symSize: 0x3C }
  - { offsetInCU: 0x2EE75, offset: 0x3D0C4, size: 0x8, addend: 0x0, symName: __ZNSt3__116allocator_traitsINS_9allocatorINS_6futureINS_6vectorI5valueNS1_IS4_EEEEEEEEE9constructB8ue170006IS7_JS7_EvEEvRS8_PT_DpOT0_, symObjAddr: 0x14BD0, symBinAddr: 0x100018300, symSize: 0x34 }
  - { offsetInCU: 0x2EECB, offset: 0x3D11A, size: 0x8, addend: 0x0, symName: __ZNSt3__16vectorINS_6futureINS0_I5valueNS_9allocatorIS2_EEEEEENS3_IS6_EEE21_ConstructTransactionD1B8ue170006Ev, symObjAddr: 0x14C04, symBinAddr: 0x100018334, symSize: 0x2C }
  - { offsetInCU: 0x2EEF3, offset: 0x3D142, size: 0x8, addend: 0x0, symName: __ZNSt3__16vectorINS_6futureINS0_I5valueNS_9allocatorIS2_EEEEEENS3_IS6_EEE21_ConstructTransactionC2B8ue170006ERS8_m, symObjAddr: 0x14C30, symBinAddr: 0x100018360, symSize: 0x44 }
  - { offsetInCU: 0x2EF39, offset: 0x3D188, size: 0x8, addend: 0x0, symName: __ZNSt3__19allocatorINS_6futureINS_6vectorI5valueNS0_IS3_EEEEEEE9constructB8ue170006IS6_JS6_EEEvPT_DpOT0_, symObjAddr: 0x14C74, symBinAddr: 0x1000183A4, symSize: 0x30 }
  - { offsetInCU: 0x2EF8D, offset: 0x3D1DC, size: 0x8, addend: 0x0, symName: __ZNSt3__16futureINS_6vectorI5valueNS_9allocatorIS2_EEEEEC1B8ue170006EOS6_, symObjAddr: 0x14CA4, symBinAddr: 0x1000183D4, symSize: 0x34 }
  - { offsetInCU: 0x2EFC4, offset: 0x3D213, size: 0x8, addend: 0x0, symName: __ZNSt3__16futureINS_6vectorI5valueNS_9allocatorIS2_EEEEEC2B8ue170006EOS6_, symObjAddr: 0x14CD8, symBinAddr: 0x100018408, symSize: 0x2C }
  - { offsetInCU: 0x2EFFB, offset: 0x3D24A, size: 0x8, addend: 0x0, symName: __ZNSt3__16vectorINS_6futureINS0_I5valueNS_9allocatorIS2_EEEEEENS3_IS6_EEE21_ConstructTransactionD2B8ue170006Ev, symObjAddr: 0x14D04, symBinAddr: 0x100018434, symSize: 0x20 }
  - { offsetInCU: 0x2F023, offset: 0x3D272, size: 0x8, addend: 0x0, symName: __ZNKSt3__16vectorINS_6futureINS0_I5valueNS_9allocatorIS2_EEEEEENS3_IS6_EEE11__recommendB8ue170006Em, symObjAddr: 0x14D24, symBinAddr: 0x100018454, symSize: 0xB4 }
  - { offsetInCU: 0x2F077, offset: 0x3D2C6, size: 0x8, addend: 0x0, symName: __ZNSt3__114__split_bufferINS_6futureINS_6vectorI5valueNS_9allocatorIS3_EEEEEERNS4_IS7_EEEC1EmmS9_, symObjAddr: 0x14DD8, symBinAddr: 0x100018508, symSize: 0x44 }
  - { offsetInCU: 0x2F0CC, offset: 0x3D31B, size: 0x8, addend: 0x0, symName: __ZNSt3__114__split_bufferINS_6futureINS_6vectorI5valueNS_9allocatorIS3_EEEEEERNS4_IS7_EEED1Ev, symObjAddr: 0x14F2C, symBinAddr: 0x10001865C, symSize: 0x2C }
  - { offsetInCU: 0x2F0F7, offset: 0x3D346, size: 0x8, addend: 0x0, symName: __ZNKSt3__16vectorINS_6futureINS0_I5valueNS_9allocatorIS2_EEEEEENS3_IS6_EEE8max_sizeEv, symObjAddr: 0x14F58, symBinAddr: 0x100018688, symSize: 0x60 }
  - { offsetInCU: 0x2F11E, offset: 0x3D36D, size: 0x8, addend: 0x0, symName: __ZNKSt3__16vectorINS_6futureINS0_I5valueNS_9allocatorIS2_EEEEEENS3_IS6_EEE20__throw_length_errorB8ue170006Ev, symObjAddr: 0x14FB8, symBinAddr: 0x1000186E8, symSize: 0x1C }
  - { offsetInCU: 0x2F14C, offset: 0x3D39B, size: 0x8, addend: 0x0, symName: __ZNSt3__116allocator_traitsINS_9allocatorINS_6futureINS_6vectorI5valueNS1_IS4_EEEEEEEEE8max_sizeB8ue170006IS8_vEEmRKS8_, symObjAddr: 0x14FD4, symBinAddr: 0x100018704, symSize: 0x24 }
  - { offsetInCU: 0x2F179, offset: 0x3D3C8, size: 0x8, addend: 0x0, symName: __ZNKSt3__16vectorINS_6futureINS0_I5valueNS_9allocatorIS2_EEEEEENS3_IS6_EEE7__allocB8ue170006Ev, symObjAddr: 0x14FF8, symBinAddr: 0x100018728, symSize: 0x28 }
  - { offsetInCU: 0x2F19D, offset: 0x3D3EC, size: 0x8, addend: 0x0, symName: __ZNKSt3__19allocatorINS_6futureINS_6vectorI5valueNS0_IS3_EEEEEEE8max_sizeB8ue170006Ev, symObjAddr: 0x15020, symBinAddr: 0x100018750, symSize: 0x14 }
  - { offsetInCU: 0x2F1C1, offset: 0x3D410, size: 0x8, addend: 0x0, symName: __ZNKSt3__117__compressed_pairIPNS_6futureINS_6vectorI5valueNS_9allocatorIS3_EEEEEENS4_IS7_EEE6secondB8ue170006Ev, symObjAddr: 0x15034, symBinAddr: 0x100018764, symSize: 0x24 }
  - { offsetInCU: 0x2F1E5, offset: 0x3D434, size: 0x8, addend: 0x0, symName: __ZNKSt3__122__compressed_pair_elemINS_9allocatorINS_6futureINS_6vectorI5valueNS1_IS4_EEEEEEEELi1ELb1EE5__getB8ue170006Ev, symObjAddr: 0x15058, symBinAddr: 0x100018788, symSize: 0x14 }
  - { offsetInCU: 0x2F209, offset: 0x3D458, size: 0x8, addend: 0x0, symName: __ZNSt3__114__split_bufferINS_6futureINS_6vectorI5valueNS_9allocatorIS3_EEEEEERNS4_IS7_EEEC2EmmS9_, symObjAddr: 0x1506C, symBinAddr: 0x10001879C, symSize: 0xD4 }
  - { offsetInCU: 0x2F27B, offset: 0x3D4CA, size: 0x8, addend: 0x0, symName: __ZNSt3__117__compressed_pairIPNS_6futureINS_6vectorI5valueNS_9allocatorIS3_EEEEEERNS4_IS7_EEEC1B8ue170006IDnSA_EEOT_OT0_, symObjAddr: 0x15140, symBinAddr: 0x100018870, symSize: 0x3C }
  - { offsetInCU: 0x2F2D1, offset: 0x3D520, size: 0x8, addend: 0x0, symName: __ZNSt3__114__split_bufferINS_6futureINS_6vectorI5valueNS_9allocatorIS3_EEEEEERNS4_IS7_EEE7__allocB8ue170006Ev, symObjAddr: 0x151BC, symBinAddr: 0x1000188EC, symSize: 0x28 }
  - { offsetInCU: 0x2F2F5, offset: 0x3D544, size: 0x8, addend: 0x0, symName: __ZNSt3__114__split_bufferINS_6futureINS_6vectorI5valueNS_9allocatorIS3_EEEEEERNS4_IS7_EEE9__end_capB8ue170006Ev, symObjAddr: 0x151E4, symBinAddr: 0x100018914, symSize: 0x28 }
  - { offsetInCU: 0x2F319, offset: 0x3D568, size: 0x8, addend: 0x0, symName: __ZNSt3__117__compressed_pairIPNS_6futureINS_6vectorI5valueNS_9allocatorIS3_EEEEEERNS4_IS7_EEEC2B8ue170006IDnSA_EEOT_OT0_, symObjAddr: 0x1520C, symBinAddr: 0x10001893C, symSize: 0x48 }
  - { offsetInCU: 0x2F36F, offset: 0x3D5BE, size: 0x8, addend: 0x0, symName: __ZNSt3__122__compressed_pair_elemIRNS_9allocatorINS_6futureINS_6vectorI5valueNS1_IS4_EEEEEEEELi1ELb0EEC2B8ue170006IS9_vEEOT_, symObjAddr: 0x15254, symBinAddr: 0x100018984, symSize: 0x20 }
  - { offsetInCU: 0x2F3AF, offset: 0x3D5FE, size: 0x8, addend: 0x0, symName: __ZNSt3__19allocatorINS_6futureINS_6vectorI5valueNS0_IS3_EEEEEEE8allocateB8ue170006Em, symObjAddr: 0x15274, symBinAddr: 0x1000189A4, symSize: 0x58 }
  - { offsetInCU: 0x2F3E1, offset: 0x3D630, size: 0x8, addend: 0x0, symName: __ZNSt3__117__compressed_pairIPNS_6futureINS_6vectorI5valueNS_9allocatorIS3_EEEEEERNS4_IS7_EEE6secondB8ue170006Ev, symObjAddr: 0x152CC, symBinAddr: 0x1000189FC, symSize: 0x28 }
  - { offsetInCU: 0x2F405, offset: 0x3D654, size: 0x8, addend: 0x0, symName: __ZNSt3__122__compressed_pair_elemIRNS_9allocatorINS_6futureINS_6vectorI5valueNS1_IS4_EEEEEEEELi1ELb0EE5__getB8ue170006Ev, symObjAddr: 0x152F4, symBinAddr: 0x100018A24, symSize: 0x18 }
  - { offsetInCU: 0x2F429, offset: 0x3D678, size: 0x8, addend: 0x0, symName: __ZNSt3__117__compressed_pairIPNS_6futureINS_6vectorI5valueNS_9allocatorIS3_EEEEEERNS4_IS7_EEE5firstB8ue170006Ev, symObjAddr: 0x1530C, symBinAddr: 0x100018A3C, symSize: 0x24 }
  - { offsetInCU: 0x2F44D, offset: 0x3D69C, size: 0x8, addend: 0x0, symName: __ZNSt3__116reverse_iteratorIPNS_6futureINS_6vectorI5valueNS_9allocatorIS3_EEEEEEEC1B8ue170006ES8_, symObjAddr: 0x1545C, symBinAddr: 0x100018B8C, symSize: 0x34 }
  - { offsetInCU: 0x2F483, offset: 0x3D6D2, size: 0x8, addend: 0x0, symName: __ZNKSt3__116reverse_iteratorIPNS_6futureINS_6vectorI5valueNS_9allocatorIS3_EEEEEEE4baseB8ue170006Ev, symObjAddr: 0x15490, symBinAddr: 0x100018BC0, symSize: 0x18 }
  - { offsetInCU: 0x2F4A7, offset: 0x3D6F6, size: 0x8, addend: 0x0, symName: __ZNKSt3__16vectorINS_6futureINS0_I5valueNS_9allocatorIS2_EEEEEENS3_IS6_EEE14__annotate_newB8ue170006Em, symObjAddr: 0x154E4, symBinAddr: 0x100018C14, symSize: 0xAC }
  - { offsetInCU: 0x2F4DA, offset: 0x3D729, size: 0x8, addend: 0x0, symName: __ZNSt3__129_AllocatorDestroyRangeReverseINS_9allocatorINS_6futureINS_6vectorI5valueNS1_IS4_EEEEEEEENS_16reverse_iteratorIPS7_EEEC1B8ue170006ERS8_RSB_SE_, symObjAddr: 0x155DC, symBinAddr: 0x100018D0C, symSize: 0x44 }
  - { offsetInCU: 0x2F52F, offset: 0x3D77E, size: 0x8, addend: 0x0, symName: __ZNKSt3__116reverse_iteratorIPNS_6futureINS_6vectorI5valueNS_9allocatorIS3_EEEEEEEdeB8ue170006Ev, symObjAddr: 0x1568C, symBinAddr: 0x100018DBC, symSize: 0x28 }
  - { offsetInCU: 0x2F561, offset: 0x3D7B0, size: 0x8, addend: 0x0, symName: __ZNSt3__116reverse_iteratorIPNS_6futureINS_6vectorI5valueNS_9allocatorIS3_EEEEEEEppB8ue170006Ev, symObjAddr: 0x156B4, symBinAddr: 0x100018DE4, symSize: 0x20 }
  - { offsetInCU: 0x2F585, offset: 0x3D7D4, size: 0x8, addend: 0x0, symName: __ZNSt3__128__exception_guard_exceptionsINS_29_AllocatorDestroyRangeReverseINS_9allocatorINS_6futureINS_6vectorI5valueNS2_IS5_EEEEEEEENS_16reverse_iteratorIPS8_EEEEE10__completeB8ue170006Ev, symObjAddr: 0x156D4, symBinAddr: 0x100018E04, symSize: 0x1C }
  - { offsetInCU: 0x2F5A9, offset: 0x3D7F8, size: 0x8, addend: 0x0, symName: __ZNSt3__128__exception_guard_exceptionsINS_29_AllocatorDestroyRangeReverseINS_9allocatorINS_6futureINS_6vectorI5valueNS2_IS5_EEEEEEEENS_16reverse_iteratorIPS8_EEEEED1B8ue170006Ev, symObjAddr: 0x156F0, symBinAddr: 0x100018E20, symSize: 0x2C }
  - { offsetInCU: 0x2F5D1, offset: 0x3D820, size: 0x8, addend: 0x0, symName: __ZNSt3__128__exception_guard_exceptionsINS_29_AllocatorDestroyRangeReverseINS_9allocatorINS_6futureINS_6vectorI5valueNS2_IS5_EEEEEEEENS_16reverse_iteratorIPS8_EEEEEC1B8ue170006ESD_, symObjAddr: 0x1571C, symBinAddr: 0x100018E4C, symSize: 0x34 }
  - { offsetInCU: 0x2F608, offset: 0x3D857, size: 0x8, addend: 0x0, symName: __ZNSt3__128__exception_guard_exceptionsINS_29_AllocatorDestroyRangeReverseINS_9allocatorINS_6futureINS_6vectorI5valueNS2_IS5_EEEEEEEENS_16reverse_iteratorIPS8_EEEEEC2B8ue170006ESD_, symObjAddr: 0x15750, symBinAddr: 0x100018E80, symSize: 0x30 }
  - { offsetInCU: 0x2F63F, offset: 0x3D88E, size: 0x8, addend: 0x0, symName: __ZNSt3__129_AllocatorDestroyRangeReverseINS_9allocatorINS_6futureINS_6vectorI5valueNS1_IS4_EEEEEEEENS_16reverse_iteratorIPS7_EEEC2B8ue170006ERS8_RSB_SE_, symObjAddr: 0x15780, symBinAddr: 0x100018EB0, symSize: 0x38 }
  - { offsetInCU: 0x2F699, offset: 0x3D8E8, size: 0x8, addend: 0x0, symName: __ZNSt3__119__to_address_helperINS_16reverse_iteratorIPNS_6futureINS_6vectorI5valueNS_9allocatorIS4_EEEEEEEEvE6__callB8ue170006ERKSA_, symObjAddr: 0x157B8, symBinAddr: 0x100018EE8, symSize: 0x38 }
  - { offsetInCU: 0x2F6BB, offset: 0x3D90A, size: 0x8, addend: 0x0, symName: __ZNKSt3__116reverse_iteratorIPNS_6futureINS_6vectorI5valueNS_9allocatorIS3_EEEEEEEptB8ue170006Ev, symObjAddr: 0x157F0, symBinAddr: 0x100018F20, symSize: 0x24 }
  - { offsetInCU: 0x2F6DF, offset: 0x3D92E, size: 0x8, addend: 0x0, symName: __ZNSt3__128__exception_guard_exceptionsINS_29_AllocatorDestroyRangeReverseINS_9allocatorINS_6futureINS_6vectorI5valueNS2_IS5_EEEEEEEENS_16reverse_iteratorIPS8_EEEEED2B8ue170006Ev, symObjAddr: 0x15814, symBinAddr: 0x100018F44, symSize: 0x50 }
  - { offsetInCU: 0x2F707, offset: 0x3D956, size: 0x8, addend: 0x0, symName: __ZNKSt3__129_AllocatorDestroyRangeReverseINS_9allocatorINS_6futureINS_6vectorI5valueNS1_IS4_EEEEEEEENS_16reverse_iteratorIPS7_EEEclB8ue170006Ev, symObjAddr: 0x15864, symBinAddr: 0x100018F94, symSize: 0xB4 }
  - { offsetInCU: 0x2F72C, offset: 0x3D97B, size: 0x8, addend: 0x0, symName: __ZNSt3__116reverse_iteratorINS0_IPNS_6futureINS_6vectorI5valueNS_9allocatorIS3_EEEEEEEEEC1B8ue170006ES9_, symObjAddr: 0x15988, symBinAddr: 0x1000190B8, symSize: 0x3C }
  - { offsetInCU: 0x2F762, offset: 0x3D9B1, size: 0x8, addend: 0x0, symName: __ZNSt3__116reverse_iteratorINS0_IPNS_6futureINS_6vectorI5valueNS_9allocatorIS3_EEEEEEEEEppB8ue170006Ev, symObjAddr: 0x15A48, symBinAddr: 0x100019178, symSize: 0x30 }
  - { offsetInCU: 0x2F786, offset: 0x3D9D5, size: 0x8, addend: 0x0, symName: __ZNKSt3__116reverse_iteratorINS0_IPNS_6futureINS_6vectorI5valueNS_9allocatorIS3_EEEEEEEEE4baseB8ue170006Ev, symObjAddr: 0x15A78, symBinAddr: 0x1000191A8, symSize: 0x24 }
  - { offsetInCU: 0x2F7AF, offset: 0x3D9FE, size: 0x8, addend: 0x0, symName: __ZNSt3__119__to_address_helperINS_16reverse_iteratorINS1_IPNS_6futureINS_6vectorI5valueNS_9allocatorIS4_EEEEEEEEEEvE6__callB8ue170006ERKSB_, symObjAddr: 0x15A9C, symBinAddr: 0x1000191CC, symSize: 0x38 }
  - { offsetInCU: 0x2F7D1, offset: 0x3DA20, size: 0x8, addend: 0x0, symName: __ZNKSt3__116reverse_iteratorINS0_IPNS_6futureINS_6vectorI5valueNS_9allocatorIS3_EEEEEEEEEptB8ue170006Ev, symObjAddr: 0x15AD4, symBinAddr: 0x100019204, symSize: 0x24 }
  - { offsetInCU: 0x2F7F5, offset: 0x3DA44, size: 0x8, addend: 0x0, symName: __ZNKSt3__116reverse_iteratorINS0_IPNS_6futureINS_6vectorI5valueNS_9allocatorIS3_EEEEEEEEEdeB8ue170006Ev, symObjAddr: 0x15AF8, symBinAddr: 0x100019228, symSize: 0x34 }
  - { offsetInCU: 0x2F827, offset: 0x3DA76, size: 0x8, addend: 0x0, symName: __ZNSt3__116reverse_iteratorIPNS_6futureINS_6vectorI5valueNS_9allocatorIS3_EEEEEEEmmB8ue170006Ev, symObjAddr: 0x15B2C, symBinAddr: 0x10001925C, symSize: 0x20 }
  - { offsetInCU: 0x2F84B, offset: 0x3DA9A, size: 0x8, addend: 0x0, symName: __ZNSt3__116reverse_iteratorINS0_IPNS_6futureINS_6vectorI5valueNS_9allocatorIS3_EEEEEEEEEC2B8ue170006ES9_, symObjAddr: 0x15B4C, symBinAddr: 0x10001927C, symSize: 0x2C }
  - { offsetInCU: 0x2F881, offset: 0x3DAD0, size: 0x8, addend: 0x0, symName: __ZNSt3__116reverse_iteratorIPNS_6futureINS_6vectorI5valueNS_9allocatorIS3_EEEEEEEC2B8ue170006ES8_, symObjAddr: 0x15B78, symBinAddr: 0x1000192A8, symSize: 0x28 }
  - { offsetInCU: 0x2F8B7, offset: 0x3DB06, size: 0x8, addend: 0x0, symName: __ZNSt3__114__split_bufferINS_6futureINS_6vectorI5valueNS_9allocatorIS3_EEEEEERNS4_IS7_EEED2Ev, symObjAddr: 0x15BA0, symBinAddr: 0x1000192D0, symSize: 0x8C }
  - { offsetInCU: 0x2F8E2, offset: 0x3DB31, size: 0x8, addend: 0x0, symName: __ZNSt3__114__split_bufferINS_6futureINS_6vectorI5valueNS_9allocatorIS3_EEEEEERNS4_IS7_EEE5clearB8ue170006Ev, symObjAddr: 0x15C2C, symBinAddr: 0x10001935C, symSize: 0x28 }
  - { offsetInCU: 0x2F906, offset: 0x3DB55, size: 0x8, addend: 0x0, symName: __ZNKSt3__114__split_bufferINS_6futureINS_6vectorI5valueNS_9allocatorIS3_EEEEEERNS4_IS7_EEE8capacityB8ue170006Ev, symObjAddr: 0x15C54, symBinAddr: 0x100019384, symSize: 0x40 }
  - { offsetInCU: 0x2F92A, offset: 0x3DB79, size: 0x8, addend: 0x0, symName: __ZNSt3__114__split_bufferINS_6futureINS_6vectorI5valueNS_9allocatorIS3_EEEEEERNS4_IS7_EEE17__destruct_at_endB8ue170006EPS7_, symObjAddr: 0x15C94, symBinAddr: 0x1000193C4, symSize: 0x2C }
  - { offsetInCU: 0x2F95C, offset: 0x3DBAB, size: 0x8, addend: 0x0, symName: __ZNSt3__114__split_bufferINS_6futureINS_6vectorI5valueNS_9allocatorIS3_EEEEEERNS4_IS7_EEE17__destruct_at_endB8ue170006EPS7_NS_17integral_constantIbLb0EEE, symObjAddr: 0x15CC0, symBinAddr: 0x1000193F0, symSize: 0x80 }
  - { offsetInCU: 0x2F99C, offset: 0x3DBEB, size: 0x8, addend: 0x0, symName: __ZNKSt3__114__split_bufferINS_6futureINS_6vectorI5valueNS_9allocatorIS3_EEEEEERNS4_IS7_EEE9__end_capB8ue170006Ev, symObjAddr: 0x15D40, symBinAddr: 0x100019470, symSize: 0x28 }
  - { offsetInCU: 0x2F9C0, offset: 0x3DC0F, size: 0x8, addend: 0x0, symName: __ZNKSt3__117__compressed_pairIPNS_6futureINS_6vectorI5valueNS_9allocatorIS3_EEEEEERNS4_IS7_EEE5firstB8ue170006Ev, symObjAddr: 0x15D68, symBinAddr: 0x100019498, symSize: 0x24 }
  - { offsetInCU: 0x2F9E4, offset: 0x3DC33, size: 0x8, addend: 0x0, symName: __ZNSt3__16vectorINS_6futureINS0_I5valueNS_9allocatorIS2_EEEEEENS3_IS6_EEE11__make_iterB8ue170006EPS6_, symObjAddr: 0x15D8C, symBinAddr: 0x1000194BC, symSize: 0x30 }
  - { offsetInCU: 0x2FA17, offset: 0x3DC66, size: 0x8, addend: 0x0, symName: __ZNSt3__111__wrap_iterIPNS_6futureINS_6vectorI5valueNS_9allocatorIS3_EEEEEEEC1B8ue170006ES8_, symObjAddr: 0x15DBC, symBinAddr: 0x1000194EC, symSize: 0x34 }
  - { offsetInCU: 0x2FA4D, offset: 0x3DC9C, size: 0x8, addend: 0x0, symName: __ZNSt3__111__wrap_iterIPNS_6futureINS_6vectorI5valueNS_9allocatorIS3_EEEEEEEC2B8ue170006ES8_, symObjAddr: 0x15DF0, symBinAddr: 0x100019520, symSize: 0x20 }
  - { offsetInCU: 0x2FB14, offset: 0x3DD63, size: 0x8, addend: 0x0, symName: __ZNSt3__110unique_ptrINS_14__shared_countENS_22__release_shared_countEEC1B8ue170006ILb1EvEEPS1_, symObjAddr: 0x15E10, symBinAddr: 0x100019540, symSize: 0x34 }
  - { offsetInCU: 0x2FB55, offset: 0x3DDA4, size: 0x8, addend: 0x0, symName: __ZNSt3__113__assoc_stateINS_6vectorI5valueNS_9allocatorIS2_EEEEE4moveEv, symObjAddr: 0x15E44, symBinAddr: 0x100019574, symSize: 0x108 }
  - { offsetInCU: 0x2FB8B, offset: 0x3DDDA, size: 0x8, addend: 0x0, symName: __ZNSt3__110unique_ptrINS_14__shared_countENS_22__release_shared_countEED1B8ue170006Ev, symObjAddr: 0x15F4C, symBinAddr: 0x10001967C, symSize: 0x2C }
  - { offsetInCU: 0x2FBB3, offset: 0x3DE02, size: 0x8, addend: 0x0, symName: __ZNSt3__110unique_ptrINS_14__shared_countENS_22__release_shared_countEEC2B8ue170006ILb1EvEEPS1_, symObjAddr: 0x15F78, symBinAddr: 0x1000196A8, symSize: 0x44 }
  - { offsetInCU: 0x2FBF4, offset: 0x3DE43, size: 0x8, addend: 0x0, symName: __ZNSt3__117__compressed_pairIPNS_14__shared_countENS_22__release_shared_countEEC1B8ue170006IRS2_NS_16__value_init_tagEEEOT_OT0_, symObjAddr: 0x15FBC, symBinAddr: 0x1000196EC, symSize: 0x3C }
  - { offsetInCU: 0x2FC4A, offset: 0x3DE99, size: 0x8, addend: 0x0, symName: __ZNSt3__117__compressed_pairIPNS_14__shared_countENS_22__release_shared_countEEC2B8ue170006IRS2_NS_16__value_init_tagEEEOT_OT0_, symObjAddr: 0x15FF8, symBinAddr: 0x100019728, symSize: 0x40 }
  - { offsetInCU: 0x2FCA0, offset: 0x3DEEF, size: 0x8, addend: 0x0, symName: __ZNSt3__122__compressed_pair_elemIPNS_14__shared_countELi0ELb0EEC2B8ue170006IRS2_vEEOT_, symObjAddr: 0x16038, symBinAddr: 0x100019768, symSize: 0x24 }
  - { offsetInCU: 0x2FCE0, offset: 0x3DF2F, size: 0x8, addend: 0x0, symName: __ZNSt3__122__compressed_pair_elemINS_22__release_shared_countELi1ELb1EEC2B8ue170006ENS_16__value_init_tagE, symObjAddr: 0x1605C, symBinAddr: 0x10001978C, symSize: 0x14 }
  - { offsetInCU: 0x2FD13, offset: 0x3DF62, size: 0x8, addend: 0x0, symName: __ZNSt3__110unique_ptrINS_14__shared_countENS_22__release_shared_countEED2B8ue170006Ev, symObjAddr: 0x16070, symBinAddr: 0x1000197A0, symSize: 0x30 }
  - { offsetInCU: 0x2FD3B, offset: 0x3DF8A, size: 0x8, addend: 0x0, symName: __ZNSt3__110unique_ptrINS_14__shared_countENS_22__release_shared_countEE5resetB8ue170006EPS1_, symObjAddr: 0x160A0, symBinAddr: 0x1000197D0, symSize: 0x80 }
  - { offsetInCU: 0x2FD7D, offset: 0x3DFCC, size: 0x8, addend: 0x0, symName: __ZNSt3__117__compressed_pairIPNS_14__shared_countENS_22__release_shared_countEE5firstB8ue170006Ev, symObjAddr: 0x16120, symBinAddr: 0x100019850, symSize: 0x24 }
  - { offsetInCU: 0x2FDA1, offset: 0x3DFF0, size: 0x8, addend: 0x0, symName: __ZNSt3__117__compressed_pairIPNS_14__shared_countENS_22__release_shared_countEE6secondB8ue170006Ev, symObjAddr: 0x16144, symBinAddr: 0x100019874, symSize: 0x24 }
  - { offsetInCU: 0x2FDC5, offset: 0x3E014, size: 0x8, addend: 0x0, symName: __ZNSt3__122__release_shared_countclB8ue170006EPNS_14__shared_countE, symObjAddr: 0x16168, symBinAddr: 0x100019898, symSize: 0x28 }
  - { offsetInCU: 0x2FDF8, offset: 0x3E047, size: 0x8, addend: 0x0, symName: __ZNSt3__122__compressed_pair_elemIPNS_14__shared_countELi0ELb0EE5__getB8ue170006Ev, symObjAddr: 0x16190, symBinAddr: 0x1000198C0, symSize: 0x14 }
  - { offsetInCU: 0x2FE1C, offset: 0x3E06B, size: 0x8, addend: 0x0, symName: __ZNSt3__122__compressed_pair_elemINS_22__release_shared_countELi1ELb1EE5__getB8ue170006Ev, symObjAddr: 0x161A4, symBinAddr: 0x1000198D4, symSize: 0x14 }
  - { offsetInCU: 0x2FE40, offset: 0x3E08F, size: 0x8, addend: 0x0, symName: __ZNSt3__16vectorINS0_I5valueNS_9allocatorIS1_EEEENS2_IS4_EEE9__end_capB8ue170006Ev, symObjAddr: 0x161B8, symBinAddr: 0x1000198E8, symSize: 0x28 }
  - { offsetInCU: 0x2FE64, offset: 0x3E0B3, size: 0x8, addend: 0x0, symName: __ZNSt3__16vectorINS0_I5valueNS_9allocatorIS1_EEEENS2_IS4_EEE22__construct_one_at_endB8ue170006IJS4_EEEvDpOT_, symObjAddr: 0x161E0, symBinAddr: 0x100019910, symSize: 0x90 }
  - { offsetInCU: 0x2FEB1, offset: 0x3E100, size: 0x8, addend: 0x0, symName: __ZNSt3__16vectorINS0_I5valueNS_9allocatorIS1_EEEENS2_IS4_EEE21__push_back_slow_pathIS4_EEvOT_, symObjAddr: 0x16270, symBinAddr: 0x1000199A0, symSize: 0xD8 }
  - { offsetInCU: 0x2FF0E, offset: 0x3E15D, size: 0x8, addend: 0x0, symName: __ZNSt3__117__compressed_pairIPNS_6vectorI5valueNS_9allocatorIS2_EEEENS3_IS5_EEE5firstB8ue170006Ev, symObjAddr: 0x16348, symBinAddr: 0x100019A78, symSize: 0x24 }
  - { offsetInCU: 0x2FF32, offset: 0x3E181, size: 0x8, addend: 0x0, symName: __ZNSt3__122__compressed_pair_elemIPNS_6vectorI5valueNS_9allocatorIS2_EEEELi0ELb0EE5__getB8ue170006Ev, symObjAddr: 0x1636C, symBinAddr: 0x100019A9C, symSize: 0x14 }
  - { offsetInCU: 0x2FF6F, offset: 0x3E1BE, size: 0x8, addend: 0x0, symName: __ZNSt3__16vectorINS0_I5valueNS_9allocatorIS1_EEEENS2_IS4_EEE21_ConstructTransactionC1B8ue170006ERS6_m, symObjAddr: 0x16380, symBinAddr: 0x100019AB0, symSize: 0x3C }
  - { offsetInCU: 0x2FFB5, offset: 0x3E204, size: 0x8, addend: 0x0, symName: __ZNSt3__116allocator_traitsINS_9allocatorINS_6vectorI5valueNS1_IS3_EEEEEEE9constructB8ue170006IS5_JS5_EvEEvRS6_PT_DpOT0_, symObjAddr: 0x163BC, symBinAddr: 0x100019AEC, symSize: 0x34 }
  - { offsetInCU: 0x3000B, offset: 0x3E25A, size: 0x8, addend: 0x0, symName: __ZNSt3__16vectorINS0_I5valueNS_9allocatorIS1_EEEENS2_IS4_EEE21_ConstructTransactionD1B8ue170006Ev, symObjAddr: 0x163F0, symBinAddr: 0x100019B20, symSize: 0x2C }
  - { offsetInCU: 0x30033, offset: 0x3E282, size: 0x8, addend: 0x0, symName: __ZNSt3__16vectorINS0_I5valueNS_9allocatorIS1_EEEENS2_IS4_EEE21_ConstructTransactionC2B8ue170006ERS6_m, symObjAddr: 0x1641C, symBinAddr: 0x100019B4C, symSize: 0x4C }
  - { offsetInCU: 0x30079, offset: 0x3E2C8, size: 0x8, addend: 0x0, symName: __ZNSt3__19allocatorINS_6vectorI5valueNS0_IS2_EEEEE9constructB8ue170006IS4_JS4_EEEvPT_DpOT0_, symObjAddr: 0x16468, symBinAddr: 0x100019B98, symSize: 0x30 }
  - { offsetInCU: 0x300CD, offset: 0x3E31C, size: 0x8, addend: 0x0, symName: __ZNSt3__16vectorINS0_I5valueNS_9allocatorIS1_EEEENS2_IS4_EEE21_ConstructTransactionD2B8ue170006Ev, symObjAddr: 0x16498, symBinAddr: 0x100019BC8, symSize: 0x20 }
  - { offsetInCU: 0x300F5, offset: 0x3E344, size: 0x8, addend: 0x0, symName: __ZNKSt3__16vectorINS0_I5valueNS_9allocatorIS1_EEEENS2_IS4_EEE11__recommendB8ue170006Em, symObjAddr: 0x164B8, symBinAddr: 0x100019BE8, symSize: 0xB4 }
  - { offsetInCU: 0x30149, offset: 0x3E398, size: 0x8, addend: 0x0, symName: __ZNSt3__114__split_bufferINS_6vectorI5valueNS_9allocatorIS2_EEEERNS3_IS5_EEEC1EmmS7_, symObjAddr: 0x1656C, symBinAddr: 0x100019C9C, symSize: 0x44 }
  - { offsetInCU: 0x3019E, offset: 0x3E3ED, size: 0x8, addend: 0x0, symName: __ZNSt3__114__split_bufferINS_6vectorI5valueNS_9allocatorIS2_EEEERNS3_IS5_EEED1Ev, symObjAddr: 0x166C0, symBinAddr: 0x100019DF0, symSize: 0x2C }
  - { offsetInCU: 0x301C9, offset: 0x3E418, size: 0x8, addend: 0x0, symName: __ZNKSt3__16vectorINS0_I5valueNS_9allocatorIS1_EEEENS2_IS4_EEE8max_sizeEv, symObjAddr: 0x166EC, symBinAddr: 0x100019E1C, symSize: 0x60 }
  - { offsetInCU: 0x301F0, offset: 0x3E43F, size: 0x8, addend: 0x0, symName: __ZNKSt3__16vectorINS0_I5valueNS_9allocatorIS1_EEEENS2_IS4_EEE20__throw_length_errorB8ue170006Ev, symObjAddr: 0x1674C, symBinAddr: 0x100019E7C, symSize: 0x1C }
  - { offsetInCU: 0x3021E, offset: 0x3E46D, size: 0x8, addend: 0x0, symName: __ZNSt3__116allocator_traitsINS_9allocatorINS_6vectorI5valueNS1_IS3_EEEEEEE8max_sizeB8ue170006IS6_vEEmRKS6_, symObjAddr: 0x16768, symBinAddr: 0x100019E98, symSize: 0x24 }
  - { offsetInCU: 0x3024B, offset: 0x3E49A, size: 0x8, addend: 0x0, symName: __ZNKSt3__16vectorINS0_I5valueNS_9allocatorIS1_EEEENS2_IS4_EEE7__allocB8ue170006Ev, symObjAddr: 0x1678C, symBinAddr: 0x100019EBC, symSize: 0x28 }
  - { offsetInCU: 0x3026F, offset: 0x3E4BE, size: 0x8, addend: 0x0, symName: __ZNKSt3__19allocatorINS_6vectorI5valueNS0_IS2_EEEEE8max_sizeB8ue170006Ev, symObjAddr: 0x167B4, symBinAddr: 0x100019EE4, symSize: 0x18 }
  - { offsetInCU: 0x30293, offset: 0x3E4E2, size: 0x8, addend: 0x0, symName: __ZNKSt3__117__compressed_pairIPNS_6vectorI5valueNS_9allocatorIS2_EEEENS3_IS5_EEE6secondB8ue170006Ev, symObjAddr: 0x167CC, symBinAddr: 0x100019EFC, symSize: 0x24 }
  - { offsetInCU: 0x302B7, offset: 0x3E506, size: 0x8, addend: 0x0, symName: __ZNKSt3__122__compressed_pair_elemINS_9allocatorINS_6vectorI5valueNS1_IS3_EEEEEELi1ELb1EE5__getB8ue170006Ev, symObjAddr: 0x167F0, symBinAddr: 0x100019F20, symSize: 0x14 }
  - { offsetInCU: 0x302DB, offset: 0x3E52A, size: 0x8, addend: 0x0, symName: __ZNSt3__114__split_bufferINS_6vectorI5valueNS_9allocatorIS2_EEEERNS3_IS5_EEEC2EmmS7_, symObjAddr: 0x16804, symBinAddr: 0x100019F34, symSize: 0xE0 }
  - { offsetInCU: 0x3034D, offset: 0x3E59C, size: 0x8, addend: 0x0, symName: __ZNSt3__117__compressed_pairIPNS_6vectorI5valueNS_9allocatorIS2_EEEERNS3_IS5_EEEC1B8ue170006IDnS8_EEOT_OT0_, symObjAddr: 0x168E4, symBinAddr: 0x10001A014, symSize: 0x3C }
  - { offsetInCU: 0x303A3, offset: 0x3E5F2, size: 0x8, addend: 0x0, symName: __ZNSt3__114__split_bufferINS_6vectorI5valueNS_9allocatorIS2_EEEERNS3_IS5_EEE7__allocB8ue170006Ev, symObjAddr: 0x16960, symBinAddr: 0x10001A090, symSize: 0x28 }
  - { offsetInCU: 0x303C7, offset: 0x3E616, size: 0x8, addend: 0x0, symName: __ZNSt3__114__split_bufferINS_6vectorI5valueNS_9allocatorIS2_EEEERNS3_IS5_EEE9__end_capB8ue170006Ev, symObjAddr: 0x16988, symBinAddr: 0x10001A0B8, symSize: 0x28 }
  - { offsetInCU: 0x303EB, offset: 0x3E63A, size: 0x8, addend: 0x0, symName: __ZNSt3__117__compressed_pairIPNS_6vectorI5valueNS_9allocatorIS2_EEEERNS3_IS5_EEEC2B8ue170006IDnS8_EEOT_OT0_, symObjAddr: 0x169B0, symBinAddr: 0x10001A0E0, symSize: 0x48 }
  - { offsetInCU: 0x30441, offset: 0x3E690, size: 0x8, addend: 0x0, symName: __ZNSt3__122__compressed_pair_elemIRNS_9allocatorINS_6vectorI5valueNS1_IS3_EEEEEELi1ELb0EEC2B8ue170006IS7_vEEOT_, symObjAddr: 0x169F8, symBinAddr: 0x10001A128, symSize: 0x20 }
  - { offsetInCU: 0x30481, offset: 0x3E6D0, size: 0x8, addend: 0x0, symName: __ZNSt3__19allocatorINS_6vectorI5valueNS0_IS2_EEEEE8allocateB8ue170006Em, symObjAddr: 0x16A18, symBinAddr: 0x10001A148, symSize: 0x5C }
  - { offsetInCU: 0x304B3, offset: 0x3E702, size: 0x8, addend: 0x0, symName: __ZNSt3__117__compressed_pairIPNS_6vectorI5valueNS_9allocatorIS2_EEEERNS3_IS5_EEE6secondB8ue170006Ev, symObjAddr: 0x16A74, symBinAddr: 0x10001A1A4, symSize: 0x28 }
  - { offsetInCU: 0x304D7, offset: 0x3E726, size: 0x8, addend: 0x0, symName: __ZNSt3__122__compressed_pair_elemIRNS_9allocatorINS_6vectorI5valueNS1_IS3_EEEEEELi1ELb0EE5__getB8ue170006Ev, symObjAddr: 0x16A9C, symBinAddr: 0x10001A1CC, symSize: 0x18 }
  - { offsetInCU: 0x304FB, offset: 0x3E74A, size: 0x8, addend: 0x0, symName: __ZNSt3__117__compressed_pairIPNS_6vectorI5valueNS_9allocatorIS2_EEEERNS3_IS5_EEE5firstB8ue170006Ev, symObjAddr: 0x16AB4, symBinAddr: 0x10001A1E4, symSize: 0x24 }
  - { offsetInCU: 0x3051F, offset: 0x3E76E, size: 0x8, addend: 0x0, symName: __ZNSt3__116reverse_iteratorIPNS_6vectorI5valueNS_9allocatorIS2_EEEEEC1B8ue170006ES6_, symObjAddr: 0x16C04, symBinAddr: 0x10001A334, symSize: 0x34 }
  - { offsetInCU: 0x30555, offset: 0x3E7A4, size: 0x8, addend: 0x0, symName: __ZNKSt3__116reverse_iteratorIPNS_6vectorI5valueNS_9allocatorIS2_EEEEE4baseB8ue170006Ev, symObjAddr: 0x16C38, symBinAddr: 0x10001A368, symSize: 0x18 }
  - { offsetInCU: 0x30579, offset: 0x3E7C8, size: 0x8, addend: 0x0, symName: __ZNKSt3__16vectorINS0_I5valueNS_9allocatorIS1_EEEENS2_IS4_EEE14__annotate_newB8ue170006Em, symObjAddr: 0x16C8C, symBinAddr: 0x10001A3BC, symSize: 0xC8 }
  - { offsetInCU: 0x305AC, offset: 0x3E7FB, size: 0x8, addend: 0x0, symName: __ZNSt3__129_AllocatorDestroyRangeReverseINS_9allocatorINS_6vectorI5valueNS1_IS3_EEEEEENS_16reverse_iteratorIPS5_EEEC1B8ue170006ERS6_RS9_SC_, symObjAddr: 0x16DA0, symBinAddr: 0x10001A4D0, symSize: 0x44 }
  - { offsetInCU: 0x30601, offset: 0x3E850, size: 0x8, addend: 0x0, symName: __ZNKSt3__116reverse_iteratorIPNS_6vectorI5valueNS_9allocatorIS2_EEEEEdeB8ue170006Ev, symObjAddr: 0x16E50, symBinAddr: 0x10001A580, symSize: 0x28 }
  - { offsetInCU: 0x30633, offset: 0x3E882, size: 0x8, addend: 0x0, symName: __ZNSt3__116reverse_iteratorIPNS_6vectorI5valueNS_9allocatorIS2_EEEEEppB8ue170006Ev, symObjAddr: 0x16E78, symBinAddr: 0x10001A5A8, symSize: 0x20 }
  - { offsetInCU: 0x30657, offset: 0x3E8A6, size: 0x8, addend: 0x0, symName: __ZNSt3__128__exception_guard_exceptionsINS_29_AllocatorDestroyRangeReverseINS_9allocatorINS_6vectorI5valueNS2_IS4_EEEEEENS_16reverse_iteratorIPS6_EEEEE10__completeB8ue170006Ev, symObjAddr: 0x16E98, symBinAddr: 0x10001A5C8, symSize: 0x1C }
  - { offsetInCU: 0x3067B, offset: 0x3E8CA, size: 0x8, addend: 0x0, symName: __ZNSt3__128__exception_guard_exceptionsINS_29_AllocatorDestroyRangeReverseINS_9allocatorINS_6vectorI5valueNS2_IS4_EEEEEENS_16reverse_iteratorIPS6_EEEEED1B8ue170006Ev, symObjAddr: 0x16EB4, symBinAddr: 0x10001A5E4, symSize: 0x2C }
  - { offsetInCU: 0x306A3, offset: 0x3E8F2, size: 0x8, addend: 0x0, symName: __ZNSt3__128__exception_guard_exceptionsINS_29_AllocatorDestroyRangeReverseINS_9allocatorINS_6vectorI5valueNS2_IS4_EEEEEENS_16reverse_iteratorIPS6_EEEEEC1B8ue170006ESB_, symObjAddr: 0x16EE0, symBinAddr: 0x10001A610, symSize: 0x34 }
  - { offsetInCU: 0x306DA, offset: 0x3E929, size: 0x8, addend: 0x0, symName: __ZNSt3__128__exception_guard_exceptionsINS_29_AllocatorDestroyRangeReverseINS_9allocatorINS_6vectorI5valueNS2_IS4_EEEEEENS_16reverse_iteratorIPS6_EEEEEC2B8ue170006ESB_, symObjAddr: 0x16F14, symBinAddr: 0x10001A644, symSize: 0x30 }
  - { offsetInCU: 0x30711, offset: 0x3E960, size: 0x8, addend: 0x0, symName: __ZNSt3__129_AllocatorDestroyRangeReverseINS_9allocatorINS_6vectorI5valueNS1_IS3_EEEEEENS_16reverse_iteratorIPS5_EEEC2B8ue170006ERS6_RS9_SC_, symObjAddr: 0x16F44, symBinAddr: 0x10001A674, symSize: 0x38 }
  - { offsetInCU: 0x3076B, offset: 0x3E9BA, size: 0x8, addend: 0x0, symName: __ZNSt3__119__to_address_helperINS_16reverse_iteratorIPNS_6vectorI5valueNS_9allocatorIS3_EEEEEEvE6__callB8ue170006ERKS8_, symObjAddr: 0x16F7C, symBinAddr: 0x10001A6AC, symSize: 0x38 }
  - { offsetInCU: 0x3078D, offset: 0x3E9DC, size: 0x8, addend: 0x0, symName: __ZNKSt3__116reverse_iteratorIPNS_6vectorI5valueNS_9allocatorIS2_EEEEEptB8ue170006Ev, symObjAddr: 0x16FB4, symBinAddr: 0x10001A6E4, symSize: 0x24 }
  - { offsetInCU: 0x307B1, offset: 0x3EA00, size: 0x8, addend: 0x0, symName: __ZNSt3__128__exception_guard_exceptionsINS_29_AllocatorDestroyRangeReverseINS_9allocatorINS_6vectorI5valueNS2_IS4_EEEEEENS_16reverse_iteratorIPS6_EEEEED2B8ue170006Ev, symObjAddr: 0x16FD8, symBinAddr: 0x10001A708, symSize: 0x50 }
  - { offsetInCU: 0x307D9, offset: 0x3EA28, size: 0x8, addend: 0x0, symName: __ZNKSt3__129_AllocatorDestroyRangeReverseINS_9allocatorINS_6vectorI5valueNS1_IS3_EEEEEENS_16reverse_iteratorIPS5_EEEclB8ue170006Ev, symObjAddr: 0x17028, symBinAddr: 0x10001A758, symSize: 0xB4 }
  - { offsetInCU: 0x307FE, offset: 0x3EA4D, size: 0x8, addend: 0x0, symName: __ZNSt3__116reverse_iteratorINS0_IPNS_6vectorI5valueNS_9allocatorIS2_EEEEEEEC1B8ue170006ES7_, symObjAddr: 0x1714C, symBinAddr: 0x10001A87C, symSize: 0x3C }
  - { offsetInCU: 0x30834, offset: 0x3EA83, size: 0x8, addend: 0x0, symName: __ZNSt3__116reverse_iteratorINS0_IPNS_6vectorI5valueNS_9allocatorIS2_EEEEEEEppB8ue170006Ev, symObjAddr: 0x1720C, symBinAddr: 0x10001A93C, symSize: 0x30 }
  - { offsetInCU: 0x30858, offset: 0x3EAA7, size: 0x8, addend: 0x0, symName: __ZNKSt3__116reverse_iteratorINS0_IPNS_6vectorI5valueNS_9allocatorIS2_EEEEEEE4baseB8ue170006Ev, symObjAddr: 0x1723C, symBinAddr: 0x10001A96C, symSize: 0x24 }
  - { offsetInCU: 0x30881, offset: 0x3EAD0, size: 0x8, addend: 0x0, symName: __ZNSt3__119__to_address_helperINS_16reverse_iteratorINS1_IPNS_6vectorI5valueNS_9allocatorIS3_EEEEEEEEvE6__callB8ue170006ERKS9_, symObjAddr: 0x17260, symBinAddr: 0x10001A990, symSize: 0x38 }
  - { offsetInCU: 0x308A3, offset: 0x3EAF2, size: 0x8, addend: 0x0, symName: __ZNKSt3__116reverse_iteratorINS0_IPNS_6vectorI5valueNS_9allocatorIS2_EEEEEEEptB8ue170006Ev, symObjAddr: 0x17298, symBinAddr: 0x10001A9C8, symSize: 0x24 }
  - { offsetInCU: 0x308C7, offset: 0x3EB16, size: 0x8, addend: 0x0, symName: __ZNKSt3__116reverse_iteratorINS0_IPNS_6vectorI5valueNS_9allocatorIS2_EEEEEEEdeB8ue170006Ev, symObjAddr: 0x172BC, symBinAddr: 0x10001A9EC, symSize: 0x34 }
  - { offsetInCU: 0x308F9, offset: 0x3EB48, size: 0x8, addend: 0x0, symName: __ZNSt3__116reverse_iteratorIPNS_6vectorI5valueNS_9allocatorIS2_EEEEEmmB8ue170006Ev, symObjAddr: 0x172F0, symBinAddr: 0x10001AA20, symSize: 0x20 }
  - { offsetInCU: 0x3091D, offset: 0x3EB6C, size: 0x8, addend: 0x0, symName: __ZNSt3__116reverse_iteratorINS0_IPNS_6vectorI5valueNS_9allocatorIS2_EEEEEEEC2B8ue170006ES7_, symObjAddr: 0x17310, symBinAddr: 0x10001AA40, symSize: 0x2C }
  - { offsetInCU: 0x30953, offset: 0x3EBA2, size: 0x8, addend: 0x0, symName: __ZNSt3__116reverse_iteratorIPNS_6vectorI5valueNS_9allocatorIS2_EEEEEC2B8ue170006ES6_, symObjAddr: 0x1733C, symBinAddr: 0x10001AA6C, symSize: 0x28 }
  - { offsetInCU: 0x30989, offset: 0x3EBD8, size: 0x8, addend: 0x0, symName: __ZNSt3__114__split_bufferINS_6vectorI5valueNS_9allocatorIS2_EEEERNS3_IS5_EEED2Ev, symObjAddr: 0x17364, symBinAddr: 0x10001AA94, symSize: 0x8C }
  - { offsetInCU: 0x309B4, offset: 0x3EC03, size: 0x8, addend: 0x0, symName: __ZNSt3__114__split_bufferINS_6vectorI5valueNS_9allocatorIS2_EEEERNS3_IS5_EEE5clearB8ue170006Ev, symObjAddr: 0x173F0, symBinAddr: 0x10001AB20, symSize: 0x28 }
  - { offsetInCU: 0x309D8, offset: 0x3EC27, size: 0x8, addend: 0x0, symName: __ZNKSt3__114__split_bufferINS_6vectorI5valueNS_9allocatorIS2_EEEERNS3_IS5_EEE8capacityB8ue170006Ev, symObjAddr: 0x17418, symBinAddr: 0x10001AB48, symSize: 0x40 }
  - { offsetInCU: 0x309FC, offset: 0x3EC4B, size: 0x8, addend: 0x0, symName: __ZNSt3__114__split_bufferINS_6vectorI5valueNS_9allocatorIS2_EEEERNS3_IS5_EEE17__destruct_at_endB8ue170006EPS5_, symObjAddr: 0x17458, symBinAddr: 0x10001AB88, symSize: 0x2C }
  - { offsetInCU: 0x30A2E, offset: 0x3EC7D, size: 0x8, addend: 0x0, symName: __ZNSt3__114__split_bufferINS_6vectorI5valueNS_9allocatorIS2_EEEERNS3_IS5_EEE17__destruct_at_endB8ue170006EPS5_NS_17integral_constantIbLb0EEE, symObjAddr: 0x17484, symBinAddr: 0x10001ABB4, symSize: 0x80 }
  - { offsetInCU: 0x30A6E, offset: 0x3ECBD, size: 0x8, addend: 0x0, symName: __ZNKSt3__114__split_bufferINS_6vectorI5valueNS_9allocatorIS2_EEEERNS3_IS5_EEE9__end_capB8ue170006Ev, symObjAddr: 0x17504, symBinAddr: 0x10001AC34, symSize: 0x28 }
  - { offsetInCU: 0x30A92, offset: 0x3ECE1, size: 0x8, addend: 0x0, symName: __ZNKSt3__117__compressed_pairIPNS_6vectorI5valueNS_9allocatorIS2_EEEERNS3_IS5_EEE5firstB8ue170006Ev, symObjAddr: 0x1752C, symBinAddr: 0x10001AC5C, symSize: 0x24 }
  - { offsetInCU: 0x30AB6, offset: 0x3ED05, size: 0x8, addend: 0x0, symName: __ZNSt3__16vectorINS0_I5valueNS_9allocatorIS1_EEEENS2_IS4_EEE11__make_iterB8ue170006EPS4_, symObjAddr: 0x17550, symBinAddr: 0x10001AC80, symSize: 0x30 }
  - { offsetInCU: 0x30AE9, offset: 0x3ED38, size: 0x8, addend: 0x0, symName: __ZNSt3__111__wrap_iterIPNS_6vectorI5valueNS_9allocatorIS2_EEEEEC1B8ue170006ES6_, symObjAddr: 0x17580, symBinAddr: 0x10001ACB0, symSize: 0x34 }
  - { offsetInCU: 0x30B1F, offset: 0x3ED6E, size: 0x8, addend: 0x0, symName: __ZNSt3__111__wrap_iterIPNS_6vectorI5valueNS_9allocatorIS2_EEEEEC2B8ue170006ES6_, symObjAddr: 0x175B4, symBinAddr: 0x10001ACE4, symSize: 0x20 }
  - { offsetInCU: 0x30B5F, offset: 0x3EDAE, size: 0x8, addend: 0x0, symName: '__ZZN5layer13forward_layerER11value_arrayENK3$_1clERNSt3__16vectorI5valueNS3_9allocatorIS5_EEEE', symObjAddr: 0x17608, symBinAddr: 0x10001AD38, symSize: 0x8C }
  - { offsetInCU: 0x30BE6, offset: 0x3EE35, size: 0x8, addend: 0x0, symName: __ZNKSt3__111__wrap_iterIPNS_6vectorI5valueNS_9allocatorIS2_EEEEEdeB8ue170006Ev, symObjAddr: 0x17694, symBinAddr: 0x10001ADC4, symSize: 0x18 }
  - { offsetInCU: 0x30C0A, offset: 0x3EE59, size: 0x8, addend: 0x0, symName: __ZNSt3__111__wrap_iterIPNS_6vectorI5valueNS_9allocatorIS2_EEEEEppB8ue170006Ev, symObjAddr: 0x176AC, symBinAddr: 0x10001ADDC, symSize: 0x20 }
  - { offsetInCU: 0x30C2E, offset: 0x3EE7D, size: 0x8, addend: 0x0, symName: __ZNKSt3__111__wrap_iterIPNS_6vectorI5valueNS_9allocatorIS2_EEEEE4baseB8ue170006Ev, symObjAddr: 0x17714, symBinAddr: 0x10001AE44, symSize: 0x18 }
  - { offsetInCU: 0x30C52, offset: 0x3EEA1, size: 0x8, addend: 0x0, symName: __ZNSt3__16vectorI5valueNS_9allocatorIS1_EEE5beginB8ue170006Ev, symObjAddr: 0x1772C, symBinAddr: 0x10001AE5C, symSize: 0x30 }
  - { offsetInCU: 0x30C79, offset: 0x3EEC8, size: 0x8, addend: 0x0, symName: __ZNSt3__16vectorI5valueNS_9allocatorIS1_EEE3endB8ue170006Ev, symObjAddr: 0x1775C, symBinAddr: 0x10001AE8C, symSize: 0x30 }
  - { offsetInCU: 0x30CA0, offset: 0x3EEEF, size: 0x8, addend: 0x0, symName: __ZNKSt3__111__wrap_iterIP5valueEdeB8ue170006Ev, symObjAddr: 0x177C0, symBinAddr: 0x10001AEF0, symSize: 0x18 }
  - { offsetInCU: 0x30CC4, offset: 0x3EF13, size: 0x8, addend: 0x0, symName: __ZNSt3__111__wrap_iterIP5valueEppB8ue170006Ev, symObjAddr: 0x177D8, symBinAddr: 0x10001AF08, symSize: 0x20 }
  - { offsetInCU: 0x30CE8, offset: 0x3EF37, size: 0x8, addend: 0x0, symName: __ZNSt3__16vectorI5valueNS_9allocatorIS1_EEE11__make_iterB8ue170006EPS1_, symObjAddr: 0x177F8, symBinAddr: 0x10001AF28, symSize: 0x30 }
  - { offsetInCU: 0x30D1B, offset: 0x3EF6A, size: 0x8, addend: 0x0, symName: __ZNSt3__111__wrap_iterIP5valueEC1B8ue170006ES2_, symObjAddr: 0x17828, symBinAddr: 0x10001AF58, symSize: 0x34 }
  - { offsetInCU: 0x30D51, offset: 0x3EFA0, size: 0x8, addend: 0x0, symName: __ZNSt3__111__wrap_iterIP5valueEC2B8ue170006ES2_, symObjAddr: 0x1785C, symBinAddr: 0x10001AF8C, symSize: 0x20 }
  - { offsetInCU: 0x30D87, offset: 0x3EFD6, size: 0x8, addend: 0x0, symName: __ZNKSt3__111__wrap_iterIP5valueE4baseB8ue170006Ev, symObjAddr: 0x178C4, symBinAddr: 0x10001AFF4, symSize: 0x18 }
  - { offsetInCU: 0x30DB5, offset: 0x3F004, size: 0x8, addend: 0x0, symName: '__ZZN5layer20normal_forward_layerER11value_arrayENK3$_2clER6neuron', symObjAddr: 0x178DC, symBinAddr: 0x10001B00C, symSize: 0x5C }
  - { offsetInCU: 0x30DEB, offset: 0x3F03A, size: 0x8, addend: 0x0, symName: __ZNSt3__16vectorI5layerNS_9allocatorIS1_EEEC2B8ue170006Ev, symObjAddr: 0x17938, symBinAddr: 0x10001B068, symSize: 0x4C }
  - { offsetInCU: 0x30E13, offset: 0x3F062, size: 0x8, addend: 0x0, symName: __ZNSt3__117__compressed_pairIP5layerNS_9allocatorIS1_EEEC1B8ue170006IDnNS_18__default_init_tagEEEOT_OT0_, symObjAddr: 0x17984, symBinAddr: 0x10001B0B4, symSize: 0x3C }
  - { offsetInCU: 0x30E69, offset: 0x3F0B8, size: 0x8, addend: 0x0, symName: __ZNSt3__117__compressed_pairIP5layerNS_9allocatorIS1_EEEC2B8ue170006IDnNS_18__default_init_tagEEEOT_OT0_, symObjAddr: 0x179C0, symBinAddr: 0x10001B0F0, symSize: 0x40 }
  - { offsetInCU: 0x30EBF, offset: 0x3F10E, size: 0x8, addend: 0x0, symName: __ZNSt3__122__compressed_pair_elemIP5layerLi0ELb0EEC2B8ue170006IDnvEEOT_, symObjAddr: 0x17A00, symBinAddr: 0x10001B130, symSize: 0x1C }
  - { offsetInCU: 0x30EFF, offset: 0x3F14E, size: 0x8, addend: 0x0, symName: __ZNSt3__122__compressed_pair_elemINS_9allocatorI5layerEELi1ELb1EEC2B8ue170006ENS_18__default_init_tagE, symObjAddr: 0x17A1C, symBinAddr: 0x10001B14C, symSize: 0x2C }
  - { offsetInCU: 0x30F32, offset: 0x3F181, size: 0x8, addend: 0x0, symName: __ZNSt3__19allocatorI5layerEC2B8ue170006Ev, symObjAddr: 0x17A48, symBinAddr: 0x10001B178, symSize: 0x2C }
  - { offsetInCU: 0x30F5A, offset: 0x3F1A9, size: 0x8, addend: 0x0, symName: __ZNSt3__116__non_trivial_ifILb1ENS_9allocatorI5layerEEEC2B8ue170006Ev, symObjAddr: 0x17A74, symBinAddr: 0x10001B1A4, symSize: 0x14 }
  - { offsetInCU: 0x6650, offset: 0x45D72, size: 0x8, addend: 0x0, symName: __ZNSt3__124__put_character_sequenceB8ue170006IcNS_11char_traitsIcEEEERNS_13basic_ostreamIT_T0_EES7_PKS4_m, symObjAddr: 0x8010, symBinAddr: 0x100022818, symSize: 0x1EC }
  - { offsetInCU: 0x7DA4, offset: 0x474C6, size: 0x8, addend: 0x0, symName: __ZNSt3__13refB8ue170006I5valueEENS_17reference_wrapperIT_EERS3_, symObjAddr: 0x37C, symBinAddr: 0x10001B59C, symSize: 0x2C }
  - { offsetInCU: 0x81D4, offset: 0x478F6, size: 0x8, addend: 0x0, symName: '__ZNSt3__18for_eachB8ue170006INS_11__wrap_iterIPNS_17reference_wrapperI5valueEEEEZNS3_19calculate_gradientsEvE3$_0EET0_T_S9_S8_', symObjAddr: 0xE68, symBinAddr: 0x10001C05C, symSize: 0x78 }
  - { offsetInCU: 0x822F, offset: 0x47951, size: 0x8, addend: 0x0, symName: '__ZNSt3__18for_eachB8ue170006INS_11__wrap_iterIPNS_17reference_wrapperI5valueEEEEZNS3_5learnEdE3$_1EET0_T_S9_S8_', symObjAddr: 0x10E8, symBinAddr: 0x10001C2DC, symSize: 0x84 }
  - { offsetInCU: 0x828B, offset: 0x479AD, size: 0x8, addend: 0x0, symName: __ZNSt3__1lsB8ue170006INS_11char_traitsIcEEEERNS_13basic_ostreamIcT_EES6_PKc, symObjAddr: 0x11D8, symBinAddr: 0x10001C3CC, symSize: 0x48 }
  - { offsetInCU: 0x82D2, offset: 0x479F4, size: 0x8, addend: 0x0, symName: __ZNSt3__14endlB8ue170006IcNS_11char_traitsIcEEEERNS_13basic_ostreamIT_T0_EES7_, symObjAddr: 0x124C, symBinAddr: 0x10001C414, symSize: 0x58 }
  - { offsetInCU: 0x8313, offset: 0x47A35, size: 0x8, addend: 0x0, symName: __ZNSt3__118__constexpr_strlenB8ue170006EPKc, symObjAddr: 0x1AB8, symBinAddr: 0x10001C624, symSize: 0x24 }
  - { offsetInCU: 0x8340, offset: 0x47A62, size: 0x8, addend: 0x0, symName: __ZNSt3__1neB8ue170006ERKNS_16__deque_iteratorINS_17reference_wrapperI5valueEEPS3_RS3_PS4_lLl512EEES9_, symObjAddr: 0x204C, symBinAddr: 0x10001CBB8, symSize: 0x34 }
  - { offsetInCU: 0x837E, offset: 0x47AA0, size: 0x8, addend: 0x0, symName: __ZNSt3__1eqB8ue170006ERKNS_16__deque_iteratorINS_17reference_wrapperI5valueEEPS3_RS3_PS4_lLl512EEES9_, symObjAddr: 0x236C, symBinAddr: 0x10001CEC4, symSize: 0x30 }
  - { offsetInCU: 0x83BB, offset: 0x47ADD, size: 0x8, addend: 0x0, symName: __ZNSt3__112__to_addressB8ue170006IPNS_17reference_wrapperI5valueEEEEPT_S6_, symObjAddr: 0x2D4C, symBinAddr: 0x10001D890, symSize: 0x14 }
  - { offsetInCU: 0x8795, offset: 0x47EB7, size: 0x8, addend: 0x0, symName: __ZNSt3__14swapB8ue170006IPPNS_17reference_wrapperI5valueEEEENS_9enable_ifIXaasr21is_move_constructibleIT_EE5valuesr18is_move_assignableIS7_EE5valueEvE4typeERS7_SA_, symObjAddr: 0x41E4, symBinAddr: 0x10001ECFC, symSize: 0x3C }
  - { offsetInCU: 0x87E6, offset: 0x47F08, size: 0x8, addend: 0x0, symName: __ZNSt3__14moveB8ue170006IPPNS_17reference_wrapperI5valueEES5_EET0_T_S7_S6_, symObjAddr: 0x42C8, symBinAddr: 0x10001EDE0, symSize: 0x40 }
  - { offsetInCU: 0x8841, offset: 0x47F63, size: 0x8, addend: 0x0, symName: __ZNSt3__16__moveB8ue170006INS_17_ClassicAlgPolicyEPPNS_17reference_wrapperI5valueEES6_S6_EENS_4pairIT0_T2_EES8_T1_S9_, symObjAddr: 0x43D0, symBinAddr: 0x10001EEE8, symSize: 0x44 }
  - { offsetInCU: 0x88AE, offset: 0x47FD0, size: 0x8, addend: 0x0, symName: __ZNSt3__123__dispatch_copy_or_moveB8ue170006INS_17_ClassicAlgPolicyENS_11__move_loopIS1_EENS_14__move_trivialEPPNS_17reference_wrapperI5valueEES9_S9_EENS_4pairIT2_T4_EESB_T3_SC_, symObjAddr: 0x4414, symBinAddr: 0x10001EF2C, symSize: 0x44 }
  - { offsetInCU: 0x892D, offset: 0x4804F, size: 0x8, addend: 0x0, symName: __ZNSt3__121__unwrap_and_dispatchB8ue170006INS_10__overloadINS_11__move_loopINS_17_ClassicAlgPolicyEEENS_14__move_trivialEEEPPNS_17reference_wrapperI5valueEESB_SB_Li0EEENS_4pairIT0_T2_EESD_T1_SE_, symObjAddr: 0x4458, symBinAddr: 0x10001EF70, symSize: 0xB4 }
  - { offsetInCU: 0x89BD, offset: 0x480DF, size: 0x8, addend: 0x0, symName: __ZNSt3__114__unwrap_rangeB8ue170006IPPNS_17reference_wrapperI5valueEES5_EENS_4pairIT0_S7_EET_S9_, symObjAddr: 0x450C, symBinAddr: 0x10001F024, symSize: 0x60 }
  - { offsetInCU: 0x8B86, offset: 0x482A8, size: 0x8, addend: 0x0, symName: __ZNSt3__113__unwrap_iterB8ue170006IPPNS_17reference_wrapperI5valueEENS_18__unwrap_iter_implIS5_Lb1EEELi0EEEDTclsrT0_8__unwrapclsr3stdE7declvalIT_EEEES9_, symObjAddr: 0x45B4, symBinAddr: 0x10001F0CC, symSize: 0x24 }
  - { offsetInCU: 0x8BCC, offset: 0x482EE, size: 0x8, addend: 0x0, symName: __ZNSt3__19make_pairB8ue170006IPPNS_17reference_wrapperI5valueEES5_EENS_4pairINS_18__unwrap_ref_decayIT_E4typeENS7_IT0_E4typeEEEOS8_OSB_, symObjAddr: 0x45D8, symBinAddr: 0x10001F0F0, symSize: 0x38 }
  - { offsetInCU: 0x8C1C, offset: 0x4833E, size: 0x8, addend: 0x0, symName: __ZNSt3__114__rewrap_rangeB8ue170006IPPNS_17reference_wrapperI5valueEES5_EET_S6_T0_, symObjAddr: 0x4610, symBinAddr: 0x10001F128, symSize: 0x2C }
  - { offsetInCU: 0x8C69, offset: 0x4838B, size: 0x8, addend: 0x0, symName: __ZNSt3__113__rewrap_iterB8ue170006IPPNS_17reference_wrapperI5valueEES5_NS_18__unwrap_iter_implIS5_Lb1EEEEET_S8_T0_, symObjAddr: 0x463C, symBinAddr: 0x10001F154, symSize: 0x3C }
  - { offsetInCU: 0x8CBF, offset: 0x483E1, size: 0x8, addend: 0x0, symName: __ZNSt3__119__copy_trivial_implB8ue170006IPNS_17reference_wrapperI5valueEES4_EENS_4pairIPT_PT0_EES7_S7_S9_, symObjAddr: 0x4678, symBinAddr: 0x10001F190, symSize: 0x80 }
  - { offsetInCU: 0x8D28, offset: 0x4844A, size: 0x8, addend: 0x0, symName: __ZNSt3__119__constexpr_memmoveB8ue170006IPNS_17reference_wrapperI5valueEES4_Li0EEEPT_S6_PT0_NS_15__element_countE, symObjAddr: 0x46F8, symBinAddr: 0x10001F210, symSize: 0x64 }
  - { offsetInCU: 0x8D98, offset: 0x484BA, size: 0x8, addend: 0x0, symName: __ZNSt3__19make_pairB8ue170006IRPPNS_17reference_wrapperI5valueEES5_EENS_4pairINS_18__unwrap_ref_decayIT_E4typeENS8_IT0_E4typeEEEOS9_OSC_, symObjAddr: 0x475C, symBinAddr: 0x10001F274, symSize: 0x38 }
  - { offsetInCU: 0x8E3B, offset: 0x4855D, size: 0x8, addend: 0x0, symName: __ZNSt3__18distanceB8ue170006INS_13move_iteratorIPPNS_17reference_wrapperI5valueEEEEEENS_15iterator_traitsIT_E15difference_typeES9_S9_, symObjAddr: 0x49C4, symBinAddr: 0x10001F4DC, symSize: 0x3C }
  - { offsetInCU: 0x8E7F, offset: 0x485A1, size: 0x8, addend: 0x0, symName: __ZNSt3__110__distanceB8ue170006INS_13move_iteratorIPPNS_17reference_wrapperI5valueEEEEEENS_15iterator_traitsIT_E15difference_typeES9_S9_NS_26random_access_iterator_tagE, symObjAddr: 0x4BC8, symBinAddr: 0x10001F6E0, symSize: 0x30 }
  - { offsetInCU: 0x8ECE, offset: 0x485F0, size: 0x8, addend: 0x0, symName: __ZNSt3__1miB8ue170006IPPNS_17reference_wrapperI5valueEES5_EEDTmicldtfp_4baseEcldtfp0_4baseEERKNS_13move_iteratorIT_EERKNS7_IT0_EE, symObjAddr: 0x4BF8, symBinAddr: 0x10001F710, symSize: 0x48 }
  - { offsetInCU: 0x8F1E, offset: 0x48640, size: 0x8, addend: 0x0, symName: __ZNSt3__113move_backwardB8ue170006IPPNS_17reference_wrapperI5valueEES5_EET0_T_S7_S6_, symObjAddr: 0x4E14, symBinAddr: 0x10001F848, symSize: 0x40 }
  - { offsetInCU: 0x8F79, offset: 0x4869B, size: 0x8, addend: 0x0, symName: __ZNSt3__115__move_backwardB8ue170006INS_17_ClassicAlgPolicyEPPNS_17reference_wrapperI5valueEES6_S6_EENS_4pairIT0_T2_EES8_T1_S9_, symObjAddr: 0x4E54, symBinAddr: 0x10001F888, symSize: 0x44 }
  - { offsetInCU: 0x8FE6, offset: 0x48708, size: 0x8, addend: 0x0, symName: __ZNSt3__123__dispatch_copy_or_moveB8ue170006INS_17_ClassicAlgPolicyENS_20__move_backward_loopIS1_EENS_23__move_backward_trivialEPPNS_17reference_wrapperI5valueEES9_S9_EENS_4pairIT2_T4_EESB_T3_SC_, symObjAddr: 0x4E98, symBinAddr: 0x10001F8CC, symSize: 0x44 }
  - { offsetInCU: 0x9065, offset: 0x48787, size: 0x8, addend: 0x0, symName: __ZNSt3__121__unwrap_and_dispatchB8ue170006INS_10__overloadINS_20__move_backward_loopINS_17_ClassicAlgPolicyEEENS_23__move_backward_trivialEEEPPNS_17reference_wrapperI5valueEESB_SB_Li0EEENS_4pairIT0_T2_EESD_T1_SE_, symObjAddr: 0x4EDC, symBinAddr: 0x10001F910, symSize: 0xB4 }
  - { offsetInCU: 0x913C, offset: 0x4885E, size: 0x8, addend: 0x0, symName: __ZNSt3__128__copy_backward_trivial_implB8ue170006IPNS_17reference_wrapperI5valueEES4_EENS_4pairIPT_PT0_EES7_S7_S9_, symObjAddr: 0x4FD8, symBinAddr: 0x10001FA0C, symSize: 0x90 }
  - { offsetInCU: 0x91A5, offset: 0x488C7, size: 0x8, addend: 0x0, symName: __ZNSt3__19make_pairB8ue170006IRPPNS_17reference_wrapperI5valueEES6_EENS_4pairINS_18__unwrap_ref_decayIT_E4typeENS8_IT0_E4typeEEEOS9_OSC_, symObjAddr: 0x5068, symBinAddr: 0x10001FA9C, symSize: 0x38 }
  - { offsetInCU: 0x91F5, offset: 0x48917, size: 0x8, addend: 0x0, symName: __ZNSt3__119__allocate_at_leastB8ue170006INS_9allocatorIPNS_17reference_wrapperI5valueEEEEEENS_19__allocation_resultINS_16allocator_traitsIT_E7pointerEEERS9_m, symObjAddr: 0x52A8, symBinAddr: 0x10001FC54, symSize: 0x40 }
  - { offsetInCU: 0x9239, offset: 0x4895B, size: 0x8, addend: 0x0, symName: __ZNSt3__119__allocate_at_leastB8ue170006INS_9allocatorINS_17reference_wrapperI5valueEEEEEENS_19__allocation_resultINS_16allocator_traitsIT_E7pointerEEERS8_m, symObjAddr: 0x6448, symBinAddr: 0x100020C74, symSize: 0x40 }
  - { offsetInCU: 0x927D, offset: 0x4899F, size: 0x8, addend: 0x0, symName: __ZNSt3__142__uninitialized_allocator_move_if_noexceptB8ue170006INS_9allocatorINS_17reference_wrapperI5valueEEEENS_16reverse_iteratorIPS4_EES8_S4_vEET1_RT_T0_SC_S9_, symObjAddr: 0x65A4, symBinAddr: 0x100020DD0, symSize: 0x78 }
  - { offsetInCU: 0x92FB, offset: 0x48A1D, size: 0x8, addend: 0x0, symName: __ZNSt3__14swapB8ue170006IPNS_17reference_wrapperI5valueEEEENS_9enable_ifIXaasr21is_move_constructibleIT_EE5valuesr18is_move_assignableIS6_EE5valueEvE4typeERS6_S9_, symObjAddr: 0x6668, symBinAddr: 0x100020E94, symSize: 0x3C }
  - { offsetInCU: 0x934C, offset: 0x48A6E, size: 0x8, addend: 0x0, symName: __ZNSt3__14moveB8ue170006INS_16reverse_iteratorIPNS_17reference_wrapperI5valueEEEES6_EET0_T_S8_S7_, symObjAddr: 0x6750, symBinAddr: 0x100020F7C, symSize: 0x78 }
  - { offsetInCU: 0x93A7, offset: 0x48AC9, size: 0x8, addend: 0x0, symName: __ZNSt3__16__moveB8ue170006INS_17_ClassicAlgPolicyENS_16reverse_iteratorIPNS_17reference_wrapperI5valueEEEES7_S7_EENS_4pairIT0_T2_EES9_T1_SA_, symObjAddr: 0x67C8, symBinAddr: 0x100020FF4, symSize: 0x64 }
  - { offsetInCU: 0x9414, offset: 0x48B36, size: 0x8, addend: 0x0, symName: __ZNSt3__123__dispatch_copy_or_moveB8ue170006INS_17_ClassicAlgPolicyENS_11__move_loopIS1_EENS_14__move_trivialENS_16reverse_iteratorIPNS_17reference_wrapperI5valueEEEESA_SA_EENS_4pairIT2_T4_EESC_T3_SD_, symObjAddr: 0x682C, symBinAddr: 0x100021058, symSize: 0x64 }
  - { offsetInCU: 0x9493, offset: 0x48BB5, size: 0x8, addend: 0x0, symName: __ZNSt3__121__unwrap_and_dispatchB8ue170006INS_10__overloadINS_11__move_loopINS_17_ClassicAlgPolicyEEENS_14__move_trivialEEENS_16reverse_iteratorIPNS_17reference_wrapperI5valueEEEESC_SC_Li0EEENS_4pairIT0_T2_EESE_T1_SF_, symObjAddr: 0x6890, symBinAddr: 0x1000210BC, symSize: 0x12C }
  - { offsetInCU: 0x9525, offset: 0x48C47, size: 0x8, addend: 0x0, symName: __ZNSt3__114__unwrap_rangeB8ue170006INS_16reverse_iteratorIPNS_17reference_wrapperI5valueEEEES6_EENS_4pairIT0_S8_EET_SA_, symObjAddr: 0x69BC, symBinAddr: 0x1000211E8, symSize: 0x84 }
  - { offsetInCU: 0x9699, offset: 0x48DBB, size: 0x8, addend: 0x0, symName: __ZNSt3__113__unwrap_iterB8ue170006INS_16reverse_iteratorIPNS_17reference_wrapperI5valueEEEENS_18__unwrap_iter_implIS6_Lb0EEELi0EEEDTclsrT0_8__unwrapclsr3stdE7declvalIT_EEEESA_, symObjAddr: 0x6AE0, symBinAddr: 0x10002130C, symSize: 0x44 }
  - { offsetInCU: 0x96DF, offset: 0x48E01, size: 0x8, addend: 0x0, symName: __ZNSt3__19make_pairB8ue170006INS_16reverse_iteratorIPNS_17reference_wrapperI5valueEEEES6_EENS_4pairINS_18__unwrap_ref_decayIT_E4typeENS8_IT0_E4typeEEEOS9_OSC_, symObjAddr: 0x6B24, symBinAddr: 0x100021350, symSize: 0x38 }
  - { offsetInCU: 0x972F, offset: 0x48E51, size: 0x8, addend: 0x0, symName: __ZNSt3__114__rewrap_rangeB8ue170006INS_16reverse_iteratorIPNS_17reference_wrapperI5valueEEEES6_EET_S7_T0_, symObjAddr: 0x6B5C, symBinAddr: 0x100021388, symSize: 0x5C }
  - { offsetInCU: 0x977C, offset: 0x48E9E, size: 0x8, addend: 0x0, symName: __ZNSt3__113__rewrap_iterB8ue170006INS_16reverse_iteratorIPNS_17reference_wrapperI5valueEEEES6_NS_18__unwrap_iter_implIS6_Lb0EEEEET_S9_T0_, symObjAddr: 0x6BB8, symBinAddr: 0x1000213E4, symSize: 0x74 }
  - { offsetInCU: 0x97D2, offset: 0x48EF4, size: 0x8, addend: 0x0, symName: __ZNSt3__1neB8ue170006IPNS_17reference_wrapperI5valueEES4_EEbRKNS_16reverse_iteratorIT_EERKNS5_IT0_EE, symObjAddr: 0x6C2C, symBinAddr: 0x100021458, symSize: 0x48 }
  - { offsetInCU: 0x9A82, offset: 0x491A4, size: 0x8, addend: 0x0, symName: __ZNSt3__118generate_canonicalB8ue170006IdLm53ENS_13random_deviceEEET_RT1_, symObjAddr: 0x7664, symBinAddr: 0x100021E90, symSize: 0x114 }
  - { offsetInCU: 0x9B49, offset: 0x4926B, size: 0x8, addend: 0x0, symName: __ZNSt3__1neB8ue170006IPNS_17reference_wrapperI5valueEEEEbRKNS_11__wrap_iterIT_EES9_, symObjAddr: 0x7E1C, symBinAddr: 0x100022624, symSize: 0x34 }
  - { offsetInCU: 0x9B8D, offset: 0x492AF, size: 0x8, addend: 0x0, symName: __ZNSt3__1eqB8ue170006IPNS_17reference_wrapperI5valueEEEEbRKNS_11__wrap_iterIT_EES9_, symObjAddr: 0x7F0C, symBinAddr: 0x100022714, symSize: 0x48 }
  - { offsetInCU: 0x9BD1, offset: 0x492F3, size: 0x8, addend: 0x0, symName: __ZNSt3__116__pad_and_outputB8ue170006IcNS_11char_traitsIcEEEENS_19ostreambuf_iteratorIT_T0_EES6_PKS4_S8_S8_RNS_8ios_baseES4_, symObjAddr: 0x8218, symBinAddr: 0x100022A20, symSize: 0x240 }
  - { offsetInCU: 0x9CA2, offset: 0x493C4, size: 0x8, addend: 0x0, symName: __ZNSt3__112__to_addressB8ue170006IcEEPT_S2_, symObjAddr: 0x8688, symBinAddr: 0x100022E90, symSize: 0x14 }
  - { offsetInCU: 0x9D0A, offset: 0x4942C, size: 0x8, addend: 0x0, symName: __ZNSt3__19use_facetB8ue170006INS_5ctypeIcEEEERKT_RKNS_6localeE, symObjAddr: 0x8940, symBinAddr: 0x100023148, symSize: 0x2C }
  - { offsetInCU: 0xAAE4, offset: 0x4A206, size: 0x8, addend: 0x0, symName: __ZNSt3__16vectorINS_17reference_wrapperI5valueEENS_9allocatorIS3_EEE26__swap_out_circular_bufferERNS_14__split_bufferIS3_RS5_EE, symObjAddr: 0x5FA0, symBinAddr: 0x10002094C, symSize: 0x110 }
  - { offsetInCU: 0xAB39, offset: 0x4A25B, size: 0x8, addend: 0x0, symName: __Z3powB8ue170006IdiENSt3__19enable_ifIXaasr3std13is_arithmeticIT_EE5valuesr3std13is_arithmeticIT0_EE5valueENS0_9__promoteIS2_S3_vEEE4type4typeES2_S3_, symObjAddr: 0xA0C, symBinAddr: 0x10001BC00, symSize: 0x38 }
  - { offsetInCU: 0xC9F9, offset: 0x4C11B, size: 0x8, addend: 0x0, symName: __ZN5valueC2Ev, symObjAddr: 0x0, symBinAddr: 0x10001B220, symSize: 0x48 }
  - { offsetInCU: 0xCA23, offset: 0x4C145, size: 0x8, addend: 0x0, symName: __ZNSt3__16vectorINS_17reference_wrapperI5valueEENS_9allocatorIS3_EEEC1B8ue170006Ev, symObjAddr: 0x48, symBinAddr: 0x10001B268, symSize: 0x2C }
  - { offsetInCU: 0xCA4B, offset: 0x4C16D, size: 0x8, addend: 0x0, symName: __ZN5valueC1Ev, symObjAddr: 0x74, symBinAddr: 0x10001B294, symSize: 0x2C }
  - { offsetInCU: 0xCA75, offset: 0x4C197, size: 0x8, addend: 0x0, symName: __ZN5valueC2Ed, symObjAddr: 0xA0, symBinAddr: 0x10001B2C0, symSize: 0x50 }
  - { offsetInCU: 0xCAAD, offset: 0x4C1CF, size: 0x8, addend: 0x0, symName: __ZN5valueC1Ed, symObjAddr: 0xF0, symBinAddr: 0x10001B310, symSize: 0x34 }
  - { offsetInCU: 0xCAE5, offset: 0x4C207, size: 0x8, addend: 0x0, symName: __ZN5valueC2EOS_, symObjAddr: 0x124, symBinAddr: 0x10001B344, symSize: 0x80 }
  - { offsetInCU: 0xCB1D, offset: 0x4C23F, size: 0x8, addend: 0x0, symName: __ZNSt3__16vectorINS_17reference_wrapperI5valueEENS_9allocatorIS3_EEEC1B8ue170006EOS6_, symObjAddr: 0x1A4, symBinAddr: 0x10001B3C4, symSize: 0x34 }
  - { offsetInCU: 0xCB57, offset: 0x4C279, size: 0x8, addend: 0x0, symName: __ZN5valueC1EOS_, symObjAddr: 0x1D8, symBinAddr: 0x10001B3F8, symSize: 0x34 }
  - { offsetInCU: 0xCB8F, offset: 0x4C2B1, size: 0x8, addend: 0x0, symName: __ZN5valueplERS_, symObjAddr: 0x20C, symBinAddr: 0x10001B42C, symSize: 0x104 }
  - { offsetInCU: 0xCBD3, offset: 0x4C2F5, size: 0x8, addend: 0x0, symName: __ZNSt3__16vectorINS_17reference_wrapperI5valueEENS_9allocatorIS3_EEE9push_backB8ue170006EOS3_, symObjAddr: 0x310, symBinAddr: 0x10001B530, symSize: 0x6C }
  - { offsetInCU: 0xCC09, offset: 0x4C32B, size: 0x8, addend: 0x0, symName: __ZN5valuemlERS_, symObjAddr: 0x3D4, symBinAddr: 0x10001B5C8, symSize: 0x10C }
  - { offsetInCU: 0xCC4D, offset: 0x4C36F, size: 0x8, addend: 0x0, symName: __ZN5valueaSEOS_, symObjAddr: 0x4E0, symBinAddr: 0x10001B6D4, symSize: 0x68 }
  - { offsetInCU: 0xCC82, offset: 0x4C3A4, size: 0x8, addend: 0x0, symName: __ZNSt3__16vectorINS_17reference_wrapperI5valueEENS_9allocatorIS3_EEEaSB8ue170006EOS6_, symObjAddr: 0x548, symBinAddr: 0x10001B73C, symSize: 0x34 }
  - { offsetInCU: 0xCCB8, offset: 0x4C3DA, size: 0x8, addend: 0x0, symName: __ZN5valueeqERS_, symObjAddr: 0x57C, symBinAddr: 0x10001B770, symSize: 0x30 }
  - { offsetInCU: 0xCCED, offset: 0x4C40F, size: 0x8, addend: 0x0, symName: __ZN5value11return_copyEv, symObjAddr: 0x5AC, symBinAddr: 0x10001B7A0, symSize: 0xD8 }
  - { offsetInCU: 0xCD23, offset: 0x4C445, size: 0x8, addend: 0x0, symName: __ZN5value9push_backERS_, symObjAddr: 0x684, symBinAddr: 0x10001B878, symSize: 0x44 }
  - { offsetInCU: 0xCD58, offset: 0x4C47A, size: 0x8, addend: 0x0, symName: __ZN5value15change_gradientEd, symObjAddr: 0x6C8, symBinAddr: 0x10001B8BC, symSize: 0x20 }
  - { offsetInCU: 0xCD8D, offset: 0x4C4AF, size: 0x8, addend: 0x0, symName: __ZN5value11return_dataEv, symObjAddr: 0x6E8, symBinAddr: 0x10001B8DC, symSize: 0x18 }
  - { offsetInCU: 0xCDB4, offset: 0x4C4D6, size: 0x8, addend: 0x0, symName: __ZN5value11random_initEv, symObjAddr: 0x700, symBinAddr: 0x10001B8F4, symSize: 0x80 }
  - { offsetInCU: 0xCDF7, offset: 0x4C519, size: 0x8, addend: 0x0, symName: __ZNSt3__113random_deviceC1B8ue170006Ev, symObjAddr: 0x780, symBinAddr: 0x10001B974, symSize: 0x74 }
  - { offsetInCU: 0xCE42, offset: 0x4C564, size: 0x8, addend: 0x0, symName: __ZNSt3__119normal_distributionIdEC1B8ue170006Ev, symObjAddr: 0x7F4, symBinAddr: 0x10001B9E8, symSize: 0x34 }
  - { offsetInCU: 0xCE6F, offset: 0x4C591, size: 0x8, addend: 0x0, symName: __ZNSt3__119normal_distributionIdEclB8ue170006INS_13random_deviceEEEdRT_, symObjAddr: 0x828, symBinAddr: 0x10001BA1C, symSize: 0x30 }
  - { offsetInCU: 0xCEAA, offset: 0x4C5CC, size: 0x8, addend: 0x0, symName: __ZN5value13requires_gradEv, symObjAddr: 0x858, symBinAddr: 0x10001BA4C, symSize: 0x1C }
  - { offsetInCU: 0xCED1, offset: 0x4C5F3, size: 0x8, addend: 0x0, symName: __ZN5valuepLERS_, symObjAddr: 0x874, symBinAddr: 0x10001BA68, symSize: 0x68 }
  - { offsetInCU: 0xCF06, offset: 0x4C628, size: 0x8, addend: 0x0, symName: __ZN5value4tanhEv, symObjAddr: 0x8DC, symBinAddr: 0x10001BAD0, symSize: 0x130 }
  - { offsetInCU: 0xCF3C, offset: 0x4C65E, size: 0x8, addend: 0x0, symName: __ZN5value3eluEv, symObjAddr: 0xA44, symBinAddr: 0x10001BC38, symSize: 0x15C }
  - { offsetInCU: 0xCF80, offset: 0x4C6A2, size: 0x8, addend: 0x0, symName: __ZN5value19calculate_gradientsEv, symObjAddr: 0xBA0, symBinAddr: 0x10001BD94, symSize: 0x1C4 }
  - { offsetInCU: 0xD03A, offset: 0x4C75C, size: 0x8, addend: 0x0, symName: __ZNSt3__15queueINS_17reference_wrapperI5valueEENS_5dequeIS3_NS_9allocatorIS3_EEEEEC1B8ue170006Ev, symObjAddr: 0xD64, symBinAddr: 0x10001BF58, symSize: 0x2C }
  - { offsetInCU: 0xD062, offset: 0x4C784, size: 0x8, addend: 0x0, symName: __ZNSt3__15queueINS_17reference_wrapperI5valueEENS_5dequeIS3_NS_9allocatorIS3_EEEEE4pushB8ue170006EOS3_, symObjAddr: 0xD90, symBinAddr: 0x10001BF84, symSize: 0x2C }
  - { offsetInCU: 0xD095, offset: 0x4C7B7, size: 0x8, addend: 0x0, symName: __ZNKSt3__15queueINS_17reference_wrapperI5valueEENS_5dequeIS3_NS_9allocatorIS3_EEEEE4sizeB8ue170006Ev, symObjAddr: 0xDBC, symBinAddr: 0x10001BFB0, symSize: 0x24 }
  - { offsetInCU: 0xD0B9, offset: 0x4C7DB, size: 0x8, addend: 0x0, symName: __ZNSt3__15queueINS_17reference_wrapperI5valueEENS_5dequeIS3_NS_9allocatorIS3_EEEEE5frontB8ue170006Ev, symObjAddr: 0xDE0, symBinAddr: 0x10001BFD4, symSize: 0x24 }
  - { offsetInCU: 0xD0DD, offset: 0x4C7FF, size: 0x8, addend: 0x0, symName: __ZNKSt3__117reference_wrapperI5valueE3getB8ue170006Ev, symObjAddr: 0xE04, symBinAddr: 0x10001BFF8, symSize: 0x18 }
  - { offsetInCU: 0xD101, offset: 0x4C823, size: 0x8, addend: 0x0, symName: __ZNKSt3__16vectorINS_17reference_wrapperI5valueEENS_9allocatorIS3_EEE5emptyB8ue170006Ev, symObjAddr: 0xE1C, symBinAddr: 0x10001C010, symSize: 0x28 }
  - { offsetInCU: 0xD125, offset: 0x4C847, size: 0x8, addend: 0x0, symName: __ZNSt3__15queueINS_17reference_wrapperI5valueEENS_5dequeIS3_NS_9allocatorIS3_EEEEE3popB8ue170006Ev, symObjAddr: 0xE44, symBinAddr: 0x10001C038, symSize: 0x24 }
  - { offsetInCU: 0xD149, offset: 0x4C86B, size: 0x8, addend: 0x0, symName: __ZNSt3__16vectorINS_17reference_wrapperI5valueEENS_9allocatorIS3_EEE5beginB8ue170006Ev, symObjAddr: 0xEE0, symBinAddr: 0x10001C0D4, symSize: 0x30 }
  - { offsetInCU: 0xD170, offset: 0x4C892, size: 0x8, addend: 0x0, symName: __ZNSt3__16vectorINS_17reference_wrapperI5valueEENS_9allocatorIS3_EEE3endB8ue170006Ev, symObjAddr: 0xF10, symBinAddr: 0x10001C104, symSize: 0x30 }
  - { offsetInCU: 0xD197, offset: 0x4C8B9, size: 0x8, addend: 0x0, symName: __ZNSt3__15queueINS_17reference_wrapperI5valueEENS_5dequeIS3_NS_9allocatorIS3_EEEEED1Ev, symObjAddr: 0xF40, symBinAddr: 0x10001C134, symSize: 0x2C }
  - { offsetInCU: 0xD1C3, offset: 0x4C8E5, size: 0x8, addend: 0x0, symName: __ZN5value5learnEd, symObjAddr: 0xF6C, symBinAddr: 0x10001C160, symSize: 0x128 }
  - { offsetInCU: 0xD267, offset: 0x4C989, size: 0x8, addend: 0x0, symName: __ZNSt3__15queueINS_17reference_wrapperI5valueEENS_5dequeIS3_NS_9allocatorIS3_EEEEE7emplaceB8ue170006IJS3_EEEDcDpOT_, symObjAddr: 0x1094, symBinAddr: 0x10001C288, symSize: 0x2C }
  - { offsetInCU: 0xD2A5, offset: 0x4C9C7, size: 0x8, addend: 0x0, symName: __ZNKSt3__15queueINS_17reference_wrapperI5valueEENS_5dequeIS3_NS_9allocatorIS3_EEEEE5emptyB8ue170006Ev, symObjAddr: 0x10C0, symBinAddr: 0x10001C2B4, symSize: 0x28 }
  - { offsetInCU: 0xD2C8, offset: 0x4C9EA, size: 0x8, addend: 0x0, symName: __ZlsRNSt3__113basic_ostreamIcNS_11char_traitsIcEEEER5value, symObjAddr: 0x116C, symBinAddr: 0x10001C360, symSize: 0x6C }
  - { offsetInCU: 0xD309, offset: 0x4CA2B, size: 0x8, addend: 0x0, symName: __ZNSt3__112basic_stringIcNS_11char_traitsIcEENS_9allocatorIcEEEC1B8ue170006ILi0EEEPKc, symObjAddr: 0x1900, symBinAddr: 0x10001C46C, symSize: 0x34 }
  - { offsetInCU: 0xD347, offset: 0x4CA69, size: 0x8, addend: 0x0, symName: __ZNSt3__112basic_stringIcNS_11char_traitsIcEENS_9allocatorIcEEEC2B8ue170006ILi0EEEPKc, symObjAddr: 0x1934, symBinAddr: 0x10001C4A0, symSize: 0x58 }
  - { offsetInCU: 0xD38A, offset: 0x4CAAC, size: 0x8, addend: 0x0, symName: __ZNSt3__117__compressed_pairINS_12basic_stringIcNS_11char_traitsIcEENS_9allocatorIcEEE5__repES5_EC1B8ue170006INS_18__default_init_tagESA_EEOT_OT0_, symObjAddr: 0x198C, symBinAddr: 0x10001C4F8, symSize: 0x3C }
  - { offsetInCU: 0xD3E0, offset: 0x4CB02, size: 0x8, addend: 0x0, symName: __ZNSt3__111char_traitsIcE6lengthB8ue170006EPKc, symObjAddr: 0x19C8, symBinAddr: 0x10001C534, symSize: 0x34 }
  - { offsetInCU: 0xD402, offset: 0x4CB24, size: 0x8, addend: 0x0, symName: __ZNSt3__117__compressed_pairINS_12basic_stringIcNS_11char_traitsIcEENS_9allocatorIcEEE5__repES5_EC2B8ue170006INS_18__default_init_tagESA_EEOT_OT0_, symObjAddr: 0x19FC, symBinAddr: 0x10001C568, symSize: 0x3C }
  - { offsetInCU: 0xD458, offset: 0x4CB7A, size: 0x8, addend: 0x0, symName: __ZNSt3__122__compressed_pair_elemINS_12basic_stringIcNS_11char_traitsIcEENS_9allocatorIcEEE5__repELi0ELb0EEC2B8ue170006ENS_18__default_init_tagE, symObjAddr: 0x1A38, symBinAddr: 0x10001C5A4, symSize: 0x14 }
  - { offsetInCU: 0xD48B, offset: 0x4CBAD, size: 0x8, addend: 0x0, symName: __ZNSt3__122__compressed_pair_elemINS_9allocatorIcEELi1ELb1EEC2B8ue170006ENS_18__default_init_tagE, symObjAddr: 0x1A4C, symBinAddr: 0x10001C5B8, symSize: 0x2C }
  - { offsetInCU: 0xD4BE, offset: 0x4CBE0, size: 0x8, addend: 0x0, symName: __ZNSt3__19allocatorIcEC2B8ue170006Ev, symObjAddr: 0x1A78, symBinAddr: 0x10001C5E4, symSize: 0x2C }
  - { offsetInCU: 0xD4E6, offset: 0x4CC08, size: 0x8, addend: 0x0, symName: __ZNSt3__116__non_trivial_ifILb1ENS_9allocatorIcEEEC2B8ue170006Ev, symObjAddr: 0x1AA4, symBinAddr: 0x10001C610, symSize: 0x14 }
  - { offsetInCU: 0xD50E, offset: 0x4CC30, size: 0x8, addend: 0x0, symName: __ZNSt3__15queueINS_17reference_wrapperI5valueEENS_5dequeIS3_NS_9allocatorIS3_EEEEED2Ev, symObjAddr: 0x1ADC, symBinAddr: 0x10001C648, symSize: 0x2C }
  - { offsetInCU: 0xD53A, offset: 0x4CC5C, size: 0x8, addend: 0x0, symName: __ZNSt3__15dequeINS_17reference_wrapperI5valueEENS_9allocatorIS3_EEED1B8ue170006Ev, symObjAddr: 0x1B08, symBinAddr: 0x10001C674, symSize: 0x2C }
  - { offsetInCU: 0xD562, offset: 0x4CC84, size: 0x8, addend: 0x0, symName: __ZNSt3__15dequeINS_17reference_wrapperI5valueEENS_9allocatorIS3_EEED2B8ue170006Ev, symObjAddr: 0x1B34, symBinAddr: 0x10001C6A0, symSize: 0xA4 }
  - { offsetInCU: 0xD5B6, offset: 0x4CCD8, size: 0x8, addend: 0x0, symName: __ZNSt3__15dequeINS_17reference_wrapperI5valueEENS_9allocatorIS3_EEE5clearEv, symObjAddr: 0x1BD8, symBinAddr: 0x10001C744, symSize: 0x194 }
  - { offsetInCU: 0xD611, offset: 0x4CD33, size: 0x8, addend: 0x0, symName: __ZNKSt3__15dequeINS_17reference_wrapperI5valueEENS_9allocatorIS3_EEE17__annotate_deleteB8ue170006Ev, symObjAddr: 0x1D6C, symBinAddr: 0x10001C8D8, symSize: 0xE8 }
  - { offsetInCU: 0xD652, offset: 0x4CD74, size: 0x8, addend: 0x0, symName: __ZNSt3__114__split_bufferIPNS_17reference_wrapperI5valueEENS_9allocatorIS4_EEE5beginB8ue170006Ev, symObjAddr: 0x1E54, symBinAddr: 0x10001C9C0, symSize: 0x18 }
  - { offsetInCU: 0xD676, offset: 0x4CD98, size: 0x8, addend: 0x0, symName: __ZNSt3__114__split_bufferIPNS_17reference_wrapperI5valueEENS_9allocatorIS4_EEE3endB8ue170006Ev, symObjAddr: 0x1E6C, symBinAddr: 0x10001C9D8, symSize: 0x18 }
  - { offsetInCU: 0xD69A, offset: 0x4CDBC, size: 0x8, addend: 0x0, symName: __ZNSt3__15dequeINS_17reference_wrapperI5valueEENS_9allocatorIS3_EEE7__allocB8ue170006Ev, symObjAddr: 0x1E84, symBinAddr: 0x10001C9F0, symSize: 0x28 }
  - { offsetInCU: 0xD6BE, offset: 0x4CDE0, size: 0x8, addend: 0x0, symName: __ZNSt3__114__split_bufferIPNS_17reference_wrapperI5valueEENS_9allocatorIS4_EEED1Ev, symObjAddr: 0x1EAC, symBinAddr: 0x10001CA18, symSize: 0x2C }
  - { offsetInCU: 0xD6E9, offset: 0x4CE0B, size: 0x8, addend: 0x0, symName: __ZNSt3__15dequeINS_17reference_wrapperI5valueEENS_9allocatorIS3_EEE5beginB8ue170006Ev, symObjAddr: 0x1ED8, symBinAddr: 0x10001CA44, symSize: 0xB8 }
  - { offsetInCU: 0xD71C, offset: 0x4CE3E, size: 0x8, addend: 0x0, symName: __ZNSt3__15dequeINS_17reference_wrapperI5valueEENS_9allocatorIS3_EEE3endB8ue170006Ev, symObjAddr: 0x1F90, symBinAddr: 0x10001CAFC, symSize: 0xBC }
  - { offsetInCU: 0xD75E, offset: 0x4CE80, size: 0x8, addend: 0x0, symName: __ZNKSt3__116__deque_iteratorINS_17reference_wrapperI5valueEEPS3_RS3_PS4_lLl512EEdeB8ue170006Ev, symObjAddr: 0x2080, symBinAddr: 0x10001CBEC, symSize: 0x18 }
  - { offsetInCU: 0xD782, offset: 0x4CEA4, size: 0x8, addend: 0x0, symName: __ZNSt3__116__deque_iteratorINS_17reference_wrapperI5valueEEPS3_RS3_PS4_lLl512EEppB8ue170006Ev, symObjAddr: 0x2098, symBinAddr: 0x10001CC04, symSize: 0x70 }
  - { offsetInCU: 0xD7A6, offset: 0x4CEC8, size: 0x8, addend: 0x0, symName: __ZNSt3__15dequeINS_17reference_wrapperI5valueEENS_9allocatorIS3_EEE6__sizeB8ue170006Ev, symObjAddr: 0x2108, symBinAddr: 0x10001CC74, symSize: 0x28 }
  - { offsetInCU: 0xD7CA, offset: 0x4CEEC, size: 0x8, addend: 0x0, symName: __ZNKSt3__114__split_bufferIPNS_17reference_wrapperI5valueEENS_9allocatorIS4_EEE4sizeB8ue170006Ev, symObjAddr: 0x2130, symBinAddr: 0x10001CC9C, symSize: 0x28 }
  - { offsetInCU: 0xD7EE, offset: 0x4CF10, size: 0x8, addend: 0x0, symName: __ZNSt3__114__split_bufferIPNS_17reference_wrapperI5valueEENS_9allocatorIS4_EEE5frontB8ue170006Ev, symObjAddr: 0x2158, symBinAddr: 0x10001CCC4, symSize: 0x18 }
  - { offsetInCU: 0xD812, offset: 0x4CF34, size: 0x8, addend: 0x0, symName: __ZNSt3__114__split_bufferIPNS_17reference_wrapperI5valueEENS_9allocatorIS4_EEE9pop_frontB8ue170006Ev, symObjAddr: 0x2170, symBinAddr: 0x10001CCDC, symSize: 0x2C }
  - { offsetInCU: 0xD836, offset: 0x4CF58, size: 0x8, addend: 0x0, symName: __ZNKSt3__15dequeINS_17reference_wrapperI5valueEENS_9allocatorIS3_EEE14__annotate_newB8ue170006Em, symObjAddr: 0x219C, symBinAddr: 0x10001CD08, symSize: 0xB8 }
  - { offsetInCU: 0xD869, offset: 0x4CF8B, size: 0x8, addend: 0x0, symName: __ZNKSt3__114__split_bufferIPNS_17reference_wrapperI5valueEENS_9allocatorIS4_EEE5emptyB8ue170006Ev, symObjAddr: 0x2254, symBinAddr: 0x10001CDC0, symSize: 0x28 }
  - { offsetInCU: 0xD88D, offset: 0x4CFAF, size: 0x8, addend: 0x0, symName: __ZNSt3__116__deque_iteratorINS_17reference_wrapperI5valueEEPS3_RS3_PS4_lLl512EEC1B8ue170006ES6_S4_, symObjAddr: 0x227C, symBinAddr: 0x10001CDE8, symSize: 0x3C }
  - { offsetInCU: 0xD8D3, offset: 0x4CFF5, size: 0x8, addend: 0x0, symName: __ZNSt3__116__deque_iteratorINS_17reference_wrapperI5valueEEPS3_RS3_PS4_lLl512EEC2B8ue170006ES6_S4_, symObjAddr: 0x22B8, symBinAddr: 0x10001CE24, symSize: 0x2C }
  - { offsetInCU: 0xD919, offset: 0x4D03B, size: 0x8, addend: 0x0, symName: __ZNKSt3__15dequeINS_17reference_wrapperI5valueEENS_9allocatorIS3_EEE4sizeB8ue170006Ev, symObjAddr: 0x22E4, symBinAddr: 0x10001CE50, symSize: 0x28 }
  - { offsetInCU: 0xD93D, offset: 0x4D05F, size: 0x8, addend: 0x0, symName: __ZNKSt3__15dequeINS_17reference_wrapperI5valueEENS_9allocatorIS3_EEE6__sizeB8ue170006Ev, symObjAddr: 0x230C, symBinAddr: 0x10001CE78, symSize: 0x28 }
  - { offsetInCU: 0xD961, offset: 0x4D083, size: 0x8, addend: 0x0, symName: __ZNKSt3__117__compressed_pairImNS_9allocatorINS_17reference_wrapperI5valueEEEEE5firstB8ue170006Ev, symObjAddr: 0x2334, symBinAddr: 0x10001CEA0, symSize: 0x24 }
  - { offsetInCU: 0xD985, offset: 0x4D0A7, size: 0x8, addend: 0x0, symName: __ZNSt3__117__compressed_pairImNS_9allocatorINS_17reference_wrapperI5valueEEEEE5firstB8ue170006Ev, symObjAddr: 0x239C, symBinAddr: 0x10001CEF4, symSize: 0x24 }
  - { offsetInCU: 0xD9A9, offset: 0x4D0CB, size: 0x8, addend: 0x0, symName: __ZNSt3__114__split_bufferIPNS_17reference_wrapperI5valueEENS_9allocatorIS4_EEE19__destruct_at_beginB8ue170006EPS4_, symObjAddr: 0x23D4, symBinAddr: 0x10001CF18, symSize: 0x2C }
  - { offsetInCU: 0xD9DB, offset: 0x4D0FD, size: 0x8, addend: 0x0, symName: __ZNSt3__114__split_bufferIPNS_17reference_wrapperI5valueEENS_9allocatorIS4_EEE19__destruct_at_beginEPS4_NS_17integral_constantIbLb1EEE, symObjAddr: 0x2400, symBinAddr: 0x10001CF44, symSize: 0x20 }
  - { offsetInCU: 0xDA1B, offset: 0x4D13D, size: 0x8, addend: 0x0, symName: __ZNKSt3__15dequeINS_17reference_wrapperI5valueEENS_9allocatorIS3_EEE18__annotate_from_toB8ue170006EmmNS6_22__asan_annotation_typeENS6_23__asan_annotation_placeE, symObjAddr: 0x2420, symBinAddr: 0x10001CF64, symSize: 0x580 }
  - { offsetInCU: 0xDBD5, offset: 0x4D2F7, size: 0x8, addend: 0x0, symName: __ZNKSt3__114__split_bufferIPNS_17reference_wrapperI5valueEENS_9allocatorIS4_EEE5beginB8ue170006Ev, symObjAddr: 0x29A0, symBinAddr: 0x10001D4E4, symSize: 0x18 }
  - { offsetInCU: 0xDBF9, offset: 0x4D31B, size: 0x8, addend: 0x0, symName: __ZNKSt3__15dequeINS_17reference_wrapperI5valueEENS_9allocatorIS3_EEE5emptyB8ue170006Ev, symObjAddr: 0x29B8, symBinAddr: 0x10001D4FC, symSize: 0x30 }
  - { offsetInCU: 0xDC1D, offset: 0x4D33F, size: 0x8, addend: 0x0, symName: __ZNKSt3__15dequeINS_17reference_wrapperI5valueEENS_9allocatorIS3_EEE44__annotate_double_ended_contiguous_containerB8ue170006EPKvS8_S8_S8_S8_S8_, symObjAddr: 0x29E8, symBinAddr: 0x10001D52C, symSize: 0x28 }
  - { offsetInCU: 0xDC83, offset: 0x4D3A5, size: 0x8, addend: 0x0, symName: __ZNKSt3__15dequeINS_17reference_wrapperI5valueEENS_9allocatorIS3_EEE22__annotate_whole_blockB8ue170006EmNS6_22__asan_annotation_typeE, symObjAddr: 0x2A10, symBinAddr: 0x10001D554, symSize: 0xAC }
  - { offsetInCU: 0xDCF2, offset: 0x4D414, size: 0x8, addend: 0x0, symName: __ZNKSt3__15dequeINS_17reference_wrapperI5valueEENS_9allocatorIS3_EEE23__annotate_poison_blockB8ue170006EPKvS8_, symObjAddr: 0x2ABC, symBinAddr: 0x10001D600, symSize: 0x44 }
  - { offsetInCU: 0xDD34, offset: 0x4D456, size: 0x8, addend: 0x0, symName: __ZNSt3__117__compressed_pairImNS_9allocatorINS_17reference_wrapperI5valueEEEEE6secondB8ue170006Ev, symObjAddr: 0x2B00, symBinAddr: 0x10001D644, symSize: 0x24 }
  - { offsetInCU: 0xDD58, offset: 0x4D47A, size: 0x8, addend: 0x0, symName: __ZNSt3__114__split_bufferIPNS_17reference_wrapperI5valueEENS_9allocatorIS4_EEED2Ev, symObjAddr: 0x2B24, symBinAddr: 0x10001D668, symSize: 0x8C }
  - { offsetInCU: 0xDD83, offset: 0x4D4A5, size: 0x8, addend: 0x0, symName: __ZNSt3__114__split_bufferIPNS_17reference_wrapperI5valueEENS_9allocatorIS4_EEE5clearB8ue170006Ev, symObjAddr: 0x2BB0, symBinAddr: 0x10001D6F4, symSize: 0x28 }
  - { offsetInCU: 0xDDA7, offset: 0x4D4C9, size: 0x8, addend: 0x0, symName: __ZNSt3__116allocator_traitsINS_9allocatorIPNS_17reference_wrapperI5valueEEEEE10deallocateB8ue170006ERS6_PS5_m, symObjAddr: 0x2BD8, symBinAddr: 0x10001D71C, symSize: 0x34 }
  - { offsetInCU: 0xDDE8, offset: 0x4D50A, size: 0x8, addend: 0x0, symName: __ZNSt3__114__split_bufferIPNS_17reference_wrapperI5valueEENS_9allocatorIS4_EEE7__allocB8ue170006Ev, symObjAddr: 0x2C0C, symBinAddr: 0x10001D750, symSize: 0x28 }
  - { offsetInCU: 0xDE0C, offset: 0x4D52E, size: 0x8, addend: 0x0, symName: __ZNKSt3__114__split_bufferIPNS_17reference_wrapperI5valueEENS_9allocatorIS4_EEE8capacityB8ue170006Ev, symObjAddr: 0x2C34, symBinAddr: 0x10001D778, symSize: 0x40 }
  - { offsetInCU: 0xDE30, offset: 0x4D552, size: 0x8, addend: 0x0, symName: __ZNSt3__114__split_bufferIPNS_17reference_wrapperI5valueEENS_9allocatorIS4_EEE17__destruct_at_endB8ue170006EPS4_, symObjAddr: 0x2C74, symBinAddr: 0x10001D7B8, symSize: 0x2C }
  - { offsetInCU: 0xDE62, offset: 0x4D584, size: 0x8, addend: 0x0, symName: __ZNSt3__114__split_bufferIPNS_17reference_wrapperI5valueEENS_9allocatorIS4_EEE17__destruct_at_endB8ue170006EPS4_NS_17integral_constantIbLb0EEE, symObjAddr: 0x2CA0, symBinAddr: 0x10001D7E4, symSize: 0x80 }
  - { offsetInCU: 0xDEA2, offset: 0x4D5C4, size: 0x8, addend: 0x0, symName: __ZNSt3__116allocator_traitsINS_9allocatorIPNS_17reference_wrapperI5valueEEEEE7destroyB8ue170006IS5_vEEvRS6_PT_, symObjAddr: 0x2D20, symBinAddr: 0x10001D864, symSize: 0x2C }
  - { offsetInCU: 0xDEDE, offset: 0x4D600, size: 0x8, addend: 0x0, symName: __ZNSt3__19allocatorIPNS_17reference_wrapperI5valueEEE7destroyB8ue170006EPS4_, symObjAddr: 0x2D60, symBinAddr: 0x10001D8A4, symSize: 0x14 }
  - { offsetInCU: 0xDF10, offset: 0x4D632, size: 0x8, addend: 0x0, symName: __ZNSt3__19allocatorIPNS_17reference_wrapperI5valueEEE10deallocateB8ue170006EPS4_m, symObjAddr: 0x2D74, symBinAddr: 0x10001D8B8, symSize: 0x40 }
  - { offsetInCU: 0xDF50, offset: 0x4D672, size: 0x8, addend: 0x0, symName: __ZNSt3__117__compressed_pairIPPNS_17reference_wrapperI5valueEENS_9allocatorIS4_EEE6secondB8ue170006Ev, symObjAddr: 0x2DB4, symBinAddr: 0x10001D8F8, symSize: 0x24 }
  - { offsetInCU: 0xDF74, offset: 0x4D696, size: 0x8, addend: 0x0, symName: __ZNSt3__122__compressed_pair_elemINS_9allocatorIPNS_17reference_wrapperI5valueEEEELi1ELb1EE5__getB8ue170006Ev, symObjAddr: 0x2DD8, symBinAddr: 0x10001D91C, symSize: 0x14 }
  - { offsetInCU: 0xDF98, offset: 0x4D6BA, size: 0x8, addend: 0x0, symName: __ZNKSt3__114__split_bufferIPNS_17reference_wrapperI5valueEENS_9allocatorIS4_EEE9__end_capB8ue170006Ev, symObjAddr: 0x2DEC, symBinAddr: 0x10001D930, symSize: 0x28 }
  - { offsetInCU: 0xDFBC, offset: 0x4D6DE, size: 0x8, addend: 0x0, symName: __ZNKSt3__117__compressed_pairIPPNS_17reference_wrapperI5valueEENS_9allocatorIS4_EEE5firstB8ue170006Ev, symObjAddr: 0x2E14, symBinAddr: 0x10001D958, symSize: 0x24 }
  - { offsetInCU: 0xDFE0, offset: 0x4D702, size: 0x8, addend: 0x0, symName: __ZNKSt3__122__compressed_pair_elemIPPNS_17reference_wrapperI5valueEELi0ELb0EE5__getB8ue170006Ev, symObjAddr: 0x2E38, symBinAddr: 0x10001D97C, symSize: 0x14 }
  - { offsetInCU: 0xE004, offset: 0x4D726, size: 0x8, addend: 0x0, symName: __ZNSt3__15dequeINS_17reference_wrapperI5valueEENS_9allocatorIS3_EEE12emplace_backIJS3_EEERS3_DpOT_, symObjAddr: 0x2E4C, symBinAddr: 0x10001D990, symSize: 0xD0 }
  - { offsetInCU: 0xE054, offset: 0x4D776, size: 0x8, addend: 0x0, symName: __ZNKSt3__15dequeINS_17reference_wrapperI5valueEENS_9allocatorIS3_EEE12__back_spareB8ue170006Ev, symObjAddr: 0x2F1C, symBinAddr: 0x10001DA60, symSize: 0x54 }
  - { offsetInCU: 0xE078, offset: 0x4D79A, size: 0x8, addend: 0x0, symName: __ZNSt3__15dequeINS_17reference_wrapperI5valueEENS_9allocatorIS3_EEE19__add_back_capacityEv, symObjAddr: 0x2F70, symBinAddr: 0x10001DAB4, symSize: 0x34C }
  - { offsetInCU: 0xE12D, offset: 0x4D84F, size: 0x8, addend: 0x0, symName: __ZNKSt3__15dequeINS_17reference_wrapperI5valueEENS_9allocatorIS3_EEE24__annotate_increase_backB8ue170006Em, symObjAddr: 0x32BC, symBinAddr: 0x10001DE00, symSize: 0x7C }
  - { offsetInCU: 0xE160, offset: 0x4D882, size: 0x8, addend: 0x0, symName: __ZNSt3__116allocator_traitsINS_9allocatorINS_17reference_wrapperI5valueEEEEE9constructB8ue170006IS4_JS4_EvEEvRS5_PT_DpOT0_, symObjAddr: 0x3338, symBinAddr: 0x10001DE7C, symSize: 0x34 }
  - { offsetInCU: 0xE1B6, offset: 0x4D8D8, size: 0x8, addend: 0x0, symName: __ZNSt3__116__deque_iteratorINS_17reference_wrapperI5valueEEPS3_RS3_PS4_lLl512EEmmB8ue170006Ev, symObjAddr: 0x336C, symBinAddr: 0x10001DEB0, symSize: 0x68 }
  - { offsetInCU: 0xE1DA, offset: 0x4D8FC, size: 0x8, addend: 0x0, symName: __ZNKSt3__15dequeINS_17reference_wrapperI5valueEENS_9allocatorIS3_EEE10__capacityB8ue170006Ev, symObjAddr: 0x33D4, symBinAddr: 0x10001DF18, symSize: 0x60 }
  - { offsetInCU: 0xE1FE, offset: 0x4D920, size: 0x8, addend: 0x0, symName: __ZNKSt3__15dequeINS_17reference_wrapperI5valueEENS_9allocatorIS3_EEE13__front_spareB8ue170006Ev, symObjAddr: 0x3434, symBinAddr: 0x10001DF78, symSize: 0x18 }
  - { offsetInCU: 0xE222, offset: 0x4D944, size: 0x8, addend: 0x0, symName: __ZNSt3__114__split_bufferIPNS_17reference_wrapperI5valueEENS_9allocatorIS4_EEE9push_backB8ue170006ERKS4_, symObjAddr: 0x344C, symBinAddr: 0x10001DF90, symSize: 0x260 }
  - { offsetInCU: 0xE29A, offset: 0x4D9BC, size: 0x8, addend: 0x0, symName: __ZNKSt3__114__split_bufferIPNS_17reference_wrapperI5valueEENS_9allocatorIS4_EEE12__back_spareB8ue170006Ev, symObjAddr: 0x36AC, symBinAddr: 0x10001E1F0, symSize: 0x40 }
  - { offsetInCU: 0xE2BE, offset: 0x4D9E0, size: 0x8, addend: 0x0, symName: __ZNSt3__114__split_bufferIPNS_17reference_wrapperI5valueEENS_9allocatorIS4_EEE9push_backEOS4_, symObjAddr: 0x36EC, symBinAddr: 0x10001E230, symSize: 0x260 }
  - { offsetInCU: 0xE336, offset: 0x4DA58, size: 0x8, addend: 0x0, symName: __ZNSt3__116allocator_traitsINS_9allocatorINS_17reference_wrapperI5valueEEEEE8allocateB8ue170006ERS5_m, symObjAddr: 0x394C, symBinAddr: 0x10001E490, symSize: 0x2C }
  - { offsetInCU: 0xE368, offset: 0x4DA8A, size: 0x8, addend: 0x0, symName: __ZNSt3__114__split_bufferIPNS_17reference_wrapperI5valueEENS_9allocatorIS4_EEE10push_frontEOS4_, symObjAddr: 0x3978, symBinAddr: 0x10001E4BC, symSize: 0x25C }
  - { offsetInCU: 0xE3E0, offset: 0x4DB02, size: 0x8, addend: 0x0, symName: __ZNSt3__114__split_bufferIPNS_17reference_wrapperI5valueEERNS_9allocatorIS4_EEEC1EmmS7_, symObjAddr: 0x3C00, symBinAddr: 0x10001E718, symSize: 0x44 }
  - { offsetInCU: 0xE43A, offset: 0x4DB5C, size: 0x8, addend: 0x0, symName: __ZNSt3__122__allocator_destructorINS_9allocatorINS_17reference_wrapperI5valueEEEEEC1B8ue170006ERS5_m, symObjAddr: 0x3C44, symBinAddr: 0x10001E75C, symSize: 0x3C }
  - { offsetInCU: 0xE4E7, offset: 0x4DC09, size: 0x8, addend: 0x0, symName: __ZNSt3__110unique_ptrIPNS_17reference_wrapperI5valueEENS_22__allocator_destructorINS_9allocatorIS3_EEEEEC1B8ue170006ILb1EvEES4_NS_16__dependent_typeINS_27__unique_ptr_deleter_sfinaeIS8_EEXT_EE20__good_rval_ref_typeE, symObjAddr: 0x3C80, symBinAddr: 0x10001E798, symSize: 0x3C }
  - { offsetInCU: 0xE536, offset: 0x4DC58, size: 0x8, addend: 0x0, symName: __ZNSt3__114__split_bufferIPNS_17reference_wrapperI5valueEERNS_9allocatorIS4_EEE9push_backEOS4_, symObjAddr: 0x3CBC, symBinAddr: 0x10001E7D4, symSize: 0x260 }
  - { offsetInCU: 0xE5AE, offset: 0x4DCD0, size: 0x8, addend: 0x0, symName: __ZNKSt3__110unique_ptrIPNS_17reference_wrapperI5valueEENS_22__allocator_destructorINS_9allocatorIS3_EEEEE3getB8ue170006Ev, symObjAddr: 0x3F1C, symBinAddr: 0x10001EA34, symSize: 0x28 }
  - { offsetInCU: 0xE5D2, offset: 0x4DCF4, size: 0x8, addend: 0x0, symName: __ZNSt3__110unique_ptrIPNS_17reference_wrapperI5valueEENS_22__allocator_destructorINS_9allocatorIS3_EEEEE7releaseB8ue170006Ev, symObjAddr: 0x3F44, symBinAddr: 0x10001EA5C, symSize: 0x44 }
  - { offsetInCU: 0xE605, offset: 0x4DD27, size: 0x8, addend: 0x0, symName: __ZNSt3__114__split_bufferIPNS_17reference_wrapperI5valueEERNS_9allocatorIS4_EEE10push_frontERKS4_, symObjAddr: 0x3F88, symBinAddr: 0x10001EAA0, symSize: 0x25C }
  - { offsetInCU: 0xE67D, offset: 0x4DD9F, size: 0x8, addend: 0x0, symName: __ZNSt3__114__split_bufferIPNS_17reference_wrapperI5valueEENS_9allocatorIS4_EEE9__end_capB8ue170006Ev, symObjAddr: 0x4220, symBinAddr: 0x10001ED38, symSize: 0x28 }
  - { offsetInCU: 0xE6A1, offset: 0x4DDC3, size: 0x8, addend: 0x0, symName: __ZNSt3__114__split_bufferIPNS_17reference_wrapperI5valueEERNS_9allocatorIS4_EEE9__end_capB8ue170006Ev, symObjAddr: 0x4248, symBinAddr: 0x10001ED60, symSize: 0x28 }
  - { offsetInCU: 0xE6C5, offset: 0x4DDE7, size: 0x8, addend: 0x0, symName: __ZNSt3__110unique_ptrIPNS_17reference_wrapperI5valueEENS_22__allocator_destructorINS_9allocatorIS3_EEEEED1B8ue170006Ev, symObjAddr: 0x4270, symBinAddr: 0x10001ED88, symSize: 0x2C }
  - { offsetInCU: 0xE6ED, offset: 0x4DE0F, size: 0x8, addend: 0x0, symName: __ZNSt3__114__split_bufferIPNS_17reference_wrapperI5valueEERNS_9allocatorIS4_EEED1Ev, symObjAddr: 0x429C, symBinAddr: 0x10001EDB4, symSize: 0x2C }
  - { offsetInCU: 0xE718, offset: 0x4DE3A, size: 0x8, addend: 0x0, symName: __ZNSt3__114__split_bufferIPNS_17reference_wrapperI5valueEERNS_9allocatorIS4_EEE18__construct_at_endINS_13move_iteratorIPS4_EEEENS_9enable_ifIXsr31__has_forward_iterator_categoryIT_EE5valueEvE4typeESE_SE_, symObjAddr: 0x4308, symBinAddr: 0x10001EE20, symSize: 0x60 }
  - { offsetInCU: 0xE764, offset: 0x4DE86, size: 0x8, addend: 0x0, symName: __ZNSt3__113move_iteratorIPPNS_17reference_wrapperI5valueEEEC1B8ue170006ES5_, symObjAddr: 0x4368, symBinAddr: 0x10001EE80, symSize: 0x34 }
  - { offsetInCU: 0xE79A, offset: 0x4DEBC, size: 0x8, addend: 0x0, symName: __ZNSt3__116allocator_traitsINS_9allocatorIPNS_17reference_wrapperI5valueEEEEE9constructB8ue170006IS5_JRKS5_EvEEvRS6_PT_DpOT0_, symObjAddr: 0x439C, symBinAddr: 0x10001EEB4, symSize: 0x34 }
  - { offsetInCU: 0xE813, offset: 0x4DF35, size: 0x8, addend: 0x0, symName: __ZNKSt3__114__move_trivialclB8ue170006IPNS_17reference_wrapperI5valueEES5_Li0EEENS_4pairIPT_PT0_EES8_S8_SA_, symObjAddr: 0x456C, symBinAddr: 0x10001F084, symSize: 0x48 }
  - { offsetInCU: 0xE87F, offset: 0x4DFA1, size: 0x8, addend: 0x0, symName: __ZNSt3__14pairIPPNS_17reference_wrapperI5valueEES5_EC1B8ue170006IRS5_S5_LPv0EEEOT_OT0_, symObjAddr: 0x4794, symBinAddr: 0x10001F2AC, symSize: 0x3C }
  - { offsetInCU: 0xE8DC, offset: 0x4DFFE, size: 0x8, addend: 0x0, symName: __ZNSt3__14pairIPPNS_17reference_wrapperI5valueEES5_EC2B8ue170006IRS5_S5_LPv0EEEOT_OT0_, symObjAddr: 0x47D0, symBinAddr: 0x10001F2E8, symSize: 0x34 }
  - { offsetInCU: 0xE939, offset: 0x4E05B, size: 0x8, addend: 0x0, symName: __ZNSt3__118__unwrap_iter_implIPPNS_17reference_wrapperI5valueEELb1EE8__unwrapB8ue170006ES5_, symObjAddr: 0x4804, symBinAddr: 0x10001F31C, symSize: 0x24 }
  - { offsetInCU: 0xE95B, offset: 0x4E07D, size: 0x8, addend: 0x0, symName: __ZNSt3__14pairIPPNS_17reference_wrapperI5valueEES5_EC1B8ue170006IS5_S5_LPv0EEEOT_OT0_, symObjAddr: 0x4828, symBinAddr: 0x10001F340, symSize: 0x3C }
  - { offsetInCU: 0xE9B8, offset: 0x4E0DA, size: 0x8, addend: 0x0, symName: __ZNSt3__14pairIPPNS_17reference_wrapperI5valueEES5_EC2B8ue170006IS5_S5_LPv0EEEOT_OT0_, symObjAddr: 0x4864, symBinAddr: 0x10001F37C, symSize: 0x34 }
  - { offsetInCU: 0xEA15, offset: 0x4E137, size: 0x8, addend: 0x0, symName: __ZNSt3__118__unwrap_iter_implIPPNS_17reference_wrapperI5valueEELb1EE8__rewrapB8ue170006ES5_S5_, symObjAddr: 0x4898, symBinAddr: 0x10001F3B0, symSize: 0x50 }
  - { offsetInCU: 0xEA45, offset: 0x4E167, size: 0x8, addend: 0x0, symName: __ZNSt3__114__split_bufferIPNS_17reference_wrapperI5valueEERNS_9allocatorIS4_EEE28__construct_at_end_with_sizeINS_13move_iteratorIPS4_EEEEvT_m, symObjAddr: 0x48E8, symBinAddr: 0x10001F400, symSize: 0xDC }
  - { offsetInCU: 0xEAAA, offset: 0x4E1CC, size: 0x8, addend: 0x0, symName: __ZNSt3__114__split_bufferIPNS_17reference_wrapperI5valueEERNS_9allocatorIS4_EEE21_ConstructTransactionC1B8ue170006EPPS4_m, symObjAddr: 0x4A00, symBinAddr: 0x10001F518, symSize: 0x3C }
  - { offsetInCU: 0xEAEE, offset: 0x4E210, size: 0x8, addend: 0x0, symName: __ZNSt3__116allocator_traitsINS_9allocatorIPNS_17reference_wrapperI5valueEEEEE9constructB8ue170006IS5_JS5_EvEEvRS6_PT_DpOT0_, symObjAddr: 0x4A3C, symBinAddr: 0x10001F554, symSize: 0x34 }
  - { offsetInCU: 0xEB44, offset: 0x4E266, size: 0x8, addend: 0x0, symName: __ZNSt3__114__split_bufferIPNS_17reference_wrapperI5valueEERNS_9allocatorIS4_EEE7__allocB8ue170006Ev, symObjAddr: 0x4A70, symBinAddr: 0x10001F588, symSize: 0x28 }
  - { offsetInCU: 0xEB68, offset: 0x4E28A, size: 0x8, addend: 0x0, symName: __ZNKSt3__113move_iteratorIPPNS_17reference_wrapperI5valueEEEdeB8ue170006Ev, symObjAddr: 0x4A98, symBinAddr: 0x10001F5B0, symSize: 0x18 }
  - { offsetInCU: 0xEB8C, offset: 0x4E2AE, size: 0x8, addend: 0x0, symName: __ZNSt3__113move_iteratorIPPNS_17reference_wrapperI5valueEEEppB8ue170006Ev, symObjAddr: 0x4AB0, symBinAddr: 0x10001F5C8, symSize: 0x20 }
  - { offsetInCU: 0xEBB0, offset: 0x4E2D2, size: 0x8, addend: 0x0, symName: __ZNSt3__114__split_bufferIPNS_17reference_wrapperI5valueEERNS_9allocatorIS4_EEE21_ConstructTransactionD1B8ue170006Ev, symObjAddr: 0x4AD0, symBinAddr: 0x10001F5E8, symSize: 0x2C }
  - { offsetInCU: 0xEBD8, offset: 0x4E2FA, size: 0x8, addend: 0x0, symName: __ZNSt3__114__split_bufferIPNS_17reference_wrapperI5valueEERNS_9allocatorIS4_EEE21_ConstructTransactionC2B8ue170006EPPS4_m, symObjAddr: 0x4AFC, symBinAddr: 0x10001F614, symSize: 0x44 }
  - { offsetInCU: 0xEC1C, offset: 0x4E33E, size: 0x8, addend: 0x0, symName: __ZNSt3__19allocatorIPNS_17reference_wrapperI5valueEEE9constructB8ue170006IS4_JS4_EEEvPT_DpOT0_, symObjAddr: 0x4B40, symBinAddr: 0x10001F658, symSize: 0x28 }
  - { offsetInCU: 0xEC70, offset: 0x4E392, size: 0x8, addend: 0x0, symName: __ZNSt3__117__compressed_pairIPPNS_17reference_wrapperI5valueEERNS_9allocatorIS4_EEE6secondB8ue170006Ev, symObjAddr: 0x4B68, symBinAddr: 0x10001F680, symSize: 0x28 }
  - { offsetInCU: 0xEC94, offset: 0x4E3B6, size: 0x8, addend: 0x0, symName: __ZNSt3__122__compressed_pair_elemIRNS_9allocatorIPNS_17reference_wrapperI5valueEEEELi1ELb0EE5__getB8ue170006Ev, symObjAddr: 0x4B90, symBinAddr: 0x10001F6A8, symSize: 0x18 }
  - { offsetInCU: 0xECB8, offset: 0x4E3DA, size: 0x8, addend: 0x0, symName: __ZNSt3__114__split_bufferIPNS_17reference_wrapperI5valueEERNS_9allocatorIS4_EEE21_ConstructTransactionD2B8ue170006Ev, symObjAddr: 0x4BA8, symBinAddr: 0x10001F6C0, symSize: 0x20 }
  - { offsetInCU: 0xECE0, offset: 0x4E402, size: 0x8, addend: 0x0, symName: __ZNKSt3__113move_iteratorIPPNS_17reference_wrapperI5valueEEE4baseB8ue170006Ev, symObjAddr: 0x4C40, symBinAddr: 0x10001F758, symSize: 0x18 }
  - { offsetInCU: 0xED04, offset: 0x4E426, size: 0x8, addend: 0x0, symName: __ZNSt3__113move_iteratorIPPNS_17reference_wrapperI5valueEEEC2B8ue170006ES5_, symObjAddr: 0x4C58, symBinAddr: 0x10001F770, symSize: 0x20 }
  - { offsetInCU: 0xED3A, offset: 0x4E45C, size: 0x8, addend: 0x0, symName: __ZNSt3__19allocatorIPNS_17reference_wrapperI5valueEEE9constructB8ue170006IS4_JRKS4_EEEvPT_DpOT0_, symObjAddr: 0x4C78, symBinAddr: 0x10001F790, symSize: 0x28 }
  - { offsetInCU: 0xED8E, offset: 0x4E4B0, size: 0x8, addend: 0x0, symName: __ZNSt3__19allocatorINS_17reference_wrapperI5valueEEE8allocateB8ue170006Em, symObjAddr: 0x4CA0, symBinAddr: 0x10001F7B8, symSize: 0x58 }
  - { offsetInCU: 0xEDCA, offset: 0x4E4EC, size: 0x8, addend: 0x0, symName: __ZNSt3__116allocator_traitsINS_9allocatorINS_17reference_wrapperI5valueEEEEE8max_sizeB8ue170006IS5_vEEmRKS5_, symObjAddr: 0x4CF8, symBinAddr: 0x10001F810, symSize: 0x24 }
  - { offsetInCU: 0xEDF7, offset: 0x4E519, size: 0x8, addend: 0x0, symName: __ZNKSt3__19allocatorINS_17reference_wrapperI5valueEEE8max_sizeB8ue170006Ev, symObjAddr: 0x4DB0, symBinAddr: 0x10001F834, symSize: 0x14 }
  - { offsetInCU: 0xEE25, offset: 0x4E547, size: 0x8, addend: 0x0, symName: __ZNKSt3__123__move_backward_trivialclB8ue170006IPNS_17reference_wrapperI5valueEES5_Li0EEENS_4pairIPT_PT0_EES8_S8_SA_, symObjAddr: 0x4F90, symBinAddr: 0x10001F9C4, symSize: 0x48 }
  - { offsetInCU: 0xEE8C, offset: 0x4E5AE, size: 0x8, addend: 0x0, symName: __ZNSt3__14pairIPPNS_17reference_wrapperI5valueEES5_EC1B8ue170006IRS5_S8_LPv0EEEOT_OT0_, symObjAddr: 0x50A0, symBinAddr: 0x10001FAD4, symSize: 0x3C }
  - { offsetInCU: 0xEEE9, offset: 0x4E60B, size: 0x8, addend: 0x0, symName: __ZNSt3__14pairIPPNS_17reference_wrapperI5valueEES5_EC2B8ue170006IRS5_S8_LPv0EEEOT_OT0_, symObjAddr: 0x50DC, symBinAddr: 0x10001FB10, symSize: 0x34 }
  - { offsetInCU: 0xEF46, offset: 0x4E668, size: 0x8, addend: 0x0, symName: __ZNSt3__114__split_bufferIPNS_17reference_wrapperI5valueEERNS_9allocatorIS4_EEEC2EmmS7_, symObjAddr: 0x5198, symBinAddr: 0x10001FB44, symSize: 0xD4 }
  - { offsetInCU: 0xEFBD, offset: 0x4E6DF, size: 0x8, addend: 0x0, symName: __ZNSt3__117__compressed_pairIPPNS_17reference_wrapperI5valueEERNS_9allocatorIS4_EEEC1B8ue170006IDnS8_EEOT_OT0_, symObjAddr: 0x526C, symBinAddr: 0x10001FC18, symSize: 0x3C }
  - { offsetInCU: 0xF013, offset: 0x4E735, size: 0x8, addend: 0x0, symName: __ZNSt3__117__compressed_pairIPPNS_17reference_wrapperI5valueEERNS_9allocatorIS4_EEEC2B8ue170006IDnS8_EEOT_OT0_, symObjAddr: 0x52E8, symBinAddr: 0x10001FC94, symSize: 0x48 }
  - { offsetInCU: 0xF069, offset: 0x4E78B, size: 0x8, addend: 0x0, symName: __ZNSt3__122__compressed_pair_elemIPPNS_17reference_wrapperI5valueEELi0ELb0EEC2B8ue170006IDnvEEOT_, symObjAddr: 0x5330, symBinAddr: 0x10001FCDC, symSize: 0x1C }
  - { offsetInCU: 0xF0A9, offset: 0x4E7CB, size: 0x8, addend: 0x0, symName: __ZNSt3__122__compressed_pair_elemIRNS_9allocatorIPNS_17reference_wrapperI5valueEEEELi1ELb0EEC2B8ue170006IS7_vEEOT_, symObjAddr: 0x534C, symBinAddr: 0x10001FCF8, symSize: 0x20 }
  - { offsetInCU: 0xF0E9, offset: 0x4E80B, size: 0x8, addend: 0x0, symName: __ZNSt3__19allocatorIPNS_17reference_wrapperI5valueEEE8allocateB8ue170006Em, symObjAddr: 0x536C, symBinAddr: 0x10001FD18, symSize: 0x58 }
  - { offsetInCU: 0xF125, offset: 0x4E847, size: 0x8, addend: 0x0, symName: __ZNSt3__116allocator_traitsINS_9allocatorIPNS_17reference_wrapperI5valueEEEEE8max_sizeB8ue170006IS6_vEEmRKS6_, symObjAddr: 0x53C4, symBinAddr: 0x10001FD70, symSize: 0x24 }
  - { offsetInCU: 0xF152, offset: 0x4E874, size: 0x8, addend: 0x0, symName: __ZNKSt3__19allocatorIPNS_17reference_wrapperI5valueEEE8max_sizeB8ue170006Ev, symObjAddr: 0x53E8, symBinAddr: 0x10001FD94, symSize: 0x14 }
  - { offsetInCU: 0xF176, offset: 0x4E898, size: 0x8, addend: 0x0, symName: __ZNSt3__122__allocator_destructorINS_9allocatorINS_17reference_wrapperI5valueEEEEEC2B8ue170006ERS5_m, symObjAddr: 0x53FC, symBinAddr: 0x10001FDA8, symSize: 0x2C }
  - { offsetInCU: 0xF1BA, offset: 0x4E8DC, size: 0x8, addend: 0x0, symName: __ZNSt3__110unique_ptrIPNS_17reference_wrapperI5valueEENS_22__allocator_destructorINS_9allocatorIS3_EEEEEC2B8ue170006ILb1EvEES4_NS_16__dependent_typeINS_27__unique_ptr_deleter_sfinaeIS8_EEXT_EE20__good_rval_ref_typeE, symObjAddr: 0x5428, symBinAddr: 0x10001FDD4, symSize: 0x48 }
  - { offsetInCU: 0xF209, offset: 0x4E92B, size: 0x8, addend: 0x0, symName: __ZNSt3__117__compressed_pairIPNS_17reference_wrapperI5valueEENS_22__allocator_destructorINS_9allocatorIS3_EEEEEC1B8ue170006IRS4_S8_EEOT_OT0_, symObjAddr: 0x5470, symBinAddr: 0x10001FE1C, symSize: 0x3C }
  - { offsetInCU: 0xF25F, offset: 0x4E981, size: 0x8, addend: 0x0, symName: __ZNSt3__117__compressed_pairIPNS_17reference_wrapperI5valueEENS_22__allocator_destructorINS_9allocatorIS3_EEEEEC2B8ue170006IRS4_S8_EEOT_OT0_, symObjAddr: 0x54AC, symBinAddr: 0x10001FE58, symSize: 0x48 }
  - { offsetInCU: 0xF2B5, offset: 0x4E9D7, size: 0x8, addend: 0x0, symName: __ZNSt3__122__compressed_pair_elemIPNS_17reference_wrapperI5valueEELi0ELb0EEC2B8ue170006IRS4_vEEOT_, symObjAddr: 0x54F4, symBinAddr: 0x10001FEA0, symSize: 0x24 }
  - { offsetInCU: 0xF2F5, offset: 0x4EA17, size: 0x8, addend: 0x0, symName: __ZNSt3__122__compressed_pair_elemINS_22__allocator_destructorINS_9allocatorINS_17reference_wrapperI5valueEEEEEELi1ELb0EEC2B8ue170006IS7_vEEOT_, symObjAddr: 0x5518, symBinAddr: 0x10001FEC4, symSize: 0x24 }
  - { offsetInCU: 0xF335, offset: 0x4EA57, size: 0x8, addend: 0x0, symName: __ZNKSt3__117__compressed_pairIPNS_17reference_wrapperI5valueEENS_22__allocator_destructorINS_9allocatorIS3_EEEEE5firstB8ue170006Ev, symObjAddr: 0x553C, symBinAddr: 0x10001FEE8, symSize: 0x24 }
  - { offsetInCU: 0xF359, offset: 0x4EA7B, size: 0x8, addend: 0x0, symName: __ZNSt3__117__compressed_pairIPNS_17reference_wrapperI5valueEENS_22__allocator_destructorINS_9allocatorIS3_EEEEE5firstB8ue170006Ev, symObjAddr: 0x5560, symBinAddr: 0x10001FF0C, symSize: 0x24 }
  - { offsetInCU: 0xF37D, offset: 0x4EA9F, size: 0x8, addend: 0x0, symName: __ZNSt3__122__compressed_pair_elemIPNS_17reference_wrapperI5valueEELi0ELb0EE5__getB8ue170006Ev, symObjAddr: 0x5584, symBinAddr: 0x10001FF30, symSize: 0x14 }
  - { offsetInCU: 0xF3A1, offset: 0x4EAC3, size: 0x8, addend: 0x0, symName: __ZNSt3__117__compressed_pairIPPNS_17reference_wrapperI5valueEENS_9allocatorIS4_EEE5firstB8ue170006Ev, symObjAddr: 0x5598, symBinAddr: 0x10001FF44, symSize: 0x24 }
  - { offsetInCU: 0xF3C5, offset: 0x4EAE7, size: 0x8, addend: 0x0, symName: __ZNSt3__122__compressed_pair_elemIPPNS_17reference_wrapperI5valueEELi0ELb0EE5__getB8ue170006Ev, symObjAddr: 0x55BC, symBinAddr: 0x10001FF68, symSize: 0x14 }
  - { offsetInCU: 0xF3E9, offset: 0x4EB0B, size: 0x8, addend: 0x0, symName: __ZNSt3__117__compressed_pairIPPNS_17reference_wrapperI5valueEERNS_9allocatorIS4_EEE5firstB8ue170006Ev, symObjAddr: 0x55D0, symBinAddr: 0x10001FF7C, symSize: 0x24 }
  - { offsetInCU: 0xF40D, offset: 0x4EB2F, size: 0x8, addend: 0x0, symName: __ZNSt3__110unique_ptrIPNS_17reference_wrapperI5valueEENS_22__allocator_destructorINS_9allocatorIS3_EEEEED2B8ue170006Ev, symObjAddr: 0x55F4, symBinAddr: 0x10001FFA0, symSize: 0x30 }
  - { offsetInCU: 0xF435, offset: 0x4EB57, size: 0x8, addend: 0x0, symName: __ZNSt3__110unique_ptrIPNS_17reference_wrapperI5valueEENS_22__allocator_destructorINS_9allocatorIS3_EEEEE5resetB8ue170006ES4_, symObjAddr: 0x5624, symBinAddr: 0x10001FFD0, symSize: 0x78 }
  - { offsetInCU: 0xF477, offset: 0x4EB99, size: 0x8, addend: 0x0, symName: __ZNSt3__117__compressed_pairIPNS_17reference_wrapperI5valueEENS_22__allocator_destructorINS_9allocatorIS3_EEEEE6secondB8ue170006Ev, symObjAddr: 0x569C, symBinAddr: 0x100020048, symSize: 0x28 }
  - { offsetInCU: 0xF49B, offset: 0x4EBBD, size: 0x8, addend: 0x0, symName: __ZNSt3__122__allocator_destructorINS_9allocatorINS_17reference_wrapperI5valueEEEEEclB8ue170006EPS4_, symObjAddr: 0x56C4, symBinAddr: 0x100020070, symSize: 0x34 }
  - { offsetInCU: 0xF4CD, offset: 0x4EBEF, size: 0x8, addend: 0x0, symName: __ZNSt3__122__compressed_pair_elemINS_22__allocator_destructorINS_9allocatorINS_17reference_wrapperI5valueEEEEEELi1ELb0EE5__getB8ue170006Ev, symObjAddr: 0x56F8, symBinAddr: 0x1000200A4, symSize: 0x14 }
  - { offsetInCU: 0xF4F1, offset: 0x4EC13, size: 0x8, addend: 0x0, symName: __ZNSt3__114__split_bufferIPNS_17reference_wrapperI5valueEERNS_9allocatorIS4_EEED2Ev, symObjAddr: 0x570C, symBinAddr: 0x1000200B8, symSize: 0x8C }
  - { offsetInCU: 0xF51C, offset: 0x4EC3E, size: 0x8, addend: 0x0, symName: __ZNSt3__114__split_bufferIPNS_17reference_wrapperI5valueEERNS_9allocatorIS4_EEE5clearB8ue170006Ev, symObjAddr: 0x5798, symBinAddr: 0x100020144, symSize: 0x28 }
  - { offsetInCU: 0xF540, offset: 0x4EC62, size: 0x8, addend: 0x0, symName: __ZNKSt3__114__split_bufferIPNS_17reference_wrapperI5valueEERNS_9allocatorIS4_EEE8capacityB8ue170006Ev, symObjAddr: 0x57C0, symBinAddr: 0x10002016C, symSize: 0x40 }
  - { offsetInCU: 0xF564, offset: 0x4EC86, size: 0x8, addend: 0x0, symName: __ZNSt3__114__split_bufferIPNS_17reference_wrapperI5valueEERNS_9allocatorIS4_EEE17__destruct_at_endB8ue170006EPS4_, symObjAddr: 0x5800, symBinAddr: 0x1000201AC, symSize: 0x2C }
  - { offsetInCU: 0xF596, offset: 0x4ECB8, size: 0x8, addend: 0x0, symName: __ZNSt3__114__split_bufferIPNS_17reference_wrapperI5valueEERNS_9allocatorIS4_EEE17__destruct_at_endB8ue170006EPS4_NS_17integral_constantIbLb0EEE, symObjAddr: 0x582C, symBinAddr: 0x1000201D8, symSize: 0x80 }
  - { offsetInCU: 0xF5D6, offset: 0x4ECF8, size: 0x8, addend: 0x0, symName: __ZNKSt3__114__split_bufferIPNS_17reference_wrapperI5valueEERNS_9allocatorIS4_EEE9__end_capB8ue170006Ev, symObjAddr: 0x58AC, symBinAddr: 0x100020258, symSize: 0x28 }
  - { offsetInCU: 0xF5FA, offset: 0x4ED1C, size: 0x8, addend: 0x0, symName: __ZNKSt3__117__compressed_pairIPPNS_17reference_wrapperI5valueEERNS_9allocatorIS4_EEE5firstB8ue170006Ev, symObjAddr: 0x58D4, symBinAddr: 0x100020280, symSize: 0x24 }
  - { offsetInCU: 0xF61E, offset: 0x4ED40, size: 0x8, addend: 0x0, symName: __ZNSt3__19allocatorINS_17reference_wrapperI5valueEEE9constructB8ue170006IS3_JS3_EEEvPT_DpOT0_, symObjAddr: 0x58F8, symBinAddr: 0x1000202A4, symSize: 0x28 }
  - { offsetInCU: 0xF672, offset: 0x4ED94, size: 0x8, addend: 0x0, symName: __ZNSt3__16vectorINS_17reference_wrapperI5valueEENS_9allocatorIS3_EEEC2B8ue170006Ev, symObjAddr: 0x5920, symBinAddr: 0x1000202CC, symSize: 0x4C }
  - { offsetInCU: 0xF69A, offset: 0x4EDBC, size: 0x8, addend: 0x0, symName: __ZNSt3__117__compressed_pairIPNS_17reference_wrapperI5valueEENS_9allocatorIS3_EEEC1B8ue170006IDnNS_18__default_init_tagEEEOT_OT0_, symObjAddr: 0x596C, symBinAddr: 0x100020318, symSize: 0x3C }
  - { offsetInCU: 0xF6F0, offset: 0x4EE12, size: 0x8, addend: 0x0, symName: __ZNSt3__117__compressed_pairIPNS_17reference_wrapperI5valueEENS_9allocatorIS3_EEEC2B8ue170006IDnNS_18__default_init_tagEEEOT_OT0_, symObjAddr: 0x59A8, symBinAddr: 0x100020354, symSize: 0x40 }
  - { offsetInCU: 0xF746, offset: 0x4EE68, size: 0x8, addend: 0x0, symName: __ZNSt3__122__compressed_pair_elemIPNS_17reference_wrapperI5valueEELi0ELb0EEC2B8ue170006IDnvEEOT_, symObjAddr: 0x59E8, symBinAddr: 0x100020394, symSize: 0x1C }
  - { offsetInCU: 0xF786, offset: 0x4EEA8, size: 0x8, addend: 0x0, symName: __ZNSt3__122__compressed_pair_elemINS_9allocatorINS_17reference_wrapperI5valueEEEELi1ELb1EEC2B8ue170006ENS_18__default_init_tagE, symObjAddr: 0x5A04, symBinAddr: 0x1000203B0, symSize: 0x2C }
  - { offsetInCU: 0xF7B9, offset: 0x4EEDB, size: 0x8, addend: 0x0, symName: __ZNSt3__19allocatorINS_17reference_wrapperI5valueEEEC2B8ue170006Ev, symObjAddr: 0x5A30, symBinAddr: 0x1000203DC, symSize: 0x2C }
  - { offsetInCU: 0xF7E1, offset: 0x4EF03, size: 0x8, addend: 0x0, symName: __ZNSt3__116__non_trivial_ifILb1ENS_9allocatorINS_17reference_wrapperI5valueEEEEEC2B8ue170006Ev, symObjAddr: 0x5A5C, symBinAddr: 0x100020408, symSize: 0x14 }
  - { offsetInCU: 0xF809, offset: 0x4EF2B, size: 0x8, addend: 0x0, symName: __ZNSt3__16vectorINS_17reference_wrapperI5valueEENS_9allocatorIS3_EEEC2B8ue170006EOS6_, symObjAddr: 0x5A70, symBinAddr: 0x10002041C, symSize: 0xC4 }
  - { offsetInCU: 0xF848, offset: 0x4EF6A, size: 0x8, addend: 0x0, symName: __ZNSt3__117__compressed_pairIPNS_17reference_wrapperI5valueEENS_9allocatorIS3_EEEC1B8ue170006IDnS6_EEOT_OT0_, symObjAddr: 0x5B34, symBinAddr: 0x1000204E0, symSize: 0x3C }
  - { offsetInCU: 0xF89E, offset: 0x4EFC0, size: 0x8, addend: 0x0, symName: __ZNSt3__16vectorINS_17reference_wrapperI5valueEENS_9allocatorIS3_EEE9__end_capB8ue170006Ev, symObjAddr: 0x5B70, symBinAddr: 0x10002051C, symSize: 0x28 }
  - { offsetInCU: 0xF8C2, offset: 0x4EFE4, size: 0x8, addend: 0x0, symName: __ZNSt3__117__compressed_pairIPNS_17reference_wrapperI5valueEENS_9allocatorIS3_EEEC2B8ue170006IDnS6_EEOT_OT0_, symObjAddr: 0x5B98, symBinAddr: 0x100020544, symSize: 0x44 }
  - { offsetInCU: 0xF918, offset: 0x4F03A, size: 0x8, addend: 0x0, symName: __ZNSt3__122__compressed_pair_elemINS_9allocatorINS_17reference_wrapperI5valueEEEELi1ELb1EEC2B8ue170006IS5_vEEOT_, symObjAddr: 0x5BDC, symBinAddr: 0x100020588, symSize: 0x18 }
  - { offsetInCU: 0xF958, offset: 0x4F07A, size: 0x8, addend: 0x0, symName: __ZNSt3__117__compressed_pairIPNS_17reference_wrapperI5valueEENS_9allocatorIS3_EEE5firstB8ue170006Ev, symObjAddr: 0x5BF4, symBinAddr: 0x1000205A0, symSize: 0x24 }
  - { offsetInCU: 0xF981, offset: 0x4F0A3, size: 0x8, addend: 0x0, symName: __ZNSt3__117reference_wrapperI5valueEC1B8ue170006IRS1_vEEOT_, symObjAddr: 0x5C18, symBinAddr: 0x1000205C4, symSize: 0x34 }
  - { offsetInCU: 0xF9C1, offset: 0x4F0E3, size: 0x8, addend: 0x0, symName: __ZNSt3__117reference_wrapperI5valueEC2B8ue170006IRS1_vEEOT_, symObjAddr: 0x5C4C, symBinAddr: 0x1000205F8, symSize: 0x28 }
  - { offsetInCU: 0xFA1D, offset: 0x4F13F, size: 0x8, addend: 0x0, symName: __ZNSt3__16vectorINS_17reference_wrapperI5valueEENS_9allocatorIS3_EEE22__construct_one_at_endB8ue170006IJS3_EEEvDpOT_, symObjAddr: 0x5C74, symBinAddr: 0x100020620, symSize: 0x90 }
  - { offsetInCU: 0xFA6A, offset: 0x4F18C, size: 0x8, addend: 0x0, symName: __ZNSt3__16vectorINS_17reference_wrapperI5valueEENS_9allocatorIS3_EEE21__push_back_slow_pathIS3_EEvOT_, symObjAddr: 0x5D04, symBinAddr: 0x1000206B0, symSize: 0xD8 }
  - { offsetInCU: 0xFAE0, offset: 0x4F202, size: 0x8, addend: 0x0, symName: __ZNSt3__16vectorINS_17reference_wrapperI5valueEENS_9allocatorIS3_EEE21_ConstructTransactionC1B8ue170006ERS6_m, symObjAddr: 0x5DDC, symBinAddr: 0x100020788, symSize: 0x3C }
  - { offsetInCU: 0xFB26, offset: 0x4F248, size: 0x8, addend: 0x0, symName: __ZNSt3__16vectorINS_17reference_wrapperI5valueEENS_9allocatorIS3_EEE21_ConstructTransactionD1B8ue170006Ev, symObjAddr: 0x5E18, symBinAddr: 0x1000207C4, symSize: 0x2C }
  - { offsetInCU: 0xFB4E, offset: 0x4F270, size: 0x8, addend: 0x0, symName: __ZNSt3__16vectorINS_17reference_wrapperI5valueEENS_9allocatorIS3_EEE21_ConstructTransactionC2B8ue170006ERS6_m, symObjAddr: 0x5E44, symBinAddr: 0x1000207F0, symSize: 0x44 }
  - { offsetInCU: 0xFB94, offset: 0x4F2B6, size: 0x8, addend: 0x0, symName: __ZNSt3__16vectorINS_17reference_wrapperI5valueEENS_9allocatorIS3_EEE21_ConstructTransactionD2B8ue170006Ev, symObjAddr: 0x5E88, symBinAddr: 0x100020834, symSize: 0x20 }
  - { offsetInCU: 0xFBBC, offset: 0x4F2DE, size: 0x8, addend: 0x0, symName: __ZNKSt3__16vectorINS_17reference_wrapperI5valueEENS_9allocatorIS3_EEE11__recommendB8ue170006Em, symObjAddr: 0x5EA8, symBinAddr: 0x100020854, symSize: 0xB4 }
  - { offsetInCU: 0xFC10, offset: 0x4F332, size: 0x8, addend: 0x0, symName: __ZNSt3__114__split_bufferINS_17reference_wrapperI5valueEERNS_9allocatorIS3_EEEC1EmmS6_, symObjAddr: 0x5F5C, symBinAddr: 0x100020908, symSize: 0x44 }
  - { offsetInCU: 0xFC65, offset: 0x4F387, size: 0x8, addend: 0x0, symName: __ZNSt3__114__split_bufferINS_17reference_wrapperI5valueEERNS_9allocatorIS3_EEED1Ev, symObjAddr: 0x60B0, symBinAddr: 0x100020A5C, symSize: 0x2C }
  - { offsetInCU: 0xFC90, offset: 0x4F3B2, size: 0x8, addend: 0x0, symName: __ZNKSt3__16vectorINS_17reference_wrapperI5valueEENS_9allocatorIS3_EEE8max_sizeEv, symObjAddr: 0x60DC, symBinAddr: 0x100020A88, symSize: 0x60 }
  - { offsetInCU: 0xFCB7, offset: 0x4F3D9, size: 0x8, addend: 0x0, symName: __ZNKSt3__16vectorINS_17reference_wrapperI5valueEENS_9allocatorIS3_EEE20__throw_length_errorB8ue170006Ev, symObjAddr: 0x613C, symBinAddr: 0x100020AE8, symSize: 0x1C }
  - { offsetInCU: 0xFCDB, offset: 0x4F3FD, size: 0x8, addend: 0x0, symName: __ZNKSt3__16vectorINS_17reference_wrapperI5valueEENS_9allocatorIS3_EEE7__allocB8ue170006Ev, symObjAddr: 0x6184, symBinAddr: 0x100020B04, symSize: 0x28 }
  - { offsetInCU: 0xFCFF, offset: 0x4F421, size: 0x8, addend: 0x0, symName: __ZNKSt3__117__compressed_pairIPNS_17reference_wrapperI5valueEENS_9allocatorIS3_EEE6secondB8ue170006Ev, symObjAddr: 0x6214, symBinAddr: 0x100020B2C, symSize: 0x24 }
  - { offsetInCU: 0xFD23, offset: 0x4F445, size: 0x8, addend: 0x0, symName: __ZNKSt3__122__compressed_pair_elemINS_9allocatorINS_17reference_wrapperI5valueEEEELi1ELb1EE5__getB8ue170006Ev, symObjAddr: 0x6238, symBinAddr: 0x100020B50, symSize: 0x14 }
  - { offsetInCU: 0xFD47, offset: 0x4F469, size: 0x8, addend: 0x0, symName: __ZNSt3__114__split_bufferINS_17reference_wrapperI5valueEERNS_9allocatorIS3_EEEC2EmmS6_, symObjAddr: 0x6338, symBinAddr: 0x100020B64, symSize: 0xD4 }
  - { offsetInCU: 0xFDB9, offset: 0x4F4DB, size: 0x8, addend: 0x0, symName: __ZNSt3__117__compressed_pairIPNS_17reference_wrapperI5valueEERNS_9allocatorIS3_EEEC1B8ue170006IDnS7_EEOT_OT0_, symObjAddr: 0x640C, symBinAddr: 0x100020C38, symSize: 0x3C }
  - { offsetInCU: 0xFE0F, offset: 0x4F531, size: 0x8, addend: 0x0, symName: __ZNSt3__114__split_bufferINS_17reference_wrapperI5valueEERNS_9allocatorIS3_EEE7__allocB8ue170006Ev, symObjAddr: 0x6488, symBinAddr: 0x100020CB4, symSize: 0x28 }
  - { offsetInCU: 0xFE33, offset: 0x4F555, size: 0x8, addend: 0x0, symName: __ZNSt3__114__split_bufferINS_17reference_wrapperI5valueEERNS_9allocatorIS3_EEE9__end_capB8ue170006Ev, symObjAddr: 0x64B0, symBinAddr: 0x100020CDC, symSize: 0x28 }
  - { offsetInCU: 0xFE57, offset: 0x4F579, size: 0x8, addend: 0x0, symName: __ZNSt3__117__compressed_pairIPNS_17reference_wrapperI5valueEERNS_9allocatorIS3_EEEC2B8ue170006IDnS7_EEOT_OT0_, symObjAddr: 0x64D8, symBinAddr: 0x100020D04, symSize: 0x48 }
  - { offsetInCU: 0xFEAD, offset: 0x4F5CF, size: 0x8, addend: 0x0, symName: __ZNSt3__122__compressed_pair_elemIRNS_9allocatorINS_17reference_wrapperI5valueEEEELi1ELb0EEC2B8ue170006IS6_vEEOT_, symObjAddr: 0x6520, symBinAddr: 0x100020D4C, symSize: 0x20 }
  - { offsetInCU: 0xFEED, offset: 0x4F60F, size: 0x8, addend: 0x0, symName: __ZNSt3__117__compressed_pairIPNS_17reference_wrapperI5valueEERNS_9allocatorIS3_EEE6secondB8ue170006Ev, symObjAddr: 0x6540, symBinAddr: 0x100020D6C, symSize: 0x28 }
  - { offsetInCU: 0xFF11, offset: 0x4F633, size: 0x8, addend: 0x0, symName: __ZNSt3__122__compressed_pair_elemIRNS_9allocatorINS_17reference_wrapperI5valueEEEELi1ELb0EE5__getB8ue170006Ev, symObjAddr: 0x6568, symBinAddr: 0x100020D94, symSize: 0x18 }
  - { offsetInCU: 0xFF35, offset: 0x4F657, size: 0x8, addend: 0x0, symName: __ZNSt3__117__compressed_pairIPNS_17reference_wrapperI5valueEERNS_9allocatorIS3_EEE5firstB8ue170006Ev, symObjAddr: 0x6580, symBinAddr: 0x100020DAC, symSize: 0x24 }
  - { offsetInCU: 0xFF59, offset: 0x4F67B, size: 0x8, addend: 0x0, symName: __ZNSt3__116reverse_iteratorIPNS_17reference_wrapperI5valueEEEC1B8ue170006ES4_, symObjAddr: 0x661C, symBinAddr: 0x100020E48, symSize: 0x34 }
  - { offsetInCU: 0xFF8F, offset: 0x4F6B1, size: 0x8, addend: 0x0, symName: __ZNKSt3__116reverse_iteratorIPNS_17reference_wrapperI5valueEEE4baseB8ue170006Ev, symObjAddr: 0x6650, symBinAddr: 0x100020E7C, symSize: 0x18 }
  - { offsetInCU: 0xFFB3, offset: 0x4F6D5, size: 0x8, addend: 0x0, symName: __ZNKSt3__16vectorINS_17reference_wrapperI5valueEENS_9allocatorIS3_EEE14__annotate_newB8ue170006Em, symObjAddr: 0x66A4, symBinAddr: 0x100020ED0, symSize: 0xAC }
  - { offsetInCU: 0x10009, offset: 0x4F72B, size: 0x8, addend: 0x0, symName: __ZNKSt3__111__move_loopINS_17_ClassicAlgPolicyEEclB8ue170006INS_16reverse_iteratorIPNS_17reference_wrapperI5valueEEEES9_S9_EENS_4pairIT_T1_EESB_T0_SC_, symObjAddr: 0x6A40, symBinAddr: 0x10002126C, symSize: 0xA0 }
  - { offsetInCU: 0x10072, offset: 0x4F794, size: 0x8, addend: 0x0, symName: __ZNSt3__18_IterOpsINS_17_ClassicAlgPolicyEE11__iter_moveB8ue170006IRNS_16reverse_iteratorIPNS_17reference_wrapperI5valueEEEEEENS_9enable_ifIXsr12is_referenceIDTdeclsr3stdE7declvalIRT_EEEEE5valueEDTclsr3stdE4movedeclsr3stdE7declvalISD_EEEEE4typeEOSC_, symObjAddr: 0x6C74, symBinAddr: 0x1000214A0, symSize: 0x28 }
  - { offsetInCU: 0x1009D, offset: 0x4F7BF, size: 0x8, addend: 0x0, symName: __ZNKSt3__116reverse_iteratorIPNS_17reference_wrapperI5valueEEEdeB8ue170006Ev, symObjAddr: 0x6C9C, symBinAddr: 0x1000214C8, symSize: 0x28 }
  - { offsetInCU: 0x100CF, offset: 0x4F7F1, size: 0x8, addend: 0x0, symName: __ZNSt3__116reverse_iteratorIPNS_17reference_wrapperI5valueEEEppB8ue170006Ev, symObjAddr: 0x6CC4, symBinAddr: 0x1000214F0, symSize: 0x20 }
  - { offsetInCU: 0x100F3, offset: 0x4F815, size: 0x8, addend: 0x0, symName: __ZNSt3__18_IterOpsINS_17_ClassicAlgPolicyEE25__validate_iter_referenceB8ue170006IRNS_16reverse_iteratorIPNS_17reference_wrapperI5valueEEEEEEvv, symObjAddr: 0x6CE4, symBinAddr: 0x100021510, symSize: 0x4 }
  - { offsetInCU: 0x10111, offset: 0x4F833, size: 0x8, addend: 0x0, symName: __ZNSt3__118__unwrap_iter_implINS_16reverse_iteratorIPNS_17reference_wrapperI5valueEEEELb0EE8__unwrapB8ue170006ES6_, symObjAddr: 0x6CE8, symBinAddr: 0x100021514, symSize: 0x24 }
  - { offsetInCU: 0x10139, offset: 0x4F85B, size: 0x8, addend: 0x0, symName: __ZNSt3__14pairINS_16reverse_iteratorIPNS_17reference_wrapperI5valueEEEES6_EC1B8ue170006IS6_S6_LPv0EEEOT_OT0_, symObjAddr: 0x6D0C, symBinAddr: 0x100021538, symSize: 0x3C }
  - { offsetInCU: 0x10196, offset: 0x4F8B8, size: 0x8, addend: 0x0, symName: __ZNSt3__14pairINS_16reverse_iteratorIPNS_17reference_wrapperI5valueEEEES6_EC2B8ue170006IS6_S6_LPv0EEEOT_OT0_, symObjAddr: 0x6D48, symBinAddr: 0x100021574, symSize: 0x34 }
  - { offsetInCU: 0x101F3, offset: 0x4F915, size: 0x8, addend: 0x0, symName: __ZNSt3__118__unwrap_iter_implINS_16reverse_iteratorIPNS_17reference_wrapperI5valueEEEELb0EE8__rewrapB8ue170006ES6_S6_, symObjAddr: 0x6D7C, symBinAddr: 0x1000215A8, symSize: 0x2C }
  - { offsetInCU: 0x10221, offset: 0x4F943, size: 0x8, addend: 0x0, symName: __ZNSt3__116reverse_iteratorIPNS_17reference_wrapperI5valueEEEC2B8ue170006ES4_, symObjAddr: 0x6DA8, symBinAddr: 0x1000215D4, symSize: 0x28 }
  - { offsetInCU: 0x10257, offset: 0x4F979, size: 0x8, addend: 0x0, symName: __ZNSt3__114__split_bufferINS_17reference_wrapperI5valueEERNS_9allocatorIS3_EEED2Ev, symObjAddr: 0x6DD0, symBinAddr: 0x1000215FC, symSize: 0x8C }
  - { offsetInCU: 0x10282, offset: 0x4F9A4, size: 0x8, addend: 0x0, symName: __ZNSt3__114__split_bufferINS_17reference_wrapperI5valueEERNS_9allocatorIS3_EEE5clearB8ue170006Ev, symObjAddr: 0x6E5C, symBinAddr: 0x100021688, symSize: 0x28 }
  - { offsetInCU: 0x102A6, offset: 0x4F9C8, size: 0x8, addend: 0x0, symName: __ZNKSt3__114__split_bufferINS_17reference_wrapperI5valueEERNS_9allocatorIS3_EEE8capacityB8ue170006Ev, symObjAddr: 0x6E84, symBinAddr: 0x1000216B0, symSize: 0x40 }
  - { offsetInCU: 0x102CA, offset: 0x4F9EC, size: 0x8, addend: 0x0, symName: __ZNSt3__114__split_bufferINS_17reference_wrapperI5valueEERNS_9allocatorIS3_EEE17__destruct_at_endB8ue170006EPS3_, symObjAddr: 0x6EC4, symBinAddr: 0x1000216F0, symSize: 0x2C }
  - { offsetInCU: 0x102FC, offset: 0x4FA1E, size: 0x8, addend: 0x0, symName: __ZNSt3__114__split_bufferINS_17reference_wrapperI5valueEERNS_9allocatorIS3_EEE17__destruct_at_endB8ue170006EPS3_NS_17integral_constantIbLb0EEE, symObjAddr: 0x6EF0, symBinAddr: 0x10002171C, symSize: 0x80 }
  - { offsetInCU: 0x1033C, offset: 0x4FA5E, size: 0x8, addend: 0x0, symName: __ZNKSt3__114__split_bufferINS_17reference_wrapperI5valueEERNS_9allocatorIS3_EEE9__end_capB8ue170006Ev, symObjAddr: 0x6F70, symBinAddr: 0x10002179C, symSize: 0x28 }
  - { offsetInCU: 0x10360, offset: 0x4FA82, size: 0x8, addend: 0x0, symName: __ZNKSt3__117__compressed_pairIPNS_17reference_wrapperI5valueEERNS_9allocatorIS3_EEE5firstB8ue170006Ev, symObjAddr: 0x6F98, symBinAddr: 0x1000217C4, symSize: 0x24 }
  - { offsetInCU: 0x10384, offset: 0x4FAA6, size: 0x8, addend: 0x0, symName: __ZNSt3__16vectorINS_17reference_wrapperI5valueEENS_9allocatorIS3_EEE13__move_assignERS6_NS_17integral_constantIbLb1EEE, symObjAddr: 0x6FBC, symBinAddr: 0x1000217E8, symSize: 0x94 }
  - { offsetInCU: 0x103C5, offset: 0x4FAE7, size: 0x8, addend: 0x0, symName: __ZNSt3__16vectorINS_17reference_wrapperI5valueEENS_9allocatorIS3_EEE13__vdeallocateEv, symObjAddr: 0x7050, symBinAddr: 0x10002187C, symSize: 0x94 }
  - { offsetInCU: 0x103EC, offset: 0x4FB0E, size: 0x8, addend: 0x0, symName: __ZNSt3__16vectorINS_17reference_wrapperI5valueEENS_9allocatorIS3_EEE19__move_assign_allocB8ue170006ERS6_, symObjAddr: 0x70E4, symBinAddr: 0x100021910, symSize: 0x2C }
  - { offsetInCU: 0x1041F, offset: 0x4FB41, size: 0x8, addend: 0x0, symName: __ZNSt3__16vectorINS_17reference_wrapperI5valueEENS_9allocatorIS3_EEE5clearB8ue170006Ev, symObjAddr: 0x7110, symBinAddr: 0x10002193C, symSize: 0x44 }
  - { offsetInCU: 0x10452, offset: 0x4FB74, size: 0x8, addend: 0x0, symName: __ZNKSt3__16vectorINS_17reference_wrapperI5valueEENS_9allocatorIS3_EEE17__annotate_shrinkB8ue170006Em, symObjAddr: 0x7154, symBinAddr: 0x100021980, symSize: 0xB4 }
  - { offsetInCU: 0x10485, offset: 0x4FBA7, size: 0x8, addend: 0x0, symName: __ZNSt3__16vectorINS_17reference_wrapperI5valueEENS_9allocatorIS3_EEE19__move_assign_allocB8ue170006ERS6_NS_17integral_constantIbLb1EEE, symObjAddr: 0x7208, symBinAddr: 0x100021A34, symSize: 0x38 }
  - { offsetInCU: 0x104C3, offset: 0x4FBE5, size: 0x8, addend: 0x0, symName: __ZNSt3__119normal_distributionIdEC1B8ue170006Edd, symObjAddr: 0x7240, symBinAddr: 0x100021A6C, symSize: 0x3C }
  - { offsetInCU: 0x10507, offset: 0x4FC29, size: 0x8, addend: 0x0, symName: __ZNSt3__119normal_distributionIdEC2B8ue170006Edd, symObjAddr: 0x727C, symBinAddr: 0x100021AA8, symSize: 0x40 }
  - { offsetInCU: 0x1054B, offset: 0x4FC6D, size: 0x8, addend: 0x0, symName: __ZNSt3__119normal_distributionIdE10param_typeC1B8ue170006Edd, symObjAddr: 0x72BC, symBinAddr: 0x100021AE8, symSize: 0x3C }
  - { offsetInCU: 0x1058F, offset: 0x4FCB1, size: 0x8, addend: 0x0, symName: __ZNSt3__119normal_distributionIdE10param_typeC2B8ue170006Edd, symObjAddr: 0x72F8, symBinAddr: 0x100021B24, symSize: 0x2C }
  - { offsetInCU: 0x105D3, offset: 0x4FCF5, size: 0x8, addend: 0x0, symName: __ZNSt3__119normal_distributionIdEclINS_13random_deviceEEEdRT_RKNS1_10param_typeE, symObjAddr: 0x7324, symBinAddr: 0x100021B50, symSize: 0x164 }
  - { offsetInCU: 0x106A4, offset: 0x4FDC6, size: 0x8, addend: 0x0, symName: __ZNSt3__125uniform_real_distributionIdEC1B8ue170006Edd, symObjAddr: 0x7488, symBinAddr: 0x100021CB4, symSize: 0x3C }
  - { offsetInCU: 0x106E8, offset: 0x4FE0A, size: 0x8, addend: 0x0, symName: __ZNSt3__125uniform_real_distributionIdEclB8ue170006INS_13random_deviceEEEdRT_, symObjAddr: 0x74C4, symBinAddr: 0x100021CF0, symSize: 0x30 }
  - { offsetInCU: 0x10723, offset: 0x4FE45, size: 0x8, addend: 0x0, symName: __ZNKSt3__119normal_distributionIdE10param_type6stddevB8ue170006Ev, symObjAddr: 0x74F4, symBinAddr: 0x100021D20, symSize: 0x18 }
  - { offsetInCU: 0x10747, offset: 0x4FE69, size: 0x8, addend: 0x0, symName: __ZNKSt3__119normal_distributionIdE10param_type4meanB8ue170006Ev, symObjAddr: 0x750C, symBinAddr: 0x100021D38, symSize: 0x18 }
  - { offsetInCU: 0x1076B, offset: 0x4FE8D, size: 0x8, addend: 0x0, symName: __ZNSt3__125uniform_real_distributionIdEC2B8ue170006Edd, symObjAddr: 0x7524, symBinAddr: 0x100021D50, symSize: 0x3C }
  - { offsetInCU: 0x107AF, offset: 0x4FED1, size: 0x8, addend: 0x0, symName: __ZNSt3__125uniform_real_distributionIdE10param_typeC1B8ue170006Edd, symObjAddr: 0x7560, symBinAddr: 0x100021D8C, symSize: 0x3C }
  - { offsetInCU: 0x107F3, offset: 0x4FF15, size: 0x8, addend: 0x0, symName: __ZNSt3__125uniform_real_distributionIdE10param_typeC2B8ue170006Edd, symObjAddr: 0x759C, symBinAddr: 0x100021DC8, symSize: 0x2C }
  - { offsetInCU: 0x10837, offset: 0x4FF59, size: 0x8, addend: 0x0, symName: __ZNSt3__125uniform_real_distributionIdEclINS_13random_deviceEEEdRT_RKNS1_10param_typeE, symObjAddr: 0x75C8, symBinAddr: 0x100021DF4, symSize: 0x6C }
  - { offsetInCU: 0x10882, offset: 0x4FFA4, size: 0x8, addend: 0x0, symName: __ZNKSt3__125uniform_real_distributionIdE10param_type1bB8ue170006Ev, symObjAddr: 0x7634, symBinAddr: 0x100021E60, symSize: 0x18 }
  - { offsetInCU: 0x108A6, offset: 0x4FFC8, size: 0x8, addend: 0x0, symName: __ZNKSt3__125uniform_real_distributionIdE10param_type1aB8ue170006Ev, symObjAddr: 0x764C, symBinAddr: 0x100021E78, symSize: 0x18 }
  - { offsetInCU: 0x108CA, offset: 0x4FFEC, size: 0x8, addend: 0x0, symName: __ZNSt3__113random_device3maxB8ue170006Ev, symObjAddr: 0x7778, symBinAddr: 0x100021FA4, symSize: 0x8 }
  - { offsetInCU: 0x108DE, offset: 0x50000, size: 0x8, addend: 0x0, symName: __ZNSt3__113random_device3minB8ue170006Ev, symObjAddr: 0x7780, symBinAddr: 0x100021FAC, symSize: 0x8 }
  - { offsetInCU: 0x108F2, offset: 0x50014, size: 0x8, addend: 0x0, symName: __ZNSt3__15queueINS_17reference_wrapperI5valueEENS_5dequeIS3_NS_9allocatorIS3_EEEEEC2B8ue170006Ev, symObjAddr: 0x7788, symBinAddr: 0x100021FB4, symSize: 0x2C }
  - { offsetInCU: 0x1091A, offset: 0x5003C, size: 0x8, addend: 0x0, symName: __ZNSt3__15dequeINS_17reference_wrapperI5valueEENS_9allocatorIS3_EEEC1B8ue170006Ev, symObjAddr: 0x77B4, symBinAddr: 0x100021FE0, symSize: 0x2C }
  - { offsetInCU: 0x10942, offset: 0x50064, size: 0x8, addend: 0x0, symName: __ZNSt3__15dequeINS_17reference_wrapperI5valueEENS_9allocatorIS3_EEEC2B8ue170006Ev, symObjAddr: 0x77E0, symBinAddr: 0x10002200C, symSize: 0x5C }
  - { offsetInCU: 0x1096A, offset: 0x5008C, size: 0x8, addend: 0x0, symName: __ZNSt3__114__split_bufferIPNS_17reference_wrapperI5valueEENS_9allocatorIS4_EEEC1B8ue170006Ev, symObjAddr: 0x783C, symBinAddr: 0x100022068, symSize: 0x2C }
  - { offsetInCU: 0x10997, offset: 0x500B9, size: 0x8, addend: 0x0, symName: __ZNSt3__117__compressed_pairImNS_9allocatorINS_17reference_wrapperI5valueEEEEEC1B8ue170006IiNS_18__default_init_tagEEEOT_OT0_, symObjAddr: 0x7868, symBinAddr: 0x100022094, symSize: 0x3C }
  - { offsetInCU: 0x109ED, offset: 0x5010F, size: 0x8, addend: 0x0, symName: __ZNSt3__114__split_bufferIPNS_17reference_wrapperI5valueEENS_9allocatorIS4_EEEC2B8ue170006Ev, symObjAddr: 0x78A4, symBinAddr: 0x1000220D0, symSize: 0x50 }
  - { offsetInCU: 0x10A15, offset: 0x50137, size: 0x8, addend: 0x0, symName: __ZNSt3__117__compressed_pairIPPNS_17reference_wrapperI5valueEENS_9allocatorIS4_EEEC1B8ue170006IDnNS_18__default_init_tagEEEOT_OT0_, symObjAddr: 0x78F4, symBinAddr: 0x100022120, symSize: 0x3C }
  - { offsetInCU: 0x10A6B, offset: 0x5018D, size: 0x8, addend: 0x0, symName: __ZNSt3__117__compressed_pairIPPNS_17reference_wrapperI5valueEENS_9allocatorIS4_EEEC2B8ue170006IDnNS_18__default_init_tagEEEOT_OT0_, symObjAddr: 0x7930, symBinAddr: 0x10002215C, symSize: 0x40 }
  - { offsetInCU: 0x10AC1, offset: 0x501E3, size: 0x8, addend: 0x0, symName: __ZNSt3__122__compressed_pair_elemINS_9allocatorIPNS_17reference_wrapperI5valueEEEELi1ELb1EEC2B8ue170006ENS_18__default_init_tagE, symObjAddr: 0x7970, symBinAddr: 0x10002219C, symSize: 0x2C }
  - { offsetInCU: 0x10AF4, offset: 0x50216, size: 0x8, addend: 0x0, symName: __ZNSt3__19allocatorIPNS_17reference_wrapperI5valueEEEC2B8ue170006Ev, symObjAddr: 0x799C, symBinAddr: 0x1000221C8, symSize: 0x2C }
  - { offsetInCU: 0x10B1C, offset: 0x5023E, size: 0x8, addend: 0x0, symName: __ZNSt3__116__non_trivial_ifILb1ENS_9allocatorIPNS_17reference_wrapperI5valueEEEEEC2B8ue170006Ev, symObjAddr: 0x79C8, symBinAddr: 0x1000221F4, symSize: 0x14 }
  - { offsetInCU: 0x10B44, offset: 0x50266, size: 0x8, addend: 0x0, symName: __ZNSt3__117__compressed_pairImNS_9allocatorINS_17reference_wrapperI5valueEEEEEC2B8ue170006IiNS_18__default_init_tagEEEOT_OT0_, symObjAddr: 0x79DC, symBinAddr: 0x100022208, symSize: 0x40 }
  - { offsetInCU: 0x10B9A, offset: 0x502BC, size: 0x8, addend: 0x0, symName: __ZNSt3__15dequeINS_17reference_wrapperI5valueEENS_9allocatorIS3_EEE9push_backEOS3_, symObjAddr: 0x7A40, symBinAddr: 0x100022248, symSize: 0xAC }
  - { offsetInCU: 0x10BDF, offset: 0x50301, size: 0x8, addend: 0x0, symName: __ZNSt3__15dequeINS_17reference_wrapperI5valueEENS_9allocatorIS3_EEE5frontEv, symObjAddr: 0x7AEC, symBinAddr: 0x1000222F4, symSize: 0x50 }
  - { offsetInCU: 0x10C06, offset: 0x50328, size: 0x8, addend: 0x0, symName: __ZNSt3__15dequeINS_17reference_wrapperI5valueEENS_9allocatorIS3_EEE9pop_frontEv, symObjAddr: 0x7B3C, symBinAddr: 0x100022344, symSize: 0xD4 }
  - { offsetInCU: 0x10C5A, offset: 0x5037C, size: 0x8, addend: 0x0, symName: __ZNKSt3__15dequeINS_17reference_wrapperI5valueEENS_9allocatorIS3_EEE23__annotate_shrink_frontB8ue170006Emm, symObjAddr: 0x7C10, symBinAddr: 0x100022418, symSize: 0x70 }
  - { offsetInCU: 0x10C9C, offset: 0x503BE, size: 0x8, addend: 0x0, symName: __ZNSt3__15dequeINS_17reference_wrapperI5valueEENS_9allocatorIS3_EEE26__maybe_remove_front_spareB8ue170006Eb, symObjAddr: 0x7C80, symBinAddr: 0x100022488, symSize: 0xEC }
  - { offsetInCU: 0x10CCF, offset: 0x503F1, size: 0x8, addend: 0x0, symName: __ZNKSt3__15dequeINS_17reference_wrapperI5valueEENS_9allocatorIS3_EEE20__front_spare_blocksB8ue170006Ev, symObjAddr: 0x7D6C, symBinAddr: 0x100022574, symSize: 0x2C }
  - { offsetInCU: 0x10CF3, offset: 0x50415, size: 0x8, addend: 0x0, symName: __ZNSt3__16vectorINS_17reference_wrapperI5valueEENS_9allocatorIS3_EEE11__make_iterB8ue170006EPS3_, symObjAddr: 0x7D98, symBinAddr: 0x1000225A0, symSize: 0x30 }
  - { offsetInCU: 0x10D26, offset: 0x50448, size: 0x8, addend: 0x0, symName: __ZNSt3__111__wrap_iterIPNS_17reference_wrapperI5valueEEEC1B8ue170006ES4_, symObjAddr: 0x7DC8, symBinAddr: 0x1000225D0, symSize: 0x34 }
  - { offsetInCU: 0x10D5C, offset: 0x5047E, size: 0x8, addend: 0x0, symName: __ZNSt3__111__wrap_iterIPNS_17reference_wrapperI5valueEEEC2B8ue170006ES4_, symObjAddr: 0x7DFC, symBinAddr: 0x100022604, symSize: 0x20 }
  - { offsetInCU: 0x10D9C, offset: 0x504BE, size: 0x8, addend: 0x0, symName: '__ZZN5value19calculate_gradientsEvENK3$_0clERS_', symObjAddr: 0x7E50, symBinAddr: 0x100022658, symSize: 0x6C }
  - { offsetInCU: 0x10DD2, offset: 0x504F4, size: 0x8, addend: 0x0, symName: __ZNKSt3__111__wrap_iterIPNS_17reference_wrapperI5valueEEEdeB8ue170006Ev, symObjAddr: 0x7EBC, symBinAddr: 0x1000226C4, symSize: 0x18 }
  - { offsetInCU: 0x10DF6, offset: 0x50518, size: 0x8, addend: 0x0, symName: __ZNKSt3__117reference_wrapperI5valueEcvRS1_B8ue170006Ev, symObjAddr: 0x7ED4, symBinAddr: 0x1000226DC, symSize: 0x18 }
  - { offsetInCU: 0x10E1A, offset: 0x5053C, size: 0x8, addend: 0x0, symName: __ZNSt3__111__wrap_iterIPNS_17reference_wrapperI5valueEEEppB8ue170006Ev, symObjAddr: 0x7EEC, symBinAddr: 0x1000226F4, symSize: 0x20 }
  - { offsetInCU: 0x10E3E, offset: 0x50560, size: 0x8, addend: 0x0, symName: __ZNKSt3__111__wrap_iterIPNS_17reference_wrapperI5valueEEE4baseB8ue170006Ev, symObjAddr: 0x7F54, symBinAddr: 0x10002275C, symSize: 0x18 }
  - { offsetInCU: 0x10E71, offset: 0x50593, size: 0x8, addend: 0x0, symName: '__ZZN5value5learnEdENK3$_1clERS_', symObjAddr: 0x7F6C, symBinAddr: 0x100022774, symSize: 0xA4 }
  - { offsetInCU: 0x10EC5, offset: 0x505E7, size: 0x8, addend: 0x0, symName: __ZNKSt3__113basic_ostreamIcNS_11char_traitsIcEEE6sentrycvbB8ue170006Ev, symObjAddr: 0x81FC, symBinAddr: 0x100022A04, symSize: 0x1C }
  - { offsetInCU: 0x10EE9, offset: 0x5060B, size: 0x8, addend: 0x0, symName: __ZNSt3__119ostreambuf_iteratorIcNS_11char_traitsIcEEEC1B8ue170006ERNS_13basic_ostreamIcS2_EE, symObjAddr: 0x8458, symBinAddr: 0x100022C60, symSize: 0x34 }
  - { offsetInCU: 0x10F1F, offset: 0x50641, size: 0x8, addend: 0x0, symName: __ZNKSt3__18ios_base5flagsB8ue170006Ev, symObjAddr: 0x848C, symBinAddr: 0x100022C94, symSize: 0x18 }
  - { offsetInCU: 0x10F46, offset: 0x50668, size: 0x8, addend: 0x0, symName: __ZNKSt3__19basic_iosIcNS_11char_traitsIcEEE4fillB8ue170006Ev, symObjAddr: 0x84A4, symBinAddr: 0x100022CAC, symSize: 0x64 }
  - { offsetInCU: 0x10F6D, offset: 0x5068F, size: 0x8, addend: 0x0, symName: __ZNKSt3__119ostreambuf_iteratorIcNS_11char_traitsIcEEE6failedB8ue170006Ev, symObjAddr: 0x8508, symBinAddr: 0x100022D10, symSize: 0x24 }
  - { offsetInCU: 0x10F91, offset: 0x506B3, size: 0x8, addend: 0x0, symName: __ZNSt3__19basic_iosIcNS_11char_traitsIcEEE8setstateB8ue170006Ej, symObjAddr: 0x852C, symBinAddr: 0x100022D34, symSize: 0x2C }
  - { offsetInCU: 0x10FC4, offset: 0x506E6, size: 0x8, addend: 0x0, symName: __ZNKSt3__18ios_base5widthB8ue170006Ev, symObjAddr: 0x8558, symBinAddr: 0x100022D60, symSize: 0x18 }
  - { offsetInCU: 0x10FEB, offset: 0x5070D, size: 0x8, addend: 0x0, symName: __ZNSt3__115basic_streambufIcNS_11char_traitsIcEEE5sputnB8ue170006EPKcl, symObjAddr: 0x8570, symBinAddr: 0x100022D78, symSize: 0x3C }
  - { offsetInCU: 0x1102B, offset: 0x5074D, size: 0x8, addend: 0x0, symName: __ZNSt3__112basic_stringIcNS_11char_traitsIcEENS_9allocatorIcEEEC1B8ue170006Emc, symObjAddr: 0x85AC, symBinAddr: 0x100022DB4, symSize: 0x3C }
  - { offsetInCU: 0x11071, offset: 0x50793, size: 0x8, addend: 0x0, symName: __ZNSt3__112basic_stringIcNS_11char_traitsIcEENS_9allocatorIcEEE4dataB8ue170006Ev, symObjAddr: 0x85E8, symBinAddr: 0x100022DF0, symSize: 0x28 }
  - { offsetInCU: 0x11095, offset: 0x507B7, size: 0x8, addend: 0x0, symName: __ZNSt3__18ios_base5widthB8ue170006El, symObjAddr: 0x8610, symBinAddr: 0x100022E18, symSize: 0x2C }
  - { offsetInCU: 0x110DA, offset: 0x507FC, size: 0x8, addend: 0x0, symName: __ZNSt3__112basic_stringIcNS_11char_traitsIcEENS_9allocatorIcEEEC2B8ue170006Emc, symObjAddr: 0x863C, symBinAddr: 0x100022E44, symSize: 0x4C }
  - { offsetInCU: 0x11120, offset: 0x50842, size: 0x8, addend: 0x0, symName: __ZNSt3__112basic_stringIcNS_11char_traitsIcEENS_9allocatorIcEEE13__get_pointerB8ue170006Ev, symObjAddr: 0x869C, symBinAddr: 0x100022EA4, symSize: 0x54 }
  - { offsetInCU: 0x11144, offset: 0x50866, size: 0x8, addend: 0x0, symName: __ZNKSt3__112basic_stringIcNS_11char_traitsIcEENS_9allocatorIcEEE9__is_longB8ue170006Ev, symObjAddr: 0x86F0, symBinAddr: 0x100022EF8, symSize: 0x38 }
  - { offsetInCU: 0x11168, offset: 0x5088A, size: 0x8, addend: 0x0, symName: __ZNSt3__112basic_stringIcNS_11char_traitsIcEENS_9allocatorIcEEE18__get_long_pointerB8ue170006Ev, symObjAddr: 0x8728, symBinAddr: 0x100022F30, symSize: 0x28 }
  - { offsetInCU: 0x1118C, offset: 0x508AE, size: 0x8, addend: 0x0, symName: __ZNSt3__112basic_stringIcNS_11char_traitsIcEENS_9allocatorIcEEE19__get_short_pointerB8ue170006Ev, symObjAddr: 0x8750, symBinAddr: 0x100022F58, symSize: 0x28 }
  - { offsetInCU: 0x111B0, offset: 0x508D2, size: 0x8, addend: 0x0, symName: __ZNKSt3__117__compressed_pairINS_12basic_stringIcNS_11char_traitsIcEENS_9allocatorIcEEE5__repES5_E5firstB8ue170006Ev, symObjAddr: 0x8778, symBinAddr: 0x100022F80, symSize: 0x24 }
  - { offsetInCU: 0x111D4, offset: 0x508F6, size: 0x8, addend: 0x0, symName: __ZNKSt3__122__compressed_pair_elemINS_12basic_stringIcNS_11char_traitsIcEENS_9allocatorIcEEE5__repELi0ELb0EE5__getB8ue170006Ev, symObjAddr: 0x879C, symBinAddr: 0x100022FA4, symSize: 0x14 }
  - { offsetInCU: 0x111F8, offset: 0x5091A, size: 0x8, addend: 0x0, symName: __ZNSt3__117__compressed_pairINS_12basic_stringIcNS_11char_traitsIcEENS_9allocatorIcEEE5__repES5_E5firstB8ue170006Ev, symObjAddr: 0x87B0, symBinAddr: 0x100022FB8, symSize: 0x24 }
  - { offsetInCU: 0x1121C, offset: 0x5093E, size: 0x8, addend: 0x0, symName: __ZNSt3__122__compressed_pair_elemINS_12basic_stringIcNS_11char_traitsIcEENS_9allocatorIcEEE5__repELi0ELb0EE5__getB8ue170006Ev, symObjAddr: 0x87D4, symBinAddr: 0x100022FDC, symSize: 0x14 }
  - { offsetInCU: 0x11240, offset: 0x50962, size: 0x8, addend: 0x0, symName: __ZNSt3__114pointer_traitsIPcE10pointer_toB8ue170006ERc, symObjAddr: 0x87E8, symBinAddr: 0x100022FF0, symSize: 0x14 }
  - { offsetInCU: 0x11263, offset: 0x50985, size: 0x8, addend: 0x0, symName: __ZNSt3__119ostreambuf_iteratorIcNS_11char_traitsIcEEEC2B8ue170006ERNS_13basic_ostreamIcS2_EE, symObjAddr: 0x87FC, symBinAddr: 0x100023004, symSize: 0x54 }
  - { offsetInCU: 0x11299, offset: 0x509BB, size: 0x8, addend: 0x0, symName: __ZNKSt3__19basic_iosIcNS_11char_traitsIcEEE5rdbufB8ue170006Ev, symObjAddr: 0x8850, symBinAddr: 0x100023058, symSize: 0x24 }
  - { offsetInCU: 0x112C0, offset: 0x509E2, size: 0x8, addend: 0x0, symName: __ZNKSt3__18ios_base5rdbufB8ue170006Ev, symObjAddr: 0x8874, symBinAddr: 0x10002307C, symSize: 0x18 }
  - { offsetInCU: 0x112E4, offset: 0x50A06, size: 0x8, addend: 0x0, symName: __ZNSt3__111char_traitsIcE11eq_int_typeB8ue170006Eii, symObjAddr: 0x888C, symBinAddr: 0x100023094, symSize: 0x28 }
  - { offsetInCU: 0x11317, offset: 0x50A39, size: 0x8, addend: 0x0, symName: __ZNSt3__111char_traitsIcE3eofB8ue170006Ev, symObjAddr: 0x88B4, symBinAddr: 0x1000230BC, symSize: 0x8 }
  - { offsetInCU: 0x1132B, offset: 0x50A4D, size: 0x8, addend: 0x0, symName: __ZNKSt3__19basic_iosIcNS_11char_traitsIcEEE5widenB8ue170006Ec, symObjAddr: 0x88BC, symBinAddr: 0x1000230C4, symSize: 0x84 }
  - { offsetInCU: 0x11393, offset: 0x50AB5, size: 0x8, addend: 0x0, symName: __ZNKSt3__15ctypeIcE5widenB8ue170006Ec, symObjAddr: 0x896C, symBinAddr: 0x100023174, symSize: 0x38 }
  - { offsetInCU: 0x113C6, offset: 0x50AE8, size: 0x8, addend: 0x0, symName: __ZNSt3__18ios_base8setstateB8ue170006Ej, symObjAddr: 0x89A4, symBinAddr: 0x1000231AC, symSize: 0x34 }
  - { offsetInCU: 0x5C5F, offset: 0x568F3, size: 0x8, addend: 0x0, symName: __ZNSt3__13maxB8ue170006IdEERKT_S3_S3_, symObjAddr: 0x3D4, symBinAddr: 0x1000233DC, symSize: 0x2C }
  - { offsetInCU: 0x5CA3, offset: 0x56937, size: 0x8, addend: 0x0, symName: __ZNSt3__13minB8ue170006IdEERKT_S3_S3_, symObjAddr: 0x400, symBinAddr: 0x100023408, symSize: 0x2C }
  - { offsetInCU: 0x5CE7, offset: 0x5697B, size: 0x8, addend: 0x0, symName: '__ZNSt3__18for_eachB8ue170006INS_11__wrap_iterIPdEEZN11value_arrayC1ERNS_6vectorIdNS_9allocatorIdEEEEE3$_0EET0_T_SC_SB_', symObjAddr: 0x560, symBinAddr: 0x100023568, symSize: 0x6C }
  - { offsetInCU: 0x5D42, offset: 0x569D6, size: 0x8, addend: 0x0, symName: '__ZNSt3__18for_eachB8ue170006INS_11__wrap_iterIP5valueEEZN11value_array11random_initEvE3$_1EET0_T_S8_S7_', symObjAddr: 0x750, symBinAddr: 0x100023724, symSize: 0x5C }
  - { offsetInCU: 0x5D9D, offset: 0x56A31, size: 0x8, addend: 0x0, symName: '__ZNSt3__18for_eachB8ue170006INS_11__wrap_iterIP5valueEEZN11value_array3sumEvE3$_2EET0_T_S8_S7_', symObjAddr: 0xF5C, symBinAddr: 0x100023E7C, symSize: 0x6C }
  - { offsetInCU: 0x5DF8, offset: 0x56A8C, size: 0x8, addend: 0x0, symName: '__ZNSt3__18for_eachB8ue170006INS_11__wrap_iterIP5valueEEZN11value_array7softmaxEvE3$_3EET0_T_S8_S7_', symObjAddr: 0x12E4, symBinAddr: 0x100024198, symSize: 0x5C }
  - { offsetInCU: 0x5E53, offset: 0x56AE7, size: 0x8, addend: 0x0, symName: '__ZNSt3__18for_eachB8ue170006INS_11__wrap_iterIP5valueEEZN11value_array13cross_entropyEiE3$_4EET0_T_S8_S7_', symObjAddr: 0x1460, symBinAddr: 0x100024314, symSize: 0x80 }
  - { offsetInCU: 0x5EAF, offset: 0x56B43, size: 0x8, addend: 0x0, symName: '__ZNSt3__18for_eachB8ue170006INS_11__wrap_iterIP5valueEEZlsRNS_13basic_ostreamIcNS_11char_traitsIcEEEER11value_arrayE3$_5EET0_T_SE_SD_', symObjAddr: 0x15B0, symBinAddr: 0x100024464, symSize: 0x6C }
  - { offsetInCU: 0x5F0A, offset: 0x56B9E, size: 0x8, addend: 0x0, symName: __ZNSt3__13maxB8ue170006IdNS_6__lessIvvEEEERKT_S5_S5_T0_, symObjAddr: 0x1C78, symBinAddr: 0x1000244D0, symSize: 0x54 }
  - { offsetInCU: 0x5FDD, offset: 0x56C71, size: 0x8, addend: 0x0, symName: __ZNSt3__13minB8ue170006IdNS_6__lessIvvEEEERKT_S5_S5_T0_, symObjAddr: 0x1D00, symBinAddr: 0x100024558, symSize: 0x54 }
  - { offsetInCU: 0x6038, offset: 0x56CCC, size: 0x8, addend: 0x0, symName: __ZNSt3__1neB8ue170006IPdEEbRKNS_11__wrap_iterIT_EES6_, symObjAddr: 0x3AE4, symBinAddr: 0x100024630, symSize: 0x34 }
  - { offsetInCU: 0x607C, offset: 0x56D10, size: 0x8, addend: 0x0, symName: __ZNSt3__1eqB8ue170006IPdEEbRKNS_11__wrap_iterIT_EES6_, symObjAddr: 0x3C00, symBinAddr: 0x10002474C, symSize: 0x48 }
  - { offsetInCU: 0x8FA5, offset: 0x59C39, size: 0x8, addend: 0x0, symName: __ZN11value_arrayC2Ev, symObjAddr: 0x0, symBinAddr: 0x1000231E0, symSize: 0x2C }
  - { offsetInCU: 0x8FCF, offset: 0x59C63, size: 0x8, addend: 0x0, symName: __ZN11value_arrayC1Ev, symObjAddr: 0x58, symBinAddr: 0x10002320C, symSize: 0x2C }
  - { offsetInCU: 0x8FF9, offset: 0x59C8D, size: 0x8, addend: 0x0, symName: __ZN11value_arrayC2Em, symObjAddr: 0x84, symBinAddr: 0x100023238, symSize: 0x124 }
  - { offsetInCU: 0x905C, offset: 0x59CF0, size: 0x8, addend: 0x0, symName: __ZN11value_arrayC1Em, symObjAddr: 0x354, symBinAddr: 0x10002335C, symSize: 0x34 }
  - { offsetInCU: 0x9094, offset: 0x59D28, size: 0x8, addend: 0x0, symName: __ZN11value_array4clipEddd, symObjAddr: 0x388, symBinAddr: 0x100023390, symSize: 0x4C }
  - { offsetInCU: 0x90E5, offset: 0x59D79, size: 0x8, addend: 0x0, symName: __ZN11value_arrayixEm, symObjAddr: 0x42C, symBinAddr: 0x100023434, symSize: 0x2C }
  - { offsetInCU: 0x911A, offset: 0x59DAE, size: 0x8, addend: 0x0, symName: __ZNSt3__16vectorI5valueNS_9allocatorIS1_EEEixB8ue170006Em, symObjAddr: 0x458, symBinAddr: 0x100023460, symSize: 0x24 }
  - { offsetInCU: 0x9150, offset: 0x59DE4, size: 0x8, addend: 0x0, symName: __ZN11value_arrayC2ERNSt3__16vectorIdNS0_9allocatorIdEEEE, symObjAddr: 0x47C, symBinAddr: 0x100023484, symSize: 0xBC }
  - { offsetInCU: 0x9188, offset: 0x59E1C, size: 0x8, addend: 0x0, symName: __ZNKSt3__16vectorIdNS_9allocatorIdEEE4sizeB8ue170006Ev, symObjAddr: 0x538, symBinAddr: 0x100023540, symSize: 0x28 }
  - { offsetInCU: 0x91AB, offset: 0x59E3F, size: 0x8, addend: 0x0, symName: __ZNSt3__16vectorIdNS_9allocatorIdEEE5beginB8ue170006Ev, symObjAddr: 0x5CC, symBinAddr: 0x1000235D4, symSize: 0x30 }
  - { offsetInCU: 0x91D2, offset: 0x59E66, size: 0x8, addend: 0x0, symName: __ZNSt3__16vectorIdNS_9allocatorIdEEE3endB8ue170006Ev, symObjAddr: 0x5FC, symBinAddr: 0x100023604, symSize: 0x30 }
  - { offsetInCU: 0x91FA, offset: 0x59E8E, size: 0x8, addend: 0x0, symName: __ZN11value_arrayC1ERNSt3__16vectorIdNS0_9allocatorIdEEEE, symObjAddr: 0x62C, symBinAddr: 0x100023634, symSize: 0x34 }
  - { offsetInCU: 0x9259, offset: 0x59EED, size: 0x8, addend: 0x0, symName: __ZN11value_arrayC2EOS_, symObjAddr: 0x660, symBinAddr: 0x100023668, symSize: 0x40 }
  - { offsetInCU: 0x9291, offset: 0x59F25, size: 0x8, addend: 0x0, symName: __ZN11value_arrayC1EOS_, symObjAddr: 0x6D4, symBinAddr: 0x1000236A8, symSize: 0x34 }
  - { offsetInCU: 0x92C9, offset: 0x59F5D, size: 0x8, addend: 0x0, symName: __ZN11value_array11random_initEv, symObjAddr: 0x708, symBinAddr: 0x1000236DC, symSize: 0x48 }
  - { offsetInCU: 0x930B, offset: 0x59F9F, size: 0x8, addend: 0x0, symName: __ZN11value_arrayaSERNSt3__16vectorI5valueNS0_9allocatorIS2_EEEE, symObjAddr: 0x80C, symBinAddr: 0x100023780, symSize: 0x44 }
  - { offsetInCU: 0x933F, offset: 0x59FD3, size: 0x8, addend: 0x0, symName: __ZNSt3__16vectorI5valueNS_9allocatorIS1_EEEaSB8ue170006EOS4_, symObjAddr: 0x850, symBinAddr: 0x1000237C4, symSize: 0x34 }
  - { offsetInCU: 0x9376, offset: 0x5A00A, size: 0x8, addend: 0x0, symName: __ZN11value_array4sizeEv, symObjAddr: 0x8AC, symBinAddr: 0x1000237F8, symSize: 0x24 }
  - { offsetInCU: 0x939D, offset: 0x5A031, size: 0x8, addend: 0x0, symName: __ZN11value_array11return_copyEv, symObjAddr: 0x8D0, symBinAddr: 0x10002381C, symSize: 0x160 }
  - { offsetInCU: 0x93F2, offset: 0x5A086, size: 0x8, addend: 0x0, symName: __ZN11value_arrayplERS_, symObjAddr: 0xA5C, symBinAddr: 0x10002397C, symSize: 0x1C8 }
  - { offsetInCU: 0x9456, offset: 0x5A0EA, size: 0x8, addend: 0x0, symName: __ZN11value_arraymlERS_, symObjAddr: 0xC24, symBinAddr: 0x100023B44, symSize: 0x1C8 }
  - { offsetInCU: 0x94BA, offset: 0x5A14E, size: 0x8, addend: 0x0, symName: __ZN11value_arrayaSEOS_, symObjAddr: 0xDEC, symBinAddr: 0x100023D0C, symSize: 0x50 }
  - { offsetInCU: 0x94EF, offset: 0x5A183, size: 0x8, addend: 0x0, symName: __ZNSt3__16vectorI5valueNS_9allocatorIS1_EEE5clearB8ue170006Ev, symObjAddr: 0xE3C, symBinAddr: 0x100023D5C, symSize: 0x44 }
  - { offsetInCU: 0x9522, offset: 0x5A1B6, size: 0x8, addend: 0x0, symName: __ZN11value_array3sumEv, symObjAddr: 0xE80, symBinAddr: 0x100023DA0, symSize: 0xDC }
  - { offsetInCU: 0x957F, offset: 0x5A213, size: 0x8, addend: 0x0, symName: __ZN11value_array7softmaxEv, symObjAddr: 0xFC8, symBinAddr: 0x100023EE8, symSize: 0x2B0 }
  - { offsetInCU: 0x965A, offset: 0x5A2EE, size: 0x8, addend: 0x0, symName: __ZN11value_array13cross_entropyEi, symObjAddr: 0x1340, symBinAddr: 0x1000241F4, symSize: 0x120 }
  - { offsetInCU: 0x96EB, offset: 0x5A37F, size: 0x8, addend: 0x0, symName: __ZN11value_array13requires_gradEv, symObjAddr: 0x14E0, symBinAddr: 0x100024394, symSize: 0x78 }
  - { offsetInCU: 0x9762, offset: 0x5A3F6, size: 0x8, addend: 0x0, symName: __ZlsRNSt3__113basic_ostreamIcNS_11char_traitsIcEEEER11value_array, symObjAddr: 0x1558, symBinAddr: 0x10002440C, symSize: 0x58 }
  - { offsetInCU: 0x97CF, offset: 0x5A463, size: 0x8, addend: 0x0, symName: __ZNKSt3__16__lessIvvEclB8ue170006IddEEbRKT_RKT0_, symObjAddr: 0x1CCC, symBinAddr: 0x100024524, symSize: 0x34 }
  - { offsetInCU: 0x984E, offset: 0x5A4E2, size: 0x8, addend: 0x0, symName: __ZNSt3__16vectorIdNS_9allocatorIdEEE11__make_iterB8ue170006EPd, symObjAddr: 0x3A60, symBinAddr: 0x1000245AC, symSize: 0x30 }
  - { offsetInCU: 0x9881, offset: 0x5A515, size: 0x8, addend: 0x0, symName: __ZNSt3__111__wrap_iterIPdEC1B8ue170006ES1_, symObjAddr: 0x3A90, symBinAddr: 0x1000245DC, symSize: 0x34 }
  - { offsetInCU: 0x98B7, offset: 0x5A54B, size: 0x8, addend: 0x0, symName: __ZNSt3__111__wrap_iterIPdEC2B8ue170006ES1_, symObjAddr: 0x3AC4, symBinAddr: 0x100024610, symSize: 0x20 }
  - { offsetInCU: 0x98FC, offset: 0x5A590, size: 0x8, addend: 0x0, symName: '__ZZN11value_arrayC1ERNSt3__16vectorIdNS0_9allocatorIdEEEEENK3$_0clERd', symObjAddr: 0x3B18, symBinAddr: 0x100024664, symSize: 0xB0 }
  - { offsetInCU: 0x9932, offset: 0x5A5C6, size: 0x8, addend: 0x0, symName: __ZNKSt3__111__wrap_iterIPdEdeB8ue170006Ev, symObjAddr: 0x3BC8, symBinAddr: 0x100024714, symSize: 0x18 }
  - { offsetInCU: 0x9956, offset: 0x5A5EA, size: 0x8, addend: 0x0, symName: __ZNSt3__111__wrap_iterIPdEppB8ue170006Ev, symObjAddr: 0x3BE0, symBinAddr: 0x10002472C, symSize: 0x20 }
  - { offsetInCU: 0x997A, offset: 0x5A60E, size: 0x8, addend: 0x0, symName: __ZNKSt3__111__wrap_iterIPdE4baseB8ue170006Ev, symObjAddr: 0x3C48, symBinAddr: 0x100024794, symSize: 0x18 }
  - { offsetInCU: 0x99A8, offset: 0x5A63C, size: 0x8, addend: 0x0, symName: '__ZZN11value_array11random_initEvENK3$_1clER5value', symObjAddr: 0x3E40, symBinAddr: 0x1000247AC, symSize: 0x28 }
  - { offsetInCU: 0x99DD, offset: 0x5A671, size: 0x8, addend: 0x0, symName: __ZNSt3__16vectorI5valueNS_9allocatorIS1_EEE13__move_assignERS4_NS_17integral_constantIbLb1EEE, symObjAddr: 0x3E68, symBinAddr: 0x1000247D4, symSize: 0x94 }
  - { offsetInCU: 0x9A1E, offset: 0x5A6B2, size: 0x8, addend: 0x0, symName: __ZNSt3__16vectorI5valueNS_9allocatorIS1_EEE13__vdeallocateEv, symObjAddr: 0x3EFC, symBinAddr: 0x100024868, symSize: 0x94 }
  - { offsetInCU: 0x9A46, offset: 0x5A6DA, size: 0x8, addend: 0x0, symName: __ZNSt3__16vectorI5valueNS_9allocatorIS1_EEE19__move_assign_allocB8ue170006ERS4_, symObjAddr: 0x3F90, symBinAddr: 0x1000248FC, symSize: 0x2C }
  - { offsetInCU: 0x9A79, offset: 0x5A70D, size: 0x8, addend: 0x0, symName: __ZNSt3__16vectorI5valueNS_9allocatorIS1_EEE19__move_assign_allocB8ue170006ERS4_NS_17integral_constantIbLb1EEE, symObjAddr: 0x3FBC, symBinAddr: 0x100024928, symSize: 0x38 }
  - { offsetInCU: 0x9AB7, offset: 0x5A74B, size: 0x8, addend: 0x0, symName: __ZNKSt3__16vectorI5valueNS_9allocatorIS1_EEE17__annotate_shrinkB8ue170006Em, symObjAddr: 0x3FF4, symBinAddr: 0x100024960, symSize: 0xB4 }
  - { offsetInCU: 0x9AF4, offset: 0x5A788, size: 0x8, addend: 0x0, symName: '__ZZN11value_array3sumEvENK3$_2clER5value', symObjAddr: 0x40A8, symBinAddr: 0x100024A14, symSize: 0x30 }
  - { offsetInCU: 0x9B34, offset: 0x5A7C8, size: 0x8, addend: 0x0, symName: '__ZZN11value_array7softmaxEvENK3$_3clER5value', symObjAddr: 0x40D8, symBinAddr: 0x100024A44, symSize: 0x2C }
  - { offsetInCU: 0x9B79, offset: 0x5A80D, size: 0x8, addend: 0x0, symName: '__ZZN11value_array13cross_entropyEiENK3$_4clER5value', symObjAddr: 0x4104, symBinAddr: 0x100024A70, symSize: 0xA0 }
  - { offsetInCU: 0x9C48, offset: 0x5A8DC, size: 0x8, addend: 0x0, symName: '__ZZlsRNSt3__113basic_ostreamIcNS_11char_traitsIcEEEER11value_arrayENK3$_5clER5value', symObjAddr: 0x41A4, symBinAddr: 0x100024B10, symSize: 0x30 }
...
